 oracledb

 Timestamp is 5975ef09 (Mon Jul 24 18:28:49 2017)

 Preferred load address is 10000000

 Start         Length     Name                   Class
 0001:00000000 000000bdH .text$di                CODE
 0001:000000c0 0003c3fdH .text$mn                CODE
 0001:0003c4c0 000024a1H .text$x                 CODE
 0001:0003e970 000000daH .text$yd                CODE
 0002:00000000 000001d4H .idata$5                DATA
 0002:000001d4 00000004H .CRT$XCA                DATA
 0002:000001d8 0000000cH .CRT$XCC                DATA
 0002:000001e4 00000008H .CRT$XCL                DATA
 0002:000001ec 0000001cH .CRT$XCU                DATA
 0002:00000208 00000004H .CRT$XCZ                DATA
 0002:0000020c 00000004H .CRT$XIA                DATA
 0002:00000210 00000010H .CRT$XIC                DATA
 0002:00000220 00000004H .CRT$XIZ                DATA
 0002:00000224 00000004H .CRT$XPA                DATA
 0002:00000228 00000008H .CRT$XPX                DATA
 0002:00000230 00000004H .CRT$XPXA               DATA
 0002:00000234 00000004H .CRT$XPZ                DATA
 0002:00000238 00000004H .CRT$XTA                DATA
 0002:0000023c 00000004H .CRT$XTZ                DATA
 0002:00000240 000080d0H .rdata                  DATA
 0002:00008310 0000006cH .rdata$debug            DATA
 0002:0000837c 00000460H .rdata$r                DATA
 0002:000087e0 00000274H .rdata$sxdata           DATA
 0002:00008a54 00000004H .rtc$IAA                DATA
 0002:00008a58 00000004H .rtc$IZZ                DATA
 0002:00008a5c 00000004H .rtc$TAA                DATA
 0002:00008a60 00000004H .rtc$TZZ                DATA
 0002:00008a68 00002e00H .xdata$x                DATA
 0002:0000b868 00000020H .didat$2                DATA
 0002:0000b888 00000020H .didat$3                DATA
 0002:0000b8a8 00000160H .didat$4                DATA
 0002:0000ba08 0000156cH .didat$6                DATA
 0002:0000cf74 00000160H .didat$7                DATA
 0002:0000d0e0 00000054H .edata                  DATA
 0002:0000d134 00000028H .idata$2                DATA
 0002:0000d15c 00000014H .idata$3                DATA
 0002:0000d170 000001d4H .idata$4                DATA
 0002:0000d344 0000088aH .idata$6                DATA
 0003:00000000 00001550H .data                   DATA
 0003:00001550 0000025bH .data$r                 DATA
 0003:000017ac 00000160H .didat$5                DATA
 0003:00001920 00002188H .bss                    DATA
 0004:00000000 00000058H .rsrc$01                DATA
 0004:00000060 00000180H .rsrc$02                DATA

  Address         Publics by Value              Rva+Base       Lib:Object

 0000:00000000       ___guard_flags             00000000     <absolute>
 0000:00000000       __except_list              00000000     <absolute>
 0000:00000000       ___guard_fids_table        00000000     <absolute>
 0000:00000000       ___guard_fids_count        00000000     <absolute>
 0000:0000009d       ___safe_se_handler_count   0000009d     <absolute>
 0000:00000000       ___ImageBase               10000000     <linker-defined>
 0001:000000c0       ?what@exception@stdext@@UBEPBDXZ 100010c0 f i njsOracle.obj
 0001:000000d0       ?_Raise@exception@stdext@@QBEXXZ 100010d0 f i njsOracle.obj
 0001:00000100       ?_Unlock@?$basic_streambuf@DU?$char_traits@D@std@@@std@@UAEXXZ 10001100 f i njsOracle.obj
 0001:00000100       ??1?$Persistent@VFunction@v8@@V?$NonCopyablePersistentTraits@VFunction@v8@@@2@@Nan@@QAE@XZ 10001100 f i njsOracle.obj
 0001:00000100       ?_Lock@?$basic_streambuf@DU?$char_traits@D@std@@@std@@UAEXXZ 10001100 f i njsOracle.obj
 0001:00000100       ??1?$Persistent@VObject@v8@@V?$NonCopyablePersistentTraits@VObject@v8@@@2@@Nan@@QAE@XZ 10001100 f i njsOracle.obj
 0001:00000100       ?_Doraise@exception@stdext@@MBEXXZ 10001100 f i njsOracle.obj
 0001:00000110       ??_Efailure@ios_base@std@@UAEPAXI@Z 10001110 f i * CIL library *:* CIL module *
 0001:00000110       ??_Eexception@stdext@@UAEPAXI@Z 10001110 f i * CIL library *:* CIL module *
 0001:00000110       ??_Gruntime_error@std@@UAEPAXI@Z 10001110 f i njsOracle.obj
 0001:00000110       ??_Esystem_error@std@@UAEPAXI@Z 10001110 f i * CIL library *:* CIL module *
 0001:00000110       ??_G_System_error@std@@UAEPAXI@Z 10001110 f i njsOracle.obj
 0001:00000110       ??_GException@dpi@@UAEPAXI@Z 10001110 f i dpiEnvImpl.obj
 0001:00000110       ??_E_System_error@std@@UAEPAXI@Z 10001110 f i * CIL library *:* CIL module *
 0001:00000110       ??_Gsystem_error@std@@UAEPAXI@Z 10001110 f i njsOracle.obj
 0001:00000110       ??_Gexception@stdext@@UAEPAXI@Z 10001110 f i njsOracle.obj
 0001:00000110       ??_EException@dpi@@UAEPAXI@Z 10001110 f i * CIL library *:* CIL module *
 0001:00000110       ??_Gfailure@ios_base@std@@UAEPAXI@Z 10001110 f i njsOracle.obj
 0001:00000110       ??_Eruntime_error@std@@UAEPAXI@Z 10001110 f i * CIL library *:* CIL module *
 0001:00000130       ?_Doraise@runtime_error@std@@MBEXXZ 10001130 f i njsOracle.obj
 0001:00000130       ?_Doraise@system_error@std@@MBEXXZ 10001130 f i njsOracle.obj
 0001:00000130       ?_Doraise@failure@ios_base@std@@MBEXXZ 10001130 f i njsOracle.obj
 0001:00000140       ??1runtime_error@std@@UAE@XZ 10001140 f i njsOracle.obj
 0001:00000140       ??1failure@ios_base@std@@UAE@XZ 10001140 f i njsOracle.obj
 0001:00000140       ??1Exception@dpi@@UAE@XZ   10001140 f i dpiException.obj
 0001:00000150       ??0_Locinfo@std@@QAE@PBD@Z 10001150 f i njsOracle.obj
 0001:00000210       ??1_Locinfo@std@@QAE@XZ    10001210 f i njsOracle.obj
 0001:000002b0       ??_E_Facet_base@std@@UAEPAXI@Z 100012b0 f i * CIL library *:* CIL module *
 0001:000002b0       ??_E?$num_put@DV?$ostreambuf_iterator@DU?$char_traits@D@std@@@std@@@std@@MAEPAXI@Z 100012b0 f i * CIL library *:* CIL module *
 0001:000002b0       ??_G_Facet_base@std@@UAEPAXI@Z 100012b0 f i njsOracle.obj
 0001:000002b0       ??_G?$num_put@DV?$ostreambuf_iterator@DU?$char_traits@D@std@@@std@@@std@@MAEPAXI@Z 100012b0 f i njsOracle.obj
 0001:000002d0       ?_Incref@facet@locale@std@@UAEXXZ 100012d0 f i njsOracle.obj
 0001:000002e0       ?_Decref@facet@locale@std@@UAEPAV_Facet_base@3@XZ 100012e0 f i njsOracle.obj
 0001:00000300       ??1facet@locale@std@@MAE@XZ 10001300 f i njsOracle.obj
 0001:00000310       ??1locale@std@@QAE@XZ      10001310 f i njsOracle.obj
 0001:00000330       ?_Getcat@?$ctype@D@std@@SAIPAPBVfacet@locale@2@PBV42@@Z 10001330 f i njsOracle.obj
 0001:00000400       ?do_tolower@?$ctype@D@std@@MBEDD@Z 10001400 f i njsOracle.obj
 0001:00000420       ?do_tolower@?$ctype@D@std@@MBEPBDPADPBD@Z 10001420 f i njsOracle.obj
 0001:00000460       ?do_toupper@?$ctype@D@std@@MBEDD@Z 10001460 f i njsOracle.obj
 0001:00000480       ?do_toupper@?$ctype@D@std@@MBEPBDPADPBD@Z 10001480 f i njsOracle.obj
 0001:000004c0       ?do_widen@?$ctype@D@std@@MBEDD@Z 100014c0 f i njsOracle.obj
 0001:000004d0       ?do_widen@?$ctype@D@std@@MBEPBDPBD0PAD@Z 100014d0 f i njsOracle.obj
 0001:000004f0       ?do_narrow@?$ctype@D@std@@MBEDDD@Z 100014f0 f i njsOracle.obj
 0001:00000500       ?do_narrow@?$ctype@D@std@@MBEPBDPBD0DPAD@Z 10001500 f i njsOracle.obj
 0001:00000520       ??_G?$ctype@D@std@@MAEPAXI@Z 10001520 f i njsOracle.obj
 0001:00000520       ??_E?$ctype@D@std@@MAEPAXI@Z 10001520 f i * CIL library *:* CIL module *
 0001:00000570       ?message@error_code@std@@QBE?AV?$basic_string@DU?$char_traits@D@std@@V?$allocator@D@2@@2@XZ 10001570 f i njsOracle.obj
 0001:000005a0       ?_Makestr@_System_error@std@@CA?AV?$basic_string@DU?$char_traits@D@std@@V?$allocator@D@2@@2@Verror_code@2@V32@@Z 100015a0 f i njsOracle.obj
 0001:00000690       ??0_System_error@std@@IAE@Verror_code@1@ABV?$basic_string@DU?$char_traits@D@std@@V?$allocator@D@2@@1@@Z 10001690 f i njsOracle.obj
 0001:00000730       ??0system_error@std@@QAE@Verror_code@1@PBD@Z 10001730 f i njsOracle.obj
 0001:00000800       ?clear@ios_base@std@@QAEXH_N@Z 10001800 f i njsOracle.obj
 0001:000008e0       ?getloc@ios_base@std@@QBE?AVlocale@2@XZ 100018e0 f i njsOracle.obj
 0001:00000910       ?_Init@ios_base@std@@IAEXXZ 10001910 f i njsOracle.obj
 0001:000009e0       ??_Eios_base@std@@UAEPAXI@Z 100019e0 f i * CIL library *:* CIL module *
 0001:000009e0       ??_E?$basic_ios@DU?$char_traits@D@std@@@std@@UAEPAXI@Z 100019e0 f i * CIL library *:* CIL module *
 0001:000009e0       ??_G?$basic_ios@DU?$char_traits@D@std@@@std@@UAEPAXI@Z 100019e0 f i njsOracle.obj
 0001:000009e0       ??_Gios_base@std@@UAEPAXI@Z 100019e0 f i njsOracle.obj
 0001:00000bf0       ?NewInstance@Nan@@YA?AV?$MaybeLocal@VObject@v8@@@v8@@V?$Local@VFunction@v8@@@3@@Z 10001bf0 f i njsOracle.obj
 0001:00000ca0       ?NewInstance@Nan@@YA?AV?$MaybeLocal@VObject@v8@@@v8@@V?$Local@VObjectTemplate@v8@@@3@@Z 10001ca0 f i njsOracle.obj
 0001:00000d50       ?GetFunction@Nan@@YA?AV?$MaybeLocal@VFunction@v8@@@v8@@V?$Local@VFunctionTemplate@v8@@@3@@Z 10001d50 f i njsOracle.obj
 0001:00000e00       ?Set@Nan@@YA?AV?$Maybe@_N@v8@@V?$Local@VObject@v8@@@3@V?$Local@VValue@v8@@@3@1@Z 10001e00 f i njsOracle.obj
 0001:00000e90       ?convert@?$ToFactory@VInteger@v8@@@imp@Nan@@SA?AV?$MaybeLocal@VInteger@v8@@@v8@@V?$Local@VValue@v8@@@5@@Z 10001e90 f i njsOracle.obj
 0001:00000f40       ?convert@?$ToFactory@I@imp@Nan@@SA?AV?$Maybe@I@v8@@V?$Local@VValue@v8@@@5@@Z 10001f40 f i njsOracle.obj
 0001:00000fd0       ?convert@?$ToFactory@H@imp@Nan@@SA?AV?$Maybe@H@v8@@V?$Local@VValue@v8@@@5@@Z 10001fd0 f i njsOracle.obj
 0001:00001060       ?New@?$Factory@VFunctionTemplate@v8@@@imp@Nan@@SA?AV?$Local@VFunctionTemplate@v8@@@v8@@P6AXABV?$FunctionCallbackInfo@VValue@v8@@@3@@ZV?$Local@VValue@v8@@@5@V?$Local@VSignature@v8@@@5@@Z 10002060 f i njsOracle.obj
 0001:000011c0       ?ThrowError@Nan@@YAXPBD@Z  100021c0 f i njsOracle.obj
 0001:00001270       ??1HandleScope@Nan@@QAE@XZ 10002270 f i njsOracle.obj
 0001:00001270       ??1EscapableHandleScope@Nan@@QAE@XZ 10002270 f i njsPool.obj
 0001:00001280       ?SetPrototypeMethod@Nan@@YAXV?$Local@VFunctionTemplate@v8@@@v8@@PBDP6AXABV?$FunctionCallbackInfo@VValue@v8@@@1@@Z@Z 10002280 f i njsOracle.obj
 0001:00001370       ?SetAccessor@Nan@@YAXV?$Local@VObjectTemplate@v8@@@v8@@V?$Local@VString@v8@@@3@P6AX1ABV?$PropertyCallbackInfo@VValue@v8@@@1@@ZP6AX1V?$Local@VValue@v8@@@3@ABV?$PropertyCallbackInfo@X@1@@Z4W4AccessControl@3@W4PropertyAttribute@3@V?$Local@VAccessorSignature@v8@@@3@@Z 10002370 f i njsOracle.obj
 0001:000014c0       ??1ObjectWrap@Nan@@UAE@XZ  100024c0 f i njsOracle.obj
 0001:00001560       ?Wrap@ObjectWrap@Nan@@IAEXV?$Local@VObject@v8@@@v8@@@Z 10002560 f i njsOracle.obj
 0001:00001610       ?Ref@ObjectWrap@Nan@@MAEXXZ 10002610 f i njsOracle.obj
 0001:00001640       ?Unref@ObjectWrap@Nan@@MAEXXZ 10002640 f i njsOracle.obj
 0001:000016d0       ?WeakCallback@ObjectWrap@Nan@@CAXABV?$WeakCallbackInfo@VObjectWrap@Nan@@@v8@@@Z 100026d0 f i njsOracle.obj
 0001:00001740       ??_EObjectWrap@Nan@@UAEPAXI@Z 10002740 f i * CIL library *:* CIL module *
 0001:00001740       ??_GObjectWrap@Nan@@UAEPAXI@Z 10002740 f i njsOracle.obj
 0001:00001760       ??0connectionBaton@@QAE@V?$Local@VFunction@v8@@@v8@@V?$Local@VObject@v8@@@2@@Z 10002760 f i njsOracle.obj
 0001:00001980       ??1connectionBaton@@QAE@XZ 10002980 f i njsOracle.obj
 0001:00001af0       ??0Oracledb@@AAE@XZ        10002af0 f   njsOracle.obj
 0001:00001c50       ??_GOracledb@@EAEPAXI@Z    10002c50 f i njsOracle.obj
 0001:00001c50       ??_EOracledb@@EAEPAXI@Z    10002c50 f i * CIL library *:* CIL module *
 0001:00001c70       ??1Oracledb@@EAE@XZ        10002c70 f   njsOracle.obj
 0001:00001d30       ?driverName@Oracledb@@ABE?BV?$basic_string@DU?$char_traits@D@std@@V?$allocator@D@2@@std@@XZ 10002d30 f   njsOracle.obj
 0001:00001e30       ??_D?$basic_stringstream@DU?$char_traits@D@std@@V?$allocator@D@2@@std@@QAEXXZ 10002e30 f i njsOracle.obj
 0001:00001e50       ?Init@Oracledb@@SAXV?$Local@VObject@v8@@@v8@@@Z 10002e50 f   njsOracle.obj
 0001:00002570       ?New@Oracledb@@CAXABV?$FunctionCallbackInfo@VValue@v8@@@Nan@@@Z 10003570 f   njsOracle.obj
 0001:000026b0       ?GetPoolMin@Oracledb@@CAXV?$Local@VString@v8@@@v8@@ABV?$PropertyCallbackInfo@VValue@v8@@@Nan@@@Z 100036b0 f   njsOracle.obj
 0001:000027d0       ?SetPoolMin@Oracledb@@CAXV?$Local@VString@v8@@@v8@@V?$Local@VValue@v8@@@3@ABV?$PropertyCallbackInfo@X@Nan@@@Z 100037d0 f   njsOracle.obj
 0001:000029a0       ?GetPoolMax@Oracledb@@CAXV?$Local@VString@v8@@@v8@@ABV?$PropertyCallbackInfo@VValue@v8@@@Nan@@@Z 100039a0 f   njsOracle.obj
 0001:00002ac0       ?SetPoolMax@Oracledb@@CAXV?$Local@VString@v8@@@v8@@V?$Local@VValue@v8@@@3@ABV?$PropertyCallbackInfo@X@Nan@@@Z 10003ac0 f   njsOracle.obj
 0001:00002c90       ?GetPoolIncrement@Oracledb@@CAXV?$Local@VString@v8@@@v8@@ABV?$PropertyCallbackInfo@VValue@v8@@@Nan@@@Z 10003c90 f   njsOracle.obj
 0001:00002de0       ?SetPoolIncrement@Oracledb@@CAXV?$Local@VString@v8@@@v8@@V?$Local@VValue@v8@@@3@ABV?$PropertyCallbackInfo@X@Nan@@@Z 10003de0 f   njsOracle.obj
 0001:00002fb0       ?GetPoolTimeout@Oracledb@@CAXV?$Local@VString@v8@@@v8@@ABV?$PropertyCallbackInfo@VValue@v8@@@Nan@@@Z 10003fb0 f   njsOracle.obj
 0001:000030d0       ?SetPoolTimeout@Oracledb@@CAXV?$Local@VString@v8@@@v8@@V?$Local@VValue@v8@@@3@ABV?$PropertyCallbackInfo@X@Nan@@@Z 100040d0 f   njsOracle.obj
 0001:000032a0       ?GetMaxRows@Oracledb@@CAXV?$Local@VString@v8@@@v8@@ABV?$PropertyCallbackInfo@VValue@v8@@@Nan@@@Z 100042a0 f   njsOracle.obj
 0001:000033f0       ?SetMaxRows@Oracledb@@CAXV?$Local@VString@v8@@@v8@@V?$Local@VValue@v8@@@3@ABV?$PropertyCallbackInfo@X@Nan@@@Z 100043f0 f   njsOracle.obj
 0001:00003610       ?GetOutFormat@Oracledb@@CAXV?$Local@VString@v8@@@v8@@ABV?$PropertyCallbackInfo@VValue@v8@@@Nan@@@Z 10004610 f   njsOracle.obj
 0001:00003730       ?SetOutFormat@Oracledb@@CAXV?$Local@VString@v8@@@v8@@V?$Local@VValue@v8@@@3@ABV?$PropertyCallbackInfo@X@Nan@@@Z 10004730 f   njsOracle.obj
 0001:00003900       ?GetStmtCacheSize@Oracledb@@CAXV?$Local@VString@v8@@@v8@@ABV?$PropertyCallbackInfo@VValue@v8@@@Nan@@@Z 10004900 f   njsOracle.obj
 0001:00003a50       ?SetStmtCacheSize@Oracledb@@CAXV?$Local@VString@v8@@@v8@@V?$Local@VValue@v8@@@3@ABV?$PropertyCallbackInfo@X@Nan@@@Z 10004a50 f   njsOracle.obj
 0001:00003c20       ?GetPrefetchRows@Oracledb@@CAXV?$Local@VString@v8@@@v8@@ABV?$PropertyCallbackInfo@VValue@v8@@@Nan@@@Z 10004c20 f   njsOracle.obj
 0001:00003d40       ?SetPrefetchRows@Oracledb@@CAXV?$Local@VString@v8@@@v8@@V?$Local@VValue@v8@@@3@ABV?$PropertyCallbackInfo@X@Nan@@@Z 10004d40 f   njsOracle.obj
 0001:00003f10       ?GetAutoCommit@Oracledb@@CAXV?$Local@VString@v8@@@v8@@ABV?$PropertyCallbackInfo@VValue@v8@@@Nan@@@Z 10004f10 f   njsOracle.obj
 0001:00004040       ?SetAutoCommit@Oracledb@@CAXV?$Local@VString@v8@@@v8@@V?$Local@VValue@v8@@@3@ABV?$PropertyCallbackInfo@X@Nan@@@Z 10005040 f   njsOracle.obj
 0001:00004150       ?GetExtendedMetaData@Oracledb@@CAXV?$Local@VString@v8@@@v8@@ABV?$PropertyCallbackInfo@VValue@v8@@@Nan@@@Z 10005150 f   njsOracle.obj
 0001:00004280       ?SetExtendedMetaData@Oracledb@@CAXV?$Local@VString@v8@@@v8@@V?$Local@VValue@v8@@@3@ABV?$PropertyCallbackInfo@X@Nan@@@Z 10005280 f   njsOracle.obj
 0001:00004390       ?GetVersion@Oracledb@@CAXV?$Local@VString@v8@@@v8@@ABV?$PropertyCallbackInfo@VValue@v8@@@Nan@@@Z 10005390 f   njsOracle.obj
 0001:000043a0       ?SetVersion@Oracledb@@CAXV?$Local@VString@v8@@@v8@@V?$Local@VValue@v8@@@3@ABV?$PropertyCallbackInfo@X@Nan@@@Z 100053a0 f   njsOracle.obj
 0001:000044a0       ?GetConnectionClass@Oracledb@@CAXV?$Local@VString@v8@@@v8@@ABV?$PropertyCallbackInfo@VValue@v8@@@Nan@@@Z 100054a0 f   njsOracle.obj
 0001:000045f0       ?SetConnectionClass@Oracledb@@CAXV?$Local@VString@v8@@@v8@@V?$Local@VValue@v8@@@3@ABV?$PropertyCallbackInfo@X@Nan@@@Z 100055f0 f   njsOracle.obj
 0001:000047b0       ?GetExternalAuth@Oracledb@@CAXV?$Local@VString@v8@@@v8@@ABV?$PropertyCallbackInfo@VValue@v8@@@Nan@@@Z 100057b0 f   njsOracle.obj
 0001:000048d0       ?SetExternalAuth@Oracledb@@CAXV?$Local@VString@v8@@@v8@@V?$Local@VValue@v8@@@3@ABV?$PropertyCallbackInfo@X@Nan@@@Z 100058d0 f   njsOracle.obj
 0001:000049e0       ?GetLobPrefetchSize@Oracledb@@CAXV?$Local@VString@v8@@@v8@@ABV?$PropertyCallbackInfo@VValue@v8@@@Nan@@@Z 100059e0 f   njsOracle.obj
 0001:00004b30       ?SetLobPrefetchSize@Oracledb@@CAXV?$Local@VString@v8@@@v8@@V?$Local@VValue@v8@@@3@ABV?$PropertyCallbackInfo@X@Nan@@@Z 10005b30 f   njsOracle.obj
 0001:00004d00       ?GetFetchAsString@Oracledb@@CAXV?$Local@VString@v8@@@v8@@ABV?$PropertyCallbackInfo@VValue@v8@@@Nan@@@Z 10005d00 f   njsOracle.obj
 0001:00004ec0       ?SetFetchAsString@Oracledb@@CAXV?$Local@VString@v8@@@v8@@V?$Local@VValue@v8@@@3@ABV?$PropertyCallbackInfo@X@Nan@@@Z 10005ec0 f   njsOracle.obj
 0001:00005220       ?GetFetchAsBuffer@Oracledb@@CAXV?$Local@VString@v8@@@v8@@ABV?$PropertyCallbackInfo@VValue@v8@@@Nan@@@Z 10006220 f   njsOracle.obj
 0001:000053e0       ?SetFetchAsBuffer@Oracledb@@CAXV?$Local@VString@v8@@@v8@@V?$Local@VValue@v8@@@3@ABV?$PropertyCallbackInfo@X@Nan@@@Z 100063e0 f   njsOracle.obj
 0001:00005730       ?GetOracleClientVersion@Oracledb@@CAXV?$Local@VString@v8@@@v8@@ABV?$PropertyCallbackInfo@VValue@v8@@@Nan@@@Z 10006730 f   njsOracle.obj
 0001:00005880       ?SetOracleClientVersion@Oracledb@@CAXV?$Local@VString@v8@@@v8@@V?$Local@VValue@v8@@@3@ABV?$PropertyCallbackInfo@X@Nan@@@Z 10006880 f   njsOracle.obj
 0001:00005980       ?GetPoolPingInterval@Oracledb@@CAXV?$Local@VString@v8@@@v8@@ABV?$PropertyCallbackInfo@VValue@v8@@@Nan@@@Z 10006980 f   njsOracle.obj
 0001:00005ad0       ?SetPoolPingInterval@Oracledb@@CAXV?$Local@VString@v8@@@v8@@V?$Local@VValue@v8@@@3@ABV?$PropertyCallbackInfo@X@Nan@@@Z 10006ad0 f   njsOracle.obj
 0001:00005ca0       ?GetConnection@Oracledb@@CAXABV?$FunctionCallbackInfo@VValue@v8@@@Nan@@@Z 10006ca0 f   njsOracle.obj
 0001:00006500       ?Async_GetConnection@Oracledb@@CAXPAUuv_work_s@@@Z 10007500 f   njsOracle.obj
 0001:000065e0       ?Async_AfterGetConnection@Oracledb@@CAXPAUuv_work_s@@@Z 100075e0 f   njsOracle.obj
 0001:00006830       ??1TryCatch@Nan@@QAE@XZ    10007830 f i njsOracle.obj
 0001:00006840       ?CreatePool@Oracledb@@CAXABV?$FunctionCallbackInfo@VValue@v8@@@Nan@@@Z 10007840 f   njsOracle.obj
 0001:00007570       ?Async_CreatePool@Oracledb@@CAXPAUuv_work_s@@@Z 10008570 f   njsOracle.obj
 0001:00007660       ?Async_AfterCreatePool@Oracledb@@CAXPAUuv_work_s@@@Z 10008660 f   njsOracle.obj
 0001:00007920       ?getFetchAsStringTypes@Oracledb@@QBEPBW4DataType@@XZ 10008920 f   njsOracle.obj
 0001:00007960       ?getFetchAsBufferTypes@Oracledb@@QBEPBW4DataType@@XZ 10008960 f   njsOracle.obj
 0001:000079a0       ??0?$basic_string@DU?$char_traits@D@std@@V?$allocator@D@2@@std@@QAE@ABV01@@Z 100089a0 f i njsOracle.obj
 0001:000079d0       ??0?$basic_string@DU?$char_traits@D@std@@V?$allocator@D@2@@std@@QAE@PBDI@Z 100089d0 f i njsOracle.obj
 0001:00007a00       ??0?$basic_string@DU?$char_traits@D@std@@V?$allocator@D@2@@std@@QAE@PBD@Z 10008a00 f i njsOracle.obj
 0001:00007a50       ??0?$basic_string@DU?$char_traits@D@std@@V?$allocator@D@2@@std@@QAE@$$QAV01@@Z 10008a50 f i njsOracle.obj
 0001:00007ab0       ??4?$basic_string@DU?$char_traits@D@std@@V?$allocator@D@2@@std@@QAEAAV01@$$QAV01@@Z 10008ab0 f i njsOracle.obj
 0001:00007af0       ??1fetchInfo@@QAE@XZ       10008af0 f i njsConnection.obj
 0001:00007af0       ??1MetaInfo@@QAE@XZ        10008af0 f i njsConnection.obj
 0001:00007af0       ??1?$basic_string@DU?$char_traits@D@std@@V?$allocator@D@2@@std@@QAE@XZ 10008af0 f i njsOracle.obj
 0001:00007b20       ?clear@?$basic_string@DU?$char_traits@D@std@@V?$allocator@D@2@@std@@QAEXXZ 10008b20 f i njsOracle.obj
 0001:00007b40       ?c_str@?$basic_string@DU?$char_traits@D@std@@V?$allocator@D@2@@std@@QBEPBDXZ 10008b40 f i njsOracle.obj
 0001:00007b50       ??1?$_Yarn@_W@std@@QAE@XZ  10008b50 f i njsOracle.obj
 0001:00007b50       ??1?$_Yarn@D@std@@QAE@XZ   10008b50 f i njsOracle.obj
 0001:00007b70       ??1?$basic_istream@DU?$char_traits@D@std@@@std@@UAE@XZ 10008b70 f i njsOracle.obj
 0001:00007b90       ??1?$basic_ios@DU?$char_traits@D@std@@@std@@UAE@XZ 10008b90 f i njsOracle.obj
 0001:00007ba0       ??1?$basic_streambuf@DU?$char_traits@D@std@@@std@@UAE@XZ 10008ba0 f i njsOracle.obj
 0001:00007bd0       ?pbackfail@?$basic_streambuf@DU?$char_traits@D@std@@@std@@MAEHH@Z 10008bd0 f i njsOracle.obj
 0001:00007bd0       ?overflow@?$basic_streambuf@DU?$char_traits@D@std@@@std@@MAEHH@Z 10008bd0 f i njsOracle.obj
 0001:00007be0       ?showmanyc@?$basic_streambuf@DU?$char_traits@D@std@@@std@@MAE_JXZ 10008be0 f i njsOracle.obj
 0001:00007bf0       ?underflow@?$basic_streambuf@DU?$char_traits@D@std@@@std@@MAEHXZ 10008bf0 f i njsOracle.obj
 0001:00007c00       ?uflow@?$basic_streambuf@DU?$char_traits@D@std@@@std@@MAEHXZ 10008c00 f i njsOracle.obj
 0001:00007c30       ?xsgetn@?$basic_streambuf@DU?$char_traits@D@std@@@std@@MAE_JPAD_J@Z 10008c30 f i njsOracle.obj
 0001:00007d40       ?xsputn@?$basic_streambuf@DU?$char_traits@D@std@@@std@@MAE_JPBD_J@Z 10008d40 f i njsOracle.obj
 0001:00007e50       ?seekoff@?$basic_streambuf@DU?$char_traits@D@std@@@std@@MAE?AV?$fpos@H@2@_JHH@Z 10008e50 f i njsOracle.obj
 0001:00007e80       ?seekpos@?$basic_streambuf@DU?$char_traits@D@std@@@std@@MAE?AV?$fpos@H@2@V32@H@Z 10008e80 f i njsOracle.obj
 0001:00007eb0       ?setbuf@?$basic_streambuf@DU?$char_traits@D@std@@@std@@MAEPAV12@PAD_J@Z 10008eb0 f i njsOracle.obj
 0001:00007ec0       ?sync@?$basic_streambuf@DU?$char_traits@D@std@@@std@@MAEHXZ 10008ec0 f i njsOracle.obj
 0001:00007ec0       __matherr                  10008ec0 f i LIBCMT:matherr.obj
 0001:00007ec0       ___init_dummy              10008ec0 f i LIBCMT:wsetloca.obj
 0001:00007ec0       ___init_collate            10008ec0 f i LIBCMT:initcoll.obj
 0001:00007ed0       ?lobPrefetchSize@ConnImpl@@UAEXI@Z 10008ed0 f i dpiConnImpl.obj
 0001:00007ed0       ??$destroy@PAD@?$_Wrap_alloc@V?$allocator@D@std@@@std@@QAEXPAPAD@Z 10008ed0 f i njsOracle.obj
 0001:00007ed0       ?imbue@?$basic_streambuf@DU?$char_traits@D@std@@@std@@MAEXABVlocale@2@@Z 10008ed0 f i njsOracle.obj
 0001:00007ee0       ??6?$basic_ostream@DU?$char_traits@D@std@@@std@@QAEAAV01@H@Z 10008ee0 f i njsOracle.obj
 0001:00008070       ??0?$basic_stringstream@DU?$char_traits@D@std@@V?$allocator@D@2@@std@@QAE@H@Z 10009070 f i njsOracle.obj
 0001:00008130       ??1?$basic_stringstream@DU?$char_traits@D@std@@V?$allocator@D@2@@std@@UAE@XZ 10009130 f i njsOracle.obj
 0001:000081b0       ?str@?$basic_stringstream@DU?$char_traits@D@std@@V?$allocator@D@2@@std@@QBE?AV?$basic_string@DU?$char_traits@D@std@@V?$allocator@D@2@@2@XZ 100091b0 f i njsOracle.obj
 0001:000081d0       ??1?$basic_iostream@DU?$char_traits@D@std@@@std@@UAE@XZ 100091d0 f i njsOracle.obj
 0001:00008230       ??1?$basic_stringbuf@DU?$char_traits@D@std@@V?$allocator@D@2@@std@@UAE@XZ 10009230 f i njsOracle.obj
 0001:000082c0       ?overflow@?$basic_stringbuf@DU?$char_traits@D@std@@V?$allocator@D@2@@std@@MAEHH@Z 100092c0 f i njsOracle.obj
 0001:000084b0       ?pbackfail@?$basic_stringbuf@DU?$char_traits@D@std@@V?$allocator@D@2@@std@@MAEHH@Z 100094b0 f i njsOracle.obj
 0001:00008510       ?underflow@?$basic_stringbuf@DU?$char_traits@D@std@@V?$allocator@D@2@@std@@MAEHXZ 10009510 f i njsOracle.obj
 0001:00008570       ?seekoff@?$basic_stringbuf@DU?$char_traits@D@std@@V?$allocator@D@2@@std@@MAE?AV?$fpos@H@2@_JHH@Z 10009570 f i njsOracle.obj
 0001:00008750       ?seekpos@?$basic_stringbuf@DU?$char_traits@D@std@@V?$allocator@D@2@@std@@MAE?AV?$fpos@H@2@V32@H@Z 10009750 f i njsOracle.obj
 0001:00008880       ?Set@?$ReturnValue@VValue@v8@@@Nan@@QAEXI@Z 10009880 f i njsOracle.obj
 0001:000088f0       ??_G?$basic_istream@DU?$char_traits@D@std@@@std@@UAEPAXI@Z 100098f0 f i njsOracle.obj
 0001:000088f0       ??_E?$basic_istream@DU?$char_traits@D@std@@@std@@UAEPAXI@Z 100098f0 f i * CIL library *:* CIL module *
 0001:00008940       ??_E?$basic_streambuf@DU?$char_traits@D@std@@@std@@UAEPAXI@Z 10009940 f i * CIL library *:* CIL module *
 0001:00008940       ??_G?$basic_streambuf@DU?$char_traits@D@std@@@std@@UAEPAXI@Z 10009940 f i njsOracle.obj
 0001:00008990       ??_E?$basic_ostream@DU?$char_traits@D@std@@@std@@UAEPAXI@Z 10009990 f i * CIL library *:* CIL module *
 0001:00008990       ??_G?$basic_ostream@DU?$char_traits@D@std@@@std@@UAEPAXI@Z 10009990 f i njsOracle.obj
 0001:000089e0       ??_G?$basic_stringstream@DU?$char_traits@D@std@@V?$allocator@D@2@@std@@UAEPAXI@Z 100099e0 f i njsOracle.obj
 0001:000089e0       ??_E?$basic_stringstream@DU?$char_traits@D@std@@V?$allocator@D@2@@std@@UAEPAXI@Z 100099e0 f i * CIL library *:* CIL module *
 0001:00008a20       ??_G?$basic_iostream@DU?$char_traits@D@std@@@std@@UAEPAXI@Z 10009a20 f i njsOracle.obj
 0001:00008a20       ??_E?$basic_iostream@DU?$char_traits@D@std@@@std@@UAEPAXI@Z 10009a20 f i * CIL library *:* CIL module *
 0001:00008a50       ??_E?$basic_stringbuf@DU?$char_traits@D@std@@V?$allocator@D@2@@std@@UAEPAXI@Z 10009a50 f i * CIL library *:* CIL module *
 0001:00008a50       ??_G?$basic_stringbuf@DU?$char_traits@D@std@@V?$allocator@D@2@@std@@UAEPAXI@Z 10009a50 f i njsOracle.obj
 0001:00008a70       ??_D?$basic_iostream@DU?$char_traits@D@std@@@std@@QAEXXZ 10009a70 f i njsOracle.obj
 0001:00008ae0       ?assign@?$basic_string@DU?$char_traits@D@std@@V?$allocator@D@2@@std@@QAEAAV12@$$QAV12@@Z 10009ae0 f i njsOracle.obj
 0001:00008b60       ?_Assign_rv@?$basic_string@DU?$char_traits@D@std@@V?$allocator@D@2@@std@@QAEX$$QAV12@@Z 10009b60 f i njsOracle.obj
 0001:00008bc0       ?append@?$basic_string@DU?$char_traits@D@std@@V?$allocator@D@2@@std@@QAEAAV12@ABV12@II@Z 10009bc0 f i njsOracle.obj
 0001:00008c70       ?append@?$basic_string@DU?$char_traits@D@std@@V?$allocator@D@2@@std@@QAEAAV12@PBDI@Z 10009c70 f i njsOracle.obj
 0001:00008d40       ?assign@?$basic_string@DU?$char_traits@D@std@@V?$allocator@D@2@@std@@QAEAAV12@ABV12@II@Z 10009d40 f i njsOracle.obj
 0001:00008e50       ?assign@?$basic_string@DU?$char_traits@D@std@@V?$allocator@D@2@@std@@QAEAAV12@PBDI@Z 10009e50 f i njsOracle.obj
 0001:00008f50       ?_Eos@?$basic_string@DU?$char_traits@D@std@@V?$allocator@D@2@@std@@QAEXI@Z 10009f50 f i njsOracle.obj
 0001:00008f70       ?init@?$basic_ios@DU?$char_traits@D@std@@@std@@IAEXPAV?$basic_streambuf@DU?$char_traits@D@std@@@2@_N@Z 10009f70 f i njsOracle.obj
 0001:00009020       ?_Gnavail@?$basic_streambuf@DU?$char_traits@D@std@@@std@@IBE_JXZ 1000a020 f i njsOracle.obj
 0001:00009040       ?_Pnavail@?$basic_streambuf@DU?$char_traits@D@std@@@std@@IBE_JXZ 1000a040 f i njsOracle.obj
 0001:00009060       ??0?$basic_iostream@DU?$char_traits@D@std@@@std@@QAE@PAV?$basic_streambuf@DU?$char_traits@D@std@@@1@@Z 1000a060 f i njsOracle.obj
 0001:00009120       ?str@?$basic_stringbuf@DU?$char_traits@D@std@@V?$allocator@D@2@@std@@QBE?AV?$basic_string@DU?$char_traits@D@std@@V?$allocator@D@2@@2@XZ 1000a120 f i njsOracle.obj
 0001:00009250       ??0sentry@?$basic_ostream@DU?$char_traits@D@std@@@std@@QAE@AAV12@@Z 1000a250 f i njsOracle.obj
 0001:000092e0       ??1sentry@?$basic_ostream@DU?$char_traits@D@std@@@std@@QAE@XZ 1000a2e0 f i njsOracle.obj
 0001:00009340       ?do_put@?$num_put@DV?$ostreambuf_iterator@DU?$char_traits@D@std@@@std@@@std@@MBE?AV?$ostreambuf_iterator@DU?$char_traits@D@std@@@2@V32@AAVios_base@2@D_N@Z 1000a340 f i njsOracle.obj
 0001:00009530       ?do_put@?$num_put@DV?$ostreambuf_iterator@DU?$char_traits@D@std@@@std@@@std@@MBE?AV?$ostreambuf_iterator@DU?$char_traits@D@std@@@2@V32@AAVios_base@2@DJ@Z 1000a530 f i njsOracle.obj
 0001:000095b0       ?do_put@?$num_put@DV?$ostreambuf_iterator@DU?$char_traits@D@std@@@std@@@std@@MBE?AV?$ostreambuf_iterator@DU?$char_traits@D@std@@@2@V32@AAVios_base@2@DK@Z 1000a5b0 f i njsOracle.obj
 0001:00009630       ?do_put@?$num_put@DV?$ostreambuf_iterator@DU?$char_traits@D@std@@@std@@@std@@MBE?AV?$ostreambuf_iterator@DU?$char_traits@D@std@@@2@V32@AAVios_base@2@D_J@Z 1000a630 f i njsOracle.obj
 0001:000096b0       ?do_put@?$num_put@DV?$ostreambuf_iterator@DU?$char_traits@D@std@@@std@@@std@@MBE?AV?$ostreambuf_iterator@DU?$char_traits@D@std@@@2@V32@AAVios_base@2@D_K@Z 1000a6b0 f i njsOracle.obj
 0001:00009730       ?do_put@?$num_put@DV?$ostreambuf_iterator@DU?$char_traits@D@std@@@std@@@std@@MBE?AV?$ostreambuf_iterator@DU?$char_traits@D@std@@@2@V32@AAVios_base@2@DN@Z 1000a730 f i njsOracle.obj
 0001:00009970       ?do_put@?$num_put@DV?$ostreambuf_iterator@DU?$char_traits@D@std@@@std@@@std@@MBE?AV?$ostreambuf_iterator@DU?$char_traits@D@std@@@2@V32@AAVios_base@2@DO@Z 1000a970 f i njsOracle.obj
 0001:00009b20       ?do_put@?$num_put@DV?$ostreambuf_iterator@DU?$char_traits@D@std@@@std@@@std@@MBE?AV?$ostreambuf_iterator@DU?$char_traits@D@std@@@2@V32@AAVios_base@2@DPBX@Z 1000ab20 f i njsOracle.obj
 0001:00009b90       ?falsename@?$numpunct@D@std@@QBE?AV?$basic_string@DU?$char_traits@D@std@@V?$allocator@D@2@@2@XZ 1000ab90 f i njsOracle.obj
 0001:00009bb0       ?truename@?$numpunct@D@std@@QBE?AV?$basic_string@DU?$char_traits@D@std@@V?$allocator@D@2@@2@XZ 1000abb0 f i njsOracle.obj
 0001:00009bd0       ?do_decimal_point@?$numpunct@D@std@@MBEDXZ 1000abd0 f i njsOracle.obj
 0001:00009be0       ?do_thousands_sep@?$numpunct@D@std@@MBEDXZ 1000abe0 f i njsOracle.obj
 0001:00009bf0       ?do_grouping@?$numpunct@D@std@@MBE?AV?$basic_string@DU?$char_traits@D@std@@V?$allocator@D@2@@2@XZ 1000abf0 f i njsOracle.obj
 0001:00009c50       ?do_falsename@?$numpunct@D@std@@MBE?AV?$basic_string@DU?$char_traits@D@std@@V?$allocator@D@2@@2@XZ 1000ac50 f i njsOracle.obj
 0001:00009cb0       ?do_truename@?$numpunct@D@std@@MBE?AV?$basic_string@DU?$char_traits@D@std@@V?$allocator@D@2@@2@XZ 1000acb0 f i njsOracle.obj
 0001:00009d10       ??_G?$numpunct@D@std@@MAEPAXI@Z 1000ad10 f i njsOracle.obj
 0001:00009d10       ??_E?$numpunct@D@std@@MAEPAXI@Z 1000ad10 f i * CIL library *:* CIL module *
 0001:00009d50       ?insert@?$basic_string@DU?$char_traits@D@std@@V?$allocator@D@2@@std@@QAEAAV12@IID@Z 1000ad50 f i njsOracle.obj
 0001:00009e10       ?erase@?$basic_string@DU?$char_traits@D@std@@V?$allocator@D@2@@std@@QAEAAV12@II@Z 1000ae10 f i njsOracle.obj
 0001:00009eb0       ?_Grow@?$basic_string@DU?$char_traits@D@std@@V?$allocator@D@2@@std@@QAE_NI_N@Z 1000aeb0 f i njsOracle.obj
 0001:00009f60       ??0?$_Wrap_alloc@V?$allocator@D@std@@@std@@QAE@XZ 1000af60 f i njsOracle.obj
 0001:00009f70       ??0?$basic_streambuf@DU?$char_traits@D@std@@@std@@IAE@XZ 1000af70 f i njsOracle.obj
 0001:0000a040       ?flush@?$basic_ostream@DU?$char_traits@D@std@@@std@@QAEAAV12@XZ 1000b040 f i njsOracle.obj
 0001:0000a0e0       ??1_Sentry_base@?$basic_ostream@DU?$char_traits@D@std@@@std@@QAE@XZ 1000b0e0 f i njsOracle.obj
 0001:0000a100       ?_Ffmt@?$num_put@DV?$ostreambuf_iterator@DU?$char_traits@D@std@@@std@@@std@@ABAPADPADDH@Z 1000b100 f i njsOracle.obj
 0001:0000a1c0       ?_Fput@?$num_put@DV?$ostreambuf_iterator@DU?$char_traits@D@std@@@std@@@std@@ABA?AV?$ostreambuf_iterator@DU?$char_traits@D@std@@@2@V32@AAVios_base@2@DPBDIIII@Z 1000b1c0 f i njsOracle.obj
 0001:0000a640       ?_Ifmt@?$num_put@DV?$ostreambuf_iterator@DU?$char_traits@D@std@@@std@@@std@@ABAPADPADPBDH@Z 1000b640 f i njsOracle.obj
 0001:0000a6d0       ?_Iput@?$num_put@DV?$ostreambuf_iterator@DU?$char_traits@D@std@@@std@@@std@@ABA?AV?$ostreambuf_iterator@DU?$char_traits@D@std@@@2@V32@AAVios_base@2@DPADI@Z 1000b6d0 f i njsOracle.obj
 0001:0000aa70       ?_Put@?$num_put@DV?$ostreambuf_iterator@DU?$char_traits@D@std@@@std@@@std@@ABA?AV?$ostreambuf_iterator@DU?$char_traits@D@std@@@2@V32@PBDI@Z 1000ba70 f i njsOracle.obj
 0001:0000aaf0       ?_Rep@?$num_put@DV?$ostreambuf_iterator@DU?$char_traits@D@std@@@std@@@std@@ABA?AV?$ostreambuf_iterator@DU?$char_traits@D@std@@@2@V32@DI@Z 1000baf0 f i njsOracle.obj
 0001:0000ab60       ?grouping@?$numpunct@D@std@@QBE?AV?$basic_string@DU?$char_traits@D@std@@V?$allocator@D@2@@2@XZ 1000bb60 f i njsOracle.obj
 0001:0000ab80       ?assign@?$basic_string@DU?$char_traits@D@std@@V?$allocator@D@2@@std@@QAEAAV12@ID@Z 1000bb80 f i njsOracle.obj
 0001:0000ac50       ?_Chassign@?$basic_string@DU?$char_traits@D@std@@V?$allocator@D@2@@std@@QAEXIID@Z 1000bc50 f i njsOracle.obj
 0001:0000aca0       ?_Copy@?$basic_string@DU?$char_traits@D@std@@V?$allocator@D@2@@std@@QAEXII@Z 1000bca0 f i njsOracle.obj
 0001:0000ad60       ??$use_facet@V?$ctype@D@std@@@std@@YAABV?$ctype@D@0@ABVlocale@0@@Z 1000bd60 f i njsOracle.obj
 0001:0000ae70       ??$New@VString@v8@@V?$basic_string@DU?$char_traits@D@std@@V?$allocator@D@2@@std@@@Nan@@YA?AV?$MaybeLocal@VString@v8@@@v8@@V?$basic_string@DU?$char_traits@D@std@@V?$allocator@D@2@@std@@@Z 1000be70 f i njsOracle.obj
 0001:0000af10       ??$?6U?$char_traits@D@std@@@std@@YAAAV?$basic_ostream@DU?$char_traits@D@std@@@0@AAV10@PBD@Z 1000bf10 f i njsOracle.obj
 0001:0000b1a0       ??$Unwrap@VPool@@@ObjectWrap@Nan@@SAPAVPool@@V?$Local@VObject@v8@@@v8@@@Z 1000c1a0 f i njsOracle.obj
 0001:0000b1a0       ??$Unwrap@VResultSet@@@ObjectWrap@Nan@@SAPAVResultSet@@V?$Local@VObject@v8@@@v8@@@Z 1000c1a0 f i njsConnection.obj
 0001:0000b1a0       ??$Unwrap@VConnection@@@ObjectWrap@Nan@@SAPAVConnection@@V?$Local@VObject@v8@@@v8@@@Z 1000c1a0 f i njsOracle.obj
 0001:0000b1a0       ??$Unwrap@VOracledb@@@ObjectWrap@Nan@@SAPAVOracledb@@V?$Local@VObject@v8@@@v8@@@Z 1000c1a0 f i njsOracle.obj
 0001:0000b1a0       ??$Unwrap@VILob@@@ObjectWrap@Nan@@SAPAVILob@@V?$Local@VObject@v8@@@v8@@@Z 1000c1a0 f i njsConnection.obj
 0001:0000b200       ??$New@VInteger@v8@@H@Nan@@YA?AV?$Local@VInteger@v8@@@v8@@H@Z 1000c200 f i njsOracle.obj
 0001:0000b250       ??$use_facet@V?$num_put@DV?$ostreambuf_iterator@DU?$char_traits@D@std@@@std@@@std@@@std@@YAABV?$num_put@DV?$ostreambuf_iterator@DU?$char_traits@D@std@@@std@@@0@ABVlocale@0@@Z 1000c250 f i njsOracle.obj
 0001:0000b360       ??$use_facet@V?$numpunct@D@std@@@std@@YAABV?$numpunct@D@0@ABVlocale@0@@Z 1000c360 f i njsOracle.obj
 0001:0000b470       ?_Getcat@?$num_put@DV?$ostreambuf_iterator@DU?$char_traits@D@std@@@std@@@std@@SAIPAPBVfacet@locale@2@PBV42@@Z 1000c470 f i njsOracle.obj
 0001:0000b530       ?_Getcat@?$numpunct@D@std@@SAIPAPBVfacet@locale@2@PBV42@@Z 1000c530 f i njsOracle.obj
 0001:0000b600       ?_Init@?$numpunct@D@std@@IAEXABV_Locinfo@2@_N@Z 1000c600 f i njsOracle.obj
 0001:0000b701       ??_E?$basic_stringstream@DU?$char_traits@D@std@@V?$allocator@D@2@@std@@$4PPPPPPPM@A@AEPAXI@Z 1000c701 f i njsOracle.obj
 0001:0000b709       ??_E?$basic_iostream@DU?$char_traits@D@std@@@std@@$4PPPPPPPM@A@AEPAXI@Z 1000c709 f i njsOracle.obj
 0001:0000b711       ??_E?$basic_ostream@DU?$char_traits@D@std@@@std@@$4PPPPPPPM@A@AEPAXI@Z 1000c711 f i njsOracle.obj
 0001:0000b719       ??_E?$basic_istream@DU?$char_traits@D@std@@@std@@$4PPPPPPPM@A@AEPAXI@Z 1000c719 f i njsOracle.obj
 0001:0000b730       ??0poolBaton@@QAE@V?$Local@VFunction@v8@@@v8@@V?$Local@VObject@v8@@@2@@Z 1000c730 f i njsPool.obj
 0001:0000b880       ??1poolBaton@@QAE@XZ       1000c880 f i njsPool.obj
 0001:0000b950       ??_EConnection@@EAEPAXI@Z  1000c950 f i * CIL library *:* CIL module *
 0001:0000b950       ??_EPool@@EAEPAXI@Z        1000c950 f i * CIL library *:* CIL module *
 0001:0000b950       ??_GPool@@EAEPAXI@Z        1000c950 f i njsPool.obj
 0001:0000b950       ??_GConnection@@EAEPAXI@Z  1000c950 f i njsConnection.obj
 0001:0000b9b0       ?setPool@Pool@@QAEXPAVSPool@dpi@@PAVOracledb@@IIIIIIHV?$Local@VObject@v8@@@v8@@@Z 1000c9b0 f   njsPool.obj
 0001:0000ba40       ?Init@Pool@@SAXV?$Local@VObject@v8@@@v8@@@Z 1000ca40 f   njsPool.obj
 0001:0000be40       ?New@Pool@@CAXABV?$FunctionCallbackInfo@VValue@v8@@@Nan@@@Z 1000ce40 f   njsPool.obj
 0001:0000bea0       ?getPoolProperty@Pool@@CA?AV?$Local@VPrimitive@v8@@@v8@@PAV1@I@Z 1000cea0 f   njsPool.obj
 0001:0000bfd0       ?getPoolProperty@Pool@@CA?AV?$Local@VPrimitive@v8@@@v8@@PAV1@H@Z 1000cfd0 f   njsPool.obj
 0001:0000c100       ?GetPoolMin@Pool@@CAXV?$Local@VString@v8@@@v8@@ABV?$PropertyCallbackInfo@VValue@v8@@@Nan@@@Z 1000d100 f   njsPool.obj
 0001:0000c230       ?GetPoolMax@Pool@@CAXV?$Local@VString@v8@@@v8@@ABV?$PropertyCallbackInfo@VValue@v8@@@Nan@@@Z 1000d230 f   njsPool.obj
 0001:0000c360       ?GetPoolIncrement@Pool@@CAXV?$Local@VString@v8@@@v8@@ABV?$PropertyCallbackInfo@VValue@v8@@@Nan@@@Z 1000d360 f   njsPool.obj
 0001:0000c490       ?GetPoolTimeout@Pool@@CAXV?$Local@VString@v8@@@v8@@ABV?$PropertyCallbackInfo@VValue@v8@@@Nan@@@Z 1000d490 f   njsPool.obj
 0001:0000c5c0       ?GetConnectionsOpen@Pool@@CAXV?$Local@VString@v8@@@v8@@ABV?$PropertyCallbackInfo@VValue@v8@@@Nan@@@Z 1000d5c0 f   njsPool.obj
 0001:0000c750       ?GetConnectionsInUse@Pool@@CAXV?$Local@VString@v8@@@v8@@ABV?$PropertyCallbackInfo@VValue@v8@@@Nan@@@Z 1000d750 f   njsPool.obj
 0001:0000c8e0       ?GetStmtCacheSize@Pool@@CAXV?$Local@VString@v8@@@v8@@ABV?$PropertyCallbackInfo@VValue@v8@@@Nan@@@Z 1000d8e0 f   njsPool.obj
 0001:0000ca10       ?GetPoolPingInterval@Pool@@CAXV?$Local@VString@v8@@@v8@@ABV?$PropertyCallbackInfo@VValue@v8@@@Nan@@@Z 1000da10 f   njsPool.obj
 0001:0000cb40       ?setPoolProperty@Pool@@CAXPAV1@V?$basic_string@DU?$char_traits@D@std@@V?$allocator@D@2@@std@@@Z 1000db40 f   njsPool.obj
 0001:0000cd00       ?SetPoolMin@Pool@@CAXV?$Local@VString@v8@@@v8@@V?$Local@VValue@v8@@@3@ABV?$PropertyCallbackInfo@X@Nan@@@Z 1000dd00 f   njsPool.obj
 0001:0000cdd0       ?SetPoolMax@Pool@@CAXV?$Local@VString@v8@@@v8@@V?$Local@VValue@v8@@@3@ABV?$PropertyCallbackInfo@X@Nan@@@Z 1000ddd0 f   njsPool.obj
 0001:0000cea0       ?SetPoolIncrement@Pool@@CAXV?$Local@VString@v8@@@v8@@V?$Local@VValue@v8@@@3@ABV?$PropertyCallbackInfo@X@Nan@@@Z 1000dea0 f   njsPool.obj
 0001:0000cf70       ?SetPoolTimeout@Pool@@CAXV?$Local@VString@v8@@@v8@@V?$Local@VValue@v8@@@3@ABV?$PropertyCallbackInfo@X@Nan@@@Z 1000df70 f   njsPool.obj
 0001:0000d040       ?SetConnectionsOpen@Pool@@CAXV?$Local@VString@v8@@@v8@@V?$Local@VValue@v8@@@3@ABV?$PropertyCallbackInfo@X@Nan@@@Z 1000e040 f   njsPool.obj
 0001:0000d110       ?SetConnectionsInUse@Pool@@CAXV?$Local@VString@v8@@@v8@@V?$Local@VValue@v8@@@3@ABV?$PropertyCallbackInfo@X@Nan@@@Z 1000e110 f   njsPool.obj
 0001:0000d1e0       ?SetStmtCacheSize@Pool@@CAXV?$Local@VString@v8@@@v8@@V?$Local@VValue@v8@@@3@ABV?$PropertyCallbackInfo@X@Nan@@@Z 1000e1e0 f   njsPool.obj
 0001:0000d2b0       ?SetPoolPingInterval@Pool@@CAXV?$Local@VString@v8@@@v8@@V?$Local@VValue@v8@@@3@ABV?$PropertyCallbackInfo@X@Nan@@@Z 1000e2b0 f   njsPool.obj
 0001:0000d380       ?GetConnection@Pool@@CAXABV?$FunctionCallbackInfo@VValue@v8@@@Nan@@@Z 1000e380 f   njsPool.obj
 0001:0000d660       ?Async_GetConnection@Pool@@CAXPAUuv_work_s@@@Z 1000e660 f   njsPool.obj
 0001:0000d800       ?Async_AfterGetConnection@Pool@@CAXPAUuv_work_s@@@Z 1000e800 f   njsPool.obj
 0001:0000da40       ?Terminate@Pool@@CAXABV?$FunctionCallbackInfo@VValue@v8@@@Nan@@@Z 1000ea40 f   njsPool.obj
 0001:0000dd00       ?Async_Terminate@Pool@@CAXPAUuv_work_s@@@Z 1000ed00 f   njsPool.obj
 0001:0000dda0       ?Async_AfterTerminate@Pool@@CAXPAUuv_work_s@@@Z 1000eda0 f   njsPool.obj
 0001:0000df50       ?compare@?$char_traits@D@std@@SAHPBD0I@Z 1000ef50 f i njsConnection.obj
 0001:0000dfb0       ?Set@Nan@@YA?AV?$Maybe@_N@v8@@V?$Local@VObject@v8@@@3@IV?$Local@VValue@v8@@@3@@Z 1000efb0 f i njsConnection.obj
 0001:0000e040       ?ForceSet@Nan@@YA?AV?$Maybe@_N@v8@@V?$Local@VObject@v8@@@3@V?$Local@VValue@v8@@@3@1W4PropertyAttribute@3@@Z 1000f040 f i njsConnection.obj
 0001:0000e0d0       ?New@?$Factory@VDate@v8@@@imp@Nan@@SA?AV?$MaybeLocal@VDate@v8@@@v8@@N@Z 1000f0d0 f i njsConnection.obj
 0001:0000e190       ?New@?$Factory@VNumber@v8@@@imp@Nan@@SA?AV?$Local@VNumber@v8@@@v8@@N@Z 1000f190 f i njsConnection.obj
 0001:0000e1c0       ?CopyBuffer@Nan@@YA?AV?$MaybeLocal@VObject@v8@@@v8@@PBDI@Z 1000f1c0 f i njsConnection.obj
 0001:0000e210       ??1RefCounter@@QAE@XZ      1000f210 f i njsConnection.obj
 0001:0000e220       ??0MetaInfo@@QAE@XZ        1000f220 f i njsConnection.obj
 0001:0000e260       ??0fetchInfo@@QAE@XZ       1000f260 f i njsConnection.obj
 0001:0000e290       ??0eBaton@@QAE@AAIV?$Local@VFunction@v8@@@v8@@V?$Local@VObject@v8@@@2@@Z 1000f290 f i njsConnection.obj
 0001:0000e530       ??1eBaton@@QAE@XZ          1000f530 f i njsConnection.obj
 0001:0000eba0       ?GetValueType@Connection@@CA?AW4ValueType@@V?$Local@VValue@v8@@@v8@@@Z 1000fba0 f i njsConnection.obj
 0001:0000ec80       ?IsValue2TempLob@Connection@@CA_NPAUeBaton@@I@Z 1000fc80 f i njsConnection.obj
 0001:0000ed10       ?setConnection@Connection@@QAEXPAVConn@dpi@@PAVOracledb@@V?$Local@VObject@v8@@@v8@@@Z 1000fd10 f   njsConnection.obj
 0001:0000ed80       ?Init@Connection@@SAXV?$Local@VObject@v8@@@v8@@@Z 1000fd80 f   njsConnection.obj
 0001:0000f0e0       ?New@Connection@@CAXABV?$FunctionCallbackInfo@VValue@v8@@@Nan@@@Z 100100e0 f   njsConnection.obj
 0001:0000f150       ?connectionPropertyException@Connection@@CAXPAV1@W4NJSErrorType@@V?$basic_string@DU?$char_traits@D@std@@V?$allocator@D@2@@std@@@Z 10010150 f   njsConnection.obj
 0001:0000f2c0       ?GetStmtCacheSize@Connection@@CAXV?$Local@VString@v8@@@v8@@ABV?$PropertyCallbackInfo@VValue@v8@@@Nan@@@Z 100102c0 f   njsConnection.obj
 0001:0000f490       ?SetStmtCacheSize@Connection@@CAXV?$Local@VString@v8@@@v8@@V?$Local@VValue@v8@@@3@ABV?$PropertyCallbackInfo@X@Nan@@@Z 10010490 f   njsConnection.obj
 0001:0000f5b0       ?GetClientId@Connection@@CAXV?$Local@VString@v8@@@v8@@ABV?$PropertyCallbackInfo@VValue@v8@@@Nan@@@Z 100105b0 f   njsConnection.obj
 0001:0000f5b0       ?GetModule@Connection@@CAXV?$Local@VString@v8@@@v8@@ABV?$PropertyCallbackInfo@VValue@v8@@@Nan@@@Z 100105b0 f   njsConnection.obj
 0001:0000f5b0       ?GetAction@Connection@@CAXV?$Local@VString@v8@@@v8@@ABV?$PropertyCallbackInfo@VValue@v8@@@Nan@@@Z 100105b0 f   njsConnection.obj
 0001:0000f5d0       ?SetClientId@Connection@@CAXV?$Local@VString@v8@@@v8@@V?$Local@VValue@v8@@@3@ABV?$PropertyCallbackInfo@X@Nan@@@Z 100105d0 f   njsConnection.obj
 0001:0000f850       ?SetModule@Connection@@CAXV?$Local@VString@v8@@@v8@@V?$Local@VValue@v8@@@3@ABV?$PropertyCallbackInfo@X@Nan@@@Z 10010850 f   njsConnection.obj
 0001:0000fad0       ?SetAction@Connection@@CAXV?$Local@VString@v8@@@v8@@V?$Local@VValue@v8@@@3@ABV?$PropertyCallbackInfo@X@Nan@@@Z 10010ad0 f   njsConnection.obj
 0001:0000fd50       ?GetOracleServerVersion@Connection@@CAXV?$Local@VString@v8@@@v8@@ABV?$PropertyCallbackInfo@VValue@v8@@@Nan@@@Z 10010d50 f   njsConnection.obj
 0001:0000ff70       ?SetOracleServerVersion@Connection@@CAXV?$Local@VString@v8@@@v8@@V?$Local@VValue@v8@@@3@ABV?$PropertyCallbackInfo@X@Nan@@@Z 10010f70 f   njsConnection.obj
 0001:00010090       ?Execute@Connection@@CAXABV?$FunctionCallbackInfo@VValue@v8@@@Nan@@@Z 10011090 f   njsConnection.obj
 0001:00010540       ?ProcessBinds@Connection@@CAXABV?$FunctionCallbackInfo@VValue@v8@@@Nan@@IPAUeBaton@@@Z 10011540 f   njsConnection.obj
 0001:00010700       ?ProcessOptions@Connection@@CAXABV?$FunctionCallbackInfo@VValue@v8@@@Nan@@IPAUeBaton@@@Z 10011700 f   njsConnection.obj
 0001:000111a0       ?GetBinds@Connection@@CAXV?$Local@VObject@v8@@@v8@@PAUeBaton@@@Z 100121a0 f   njsConnection.obj
 0001:00011580       ?GetBinds@Connection@@CAXV?$Local@VArray@v8@@@v8@@PAUeBaton@@@Z 10012580 f   njsConnection.obj
 0001:000116c0       ?GetBindUnit@Connection@@CAXV?$Local@VValue@v8@@@v8@@PAUBind@@_NPAUeBaton@@@Z 100126c0 f   njsConnection.obj
 0001:00011fa0       ?GetOutBindParams@Connection@@CAXGPAUBind@@PAUeBaton@@@Z 10012fa0 f   njsConnection.obj
 0001:00012230       ?GetInBindParams@Connection@@CAXV?$Local@VValue@v8@@@v8@@PAUBind@@PAUeBaton@@@Z 10013230 f   njsConnection.obj
 0001:000122c0       ?GetInBindParamsScalar@Connection@@CAXV?$Local@VValue@v8@@@v8@@PAUBind@@PAUeBaton@@@Z 100132c0 f   njsConnection.obj
 0001:00012d20       ?GetInBindParamsArray@Connection@@CAXV?$Local@VArray@v8@@@v8@@PAUBind@@PAUeBaton@@@Z 10013d20 f   njsConnection.obj
 0001:00013550       ?AllocateBindArray@Connection@@CA_NGPAUBind@@PAUeBaton@@PAI@Z 10014550 f   njsConnection.obj
 0001:000137d0       ?Async_Execute@Connection@@CAXPAUuv_work_s@@@Z 100147d0 f   njsConnection.obj
 0001:00014010       ?CLOB2String@Connection@@CAXPAUeBaton@@I@Z 10015010 f   njsConnection.obj
 0001:00014050       ?BLOB2Buffer@Connection@@CAXPAUeBaton@@I@Z 10015050 f   njsConnection.obj
 0001:00014090       ?LOB2StringOrBuffer@Connection@@CAXPAUeBaton@@I_K1@Z 10015090 f   njsConnection.obj
 0001:00014330       ?StringOrBuffer2LOB@Connection@@CAXPAUeBaton@@IE@Z 10015330 f   njsConnection.obj
 0001:00014480       ?Descr2StringOrBuffer@Connection@@CAXPAUeBaton@@@Z 10015480 f   njsConnection.obj
 0001:000145e0       ?ConvertStringOrBuffer2LOB@Connection@@CAXPAUeBaton@@I@Z 100155e0 f   njsConnection.obj
 0001:00014700       ?PrepareAndBind@Connection@@CAXPAUeBaton@@@Z 10015700 f   njsConnection.obj
 0001:00014b70       ?CopyMetaData@Connection@@SAXPAUMetaInfo@@PAUeBaton@@PBUMetaData@dpi@@I@Z 10015b70 f   njsConnection.obj
 0001:00015080       ?SourceDBType2TargetDBType@Connection@@CAGI@Z 10016080 f   njsConnection.obj
 0001:000151b0       ?MapByName@Connection@@CAHPAUeBaton@@AAV?$basic_string@DU?$char_traits@D@std@@V?$allocator@D@2@@std@@AAG@Z 100161b0 f   njsConnection.obj
 0001:000152d0       ?MapByType@Connection@@CAHPAUeBaton@@AAG@Z 100162d0 f   njsConnection.obj
 0001:00015490       ?DoDefines@Connection@@SAXPAUeBaton@@@Z 10016490 f   njsConnection.obj
 0001:00015f00       ?DoFetch@Connection@@SAXPAUeBaton@@@Z 10016f00 f   njsConnection.obj
 0001:00016070       ?Descr2Double@Connection@@CA?AW4NJSErrorType@@PAUDefine@@II_N@Z 10017070 f   njsConnection.obj
 0001:00016130       ?Descr2protoILob@Connection@@CAXPAUeBaton@@II@Z 10017130 f   njsConnection.obj
 0001:000164b0       ?Async_AfterExecute@Connection@@CAXPAUuv_work_s@@@Z 100174b0 f   njsConnection.obj
 0001:00016e30       ?GetMetaData@Connection@@SA?AV?$Local@VValue@v8@@@v8@@PBUMetaInfo@@I_N@Z 10017e30 f   njsConnection.obj
 0001:00017410       ?GetRows@Connection@@SA?AV?$Local@VValue@v8@@@v8@@PAUeBaton@@@Z 10018410 f   njsConnection.obj
 0001:00017710       ?ToV8Value@Connection@@CA?AV?$Local@VValue@v8@@@v8@@PAUeBaton@@_NII@Z 10018710 f   njsConnection.obj
 0001:00017870       ?Bind2V8Value@Connection@@CA?AV?$Local@VValue@v8@@@v8@@PAUeBaton@@PAUBind@@I@Z 10018870 f   njsConnection.obj
 0001:00017ae0       ?Define2V8Value@Connection@@CA?AV?$Local@VValue@v8@@@v8@@PAUeBaton@@IIPAUDefine@@PAUExtDefine@@@Z 10018ae0 f   njsConnection.obj
 0001:00017e30       ?RefCursor2V8Value@Connection@@CA?AV?$Local@VValue@v8@@@v8@@PAUeBaton@@PAUBind@@PAUExtBind@@@Z 10018e30 f   njsConnection.obj
 0001:00017f70       ?Lob2V8Value@Connection@@CA?AV?$Local@VValue@v8@@@v8@@PAUeBaton@@PAUBind@@@Z 10018f70 f   njsConnection.obj
 0001:00018040       ?ToV8ArrayValue@Connection@@CA?AV?$Local@VValue@v8@@@v8@@PAUeBaton@@PAUBind@@K@Z 10019040 f   njsConnection.obj
 0001:00018420       ?GetOutBinds@Connection@@CA?AV?$Local@VValue@v8@@@v8@@PAUeBaton@@@Z 10019420 f   njsConnection.obj
 0001:000184d0       ?GetOutBindArray@Connection@@CA?AV?$Local@VValue@v8@@@v8@@PAUeBaton@@@Z 100194d0 f   njsConnection.obj
 0001:000185f0       ?GetOutBindObject@Connection@@CA?AV?$Local@VValue@v8@@@v8@@PAUeBaton@@@Z 100195f0 f   njsConnection.obj
 0001:000187e0       ?Release@Connection@@CAXABV?$FunctionCallbackInfo@VValue@v8@@@Nan@@@Z 100197e0 f   njsConnection.obj
 0001:00018bb0       ?Async_Release@Connection@@CAXPAUuv_work_s@@@Z 10019bb0 f   njsConnection.obj
 0001:00018cb0       ?Async_AfterRelease@Connection@@CAXPAUuv_work_s@@@Z 10019cb0 f   njsConnection.obj
 0001:00018f20       ?Commit@Connection@@CAXABV?$FunctionCallbackInfo@VValue@v8@@@Nan@@@Z 10019f20 f   njsConnection.obj
 0001:00019220       ?Async_Commit@Connection@@CAXPAUuv_work_s@@@Z 1001a220 f   njsConnection.obj
 0001:000192e0       ?Async_AfterBreak@Connection@@CAXPAUuv_work_s@@@Z 1001a2e0 f   njsConnection.obj
 0001:000192e0       ?Async_AfterRollback@Connection@@CAXPAUuv_work_s@@@Z 1001a2e0 f   njsConnection.obj
 0001:000192e0       ?Async_AfterCommit@Connection@@CAXPAUuv_work_s@@@Z 1001a2e0 f   njsConnection.obj
 0001:00019470       ?Rollback@Connection@@CAXABV?$FunctionCallbackInfo@VValue@v8@@@Nan@@@Z 1001a470 f   njsConnection.obj
 0001:00019770       ?Async_Rollback@Connection@@CAXPAUuv_work_s@@@Z 1001a770 f   njsConnection.obj
 0001:00019830       ?Break@Connection@@CAXABV?$FunctionCallbackInfo@VValue@v8@@@Nan@@@Z 1001a830 f   njsConnection.obj
 0001:00019b30       ?Async_Break@Connection@@CAXPAUuv_work_s@@@Z 1001ab30 f   njsConnection.obj
 0001:00019bf0       ?CreateLob@Connection@@CAXABV?$FunctionCallbackInfo@VValue@v8@@@Nan@@@Z 1001abf0 f   njsConnection.obj
 0001:00019fe0       ?Async_CreateLob@Connection@@CAXPAUuv_work_s@@@Z 1001afe0 f   njsConnection.obj
 0001:0001a130       ?Async_AfterCreateLob@Connection@@CAXPAUuv_work_s@@@Z 1001b130 f   njsConnection.obj
 0001:0001a350       ?v8Date2OraDate@Connection@@CAXV?$Local@VValue@v8@@@v8@@PAUBind@@@Z 1001b350 f   njsConnection.obj
 0001:0001a420       ?UpdateDateValue@Connection@@CAXPAUeBaton@@PAUBind@@I@Z 1001b420 f   njsConnection.obj
 0001:0001a4a0       ?cbDynBufferAllocate@Connection@@CAXPAX_NII@Z 1001b4a0 f   njsConnection.obj
 0001:0001abb0       ?cbDynBufferGet@Connection@@CAHPAX_JIKKPAPAX22PAPAGPAE@Z 1001bbb0 f   njsConnection.obj
 0001:0001add0       ?cbDynDefine@Connection@@CAHPAXIPAPAXPAPAI1PAPAG@Z 1001bdd0 f   njsConnection.obj
 0001:0001ae90       ?NewLob@Connection@@CA?AV?$Local@VValue@v8@@@v8@@PAUeBaton@@PAVProtoILob@@_N@Z 1001be90 f   njsConnection.obj
 0001:0001b070       ?compare@?$basic_string@DU?$char_traits@D@std@@V?$allocator@D@2@@std@@QBEHPBD@Z 1001c070 f i njsConnection.obj
 0001:0001b0d0       ??0?$vector@PAUBind@@V?$allocator@PAUBind@@@std@@@std@@QAE@ABV01@@Z 1001c0d0 f i njsConnection.obj
 0001:0001b170       ??1?$vector@PAUExtDefine@@V?$allocator@PAUExtDefine@@@std@@@std@@QAE@XZ 1001c170 f i njsConnection.obj
 0001:0001b170       ??1?$vector@PAUExtBind@@V?$allocator@PAUExtBind@@@std@@@std@@QAE@XZ 1001c170 f i njsConnection.obj
 0001:0001b170       ??1?$vector@PAUBind@@V?$allocator@PAUBind@@@std@@@std@@QAE@XZ 1001c170 f i njsConnection.obj
 0001:0001b170       ??1?$vector@PAV?$Persistent@VObject@v8@@V?$NonCopyablePersistentTraits@VObject@v8@@@2@@Nan@@V?$allocator@PAV?$Persistent@VObject@v8@@V?$NonCopyablePersistentTraits@VObject@v8@@@2@@Nan@@@std@@@std@@QAE@XZ 1001c170 f i njsConnection.obj
 0001:0001b1a0       ?push_back@?$vector@PAUExtBind@@V?$allocator@PAUExtBind@@@std@@@std@@QAEXABQAUExtBind@@@Z 1001c1a0 f i njsConnection.obj
 0001:0001b1a0       ?push_back@?$vector@PAUExtBind@@V?$allocator@PAUExtBind@@@std@@@std@@QAEX$$QAPAUExtBind@@@Z 1001c1a0 f i njsConnection.obj
 0001:0001b1a0       ?push_back@?$vector@PAV?$Persistent@VObject@v8@@V?$NonCopyablePersistentTraits@VObject@v8@@@2@@Nan@@V?$allocator@PAV?$Persistent@VObject@v8@@V?$NonCopyablePersistentTraits@VObject@v8@@@2@@Nan@@@std@@@std@@QAEXABQAV?$Persistent@VObject@v8@@V?$NonCopyablePersistentTraits@VObject@v8@@@2@@Nan@@@Z 1001c1a0 f i njsConnection.obj
 0001:0001b1a0       ?push_back@?$vector@PAUBind@@V?$allocator@PAUBind@@@std@@@std@@QAEXABQAUBind@@@Z 1001c1a0 f i njsConnection.obj
 0001:0001b200       ?resize@?$vector@PAUExtDefine@@V?$allocator@PAUExtDefine@@@std@@@std@@QAEXIABQAUExtDefine@@@Z 1001c200 f i njsConnection.obj
 0001:0001b2a0       ?_Reserve@?$vector@PAUExtBind@@V?$allocator@PAUExtBind@@@std@@@std@@IAEXI@Z 1001c2a0 f i njsConnection.obj
 0001:0001b2a0       ?_Reserve@?$vector@PAV?$Persistent@VObject@v8@@V?$NonCopyablePersistentTraits@VObject@v8@@@2@@Nan@@V?$allocator@PAV?$Persistent@VObject@v8@@V?$NonCopyablePersistentTraits@VObject@v8@@@2@@Nan@@@std@@@std@@IAEXI@Z 1001c2a0 f i njsConnection.obj
 0001:0001b2a0       ?_Reserve@?$vector@PAUBind@@V?$allocator@PAUBind@@@std@@@std@@IAEXI@Z 1001c2a0 f i njsConnection.obj
 0001:0001b310       ?_Reserve@?$vector@PAUExtDefine@@V?$allocator@PAUExtDefine@@@std@@@std@@IAEXI@Z 1001c310 f i njsConnection.obj
 0001:0001b390       ?_Reallocate@?$vector@PAV?$Persistent@VObject@v8@@V?$NonCopyablePersistentTraits@VObject@v8@@@2@@Nan@@V?$allocator@PAV?$Persistent@VObject@v8@@V?$NonCopyablePersistentTraits@VObject@v8@@@2@@Nan@@@std@@@std@@IAEXI@Z 1001c390 f i njsConnection.obj
 0001:0001b390       ?_Reallocate@?$vector@PAUExtDefine@@V?$allocator@PAUExtDefine@@@std@@@std@@IAEXI@Z 1001c390 f i njsConnection.obj
 0001:0001b390       ?_Reallocate@?$vector@PAUBind@@V?$allocator@PAUBind@@@std@@@std@@IAEXI@Z 1001c390 f i njsConnection.obj
 0001:0001b390       ?_Reallocate@?$vector@PAUExtBind@@V?$allocator@PAUExtBind@@@std@@@std@@IAEXI@Z 1001c390 f i njsConnection.obj
 0001:0001b410       ??$?HDU?$char_traits@D@std@@V?$allocator@D@1@@std@@YA?AV?$basic_string@DU?$char_traits@D@std@@V?$allocator@D@2@@0@PBD$$QAV10@@Z 1001c410 f i njsConnection.obj
 0001:0001b490       ?insert@?$basic_string@DU?$char_traits@D@std@@V?$allocator@D@2@@std@@QAEAAV12@IPBDI@Z 1001c490 f i njsConnection.obj
 0001:0001b580       ?insert@?$basic_string@DU?$char_traits@D@std@@V?$allocator@D@2@@std@@QAEAAV12@IABV12@II@Z 1001c580 f i njsConnection.obj
 0001:0001b690       ??0rsBaton@@QAE@AAIV?$Local@VFunction@v8@@@v8@@V?$Local@VObject@v8@@@2@2@Z 1001c690 f i njsResultSet.obj
 0001:0001b7a0       ??1rsBaton@@QAE@XZ         1001c7a0 f i njsResultSet.obj
 0001:0001b840       ??_GResultSet@@UAEPAXI@Z   1001c840 f i njsResultSet.obj
 0001:0001b840       ??_EResultSet@@UAEPAXI@Z   1001c840 f i * CIL library *:* CIL module *
 0001:0001b8d0       ?setResultSet@ResultSet@@QAEXPAVStmt@dpi@@PAUeBaton@@IPBUMetaInfo@@@Z 1001c8d0 f   njsResultSet.obj
 0001:0001bb50       ?Init@ResultSet@@SAXV?$Local@VObject@v8@@@v8@@@Z 1001cb50 f   njsResultSet.obj
 0001:0001bd40       ?New@ResultSet@@CAXABV?$FunctionCallbackInfo@VValue@v8@@@Nan@@@Z 1001cd40 f   njsResultSet.obj
 0001:0001bdb0       ?GetMetaData@ResultSet@@CAXV?$Local@VString@v8@@@v8@@ABV?$PropertyCallbackInfo@VValue@v8@@@Nan@@@Z 1001cdb0 f   njsResultSet.obj
 0001:0001bfc0       ?SetMetaData@ResultSet@@CAXV?$Local@VString@v8@@@v8@@V?$Local@VValue@v8@@@3@ABV?$PropertyCallbackInfo@X@Nan@@@Z 1001cfc0 f   njsResultSet.obj
 0001:0001c190       ?GetRow@ResultSet@@CAXABV?$FunctionCallbackInfo@VValue@v8@@@Nan@@@Z 1001d190 f   njsResultSet.obj
 0001:0001c460       ?GetRows@ResultSet@@CAXABV?$FunctionCallbackInfo@VValue@v8@@@Nan@@@Z 1001d460 f   njsResultSet.obj
 0001:0001c7c0       ?GetRowsCommon@ResultSet@@CAXPAUrsBaton@@@Z 1001d7c0 f   njsResultSet.obj
 0001:0001c960       ?Async_GetRows@ResultSet@@CAXPAUuv_work_s@@@Z 1001d960 f   njsResultSet.obj
 0001:0001cbc0       ?Async_AfterGetRows@ResultSet@@CAXPAUuv_work_s@@@Z 1001dbc0 f   njsResultSet.obj
 0001:0001ce00       ?Close@ResultSet@@CAXABV?$FunctionCallbackInfo@VValue@v8@@@Nan@@@Z 1001de00 f   njsResultSet.obj
 0001:0001d140       ?Async_Close@ResultSet@@CAXPAUuv_work_s@@@Z 1001e140 f   njsResultSet.obj
 0001:0001d250       ?Async_AfterClose@ResultSet@@CAXPAUuv_work_s@@@Z 1001e250 f   njsResultSet.obj
 0001:0001d420       ?clearFetchBuffer@ResultSet@@AAEXI@Z 1001e420 f   njsResultSet.obj
 0001:0001d5b0       ?getErrorMsg@NJSMessages@@SA?AV?$basic_string@DU?$char_traits@D@std@@V?$allocator@D@2@@std@@W4NJSErrorType@@ZZ 1001e5b0 f   njsMessages.obj
 0001:0001d6b0       ??0LobBaton@@QAE@AAIV?$Local@VFunction@v8@@@v8@@V?$Local@VObject@v8@@@2@@Z 1001e6b0 f i njsIntLob.obj
 0001:0001d810       ??0LobBaton@@QAE@AAIV?$Local@VObject@v8@@@v8@@V?$Local@VFunction@v8@@@2@1@Z 1001e810 f i njsIntLob.obj
 0001:0001d9a0       ??1LobBaton@@QAE@XZ        1001e9a0 f i njsIntLob.obj
 0001:0001da70       ??0ILob@@AAE@XZ            1001ea70 f   njsIntLob.obj
 0001:0001db10       ??_EILob@@EAEPAXI@Z        1001eb10 f i * CIL library *:* CIL module *
 0001:0001db10       ??_GILob@@EAEPAXI@Z        1001eb10 f i njsIntLob.obj
 0001:0001db30       ??1ILob@@EAE@XZ            1001eb30 f   njsIntLob.obj
 0001:0001dbd0       ?cleanupDPI@ILob@@QAEXXZ   1001ebd0 f   njsIntLob.obj
 0001:0001dca0       ?cleanupNJS@ILob@@QAEXXZ   1001eca0 f   njsIntLob.obj
 0001:0001dcf0       ?setILob@ILob@@QAEXPAUeBaton@@PAVProtoILob@@_N@Z 1001ecf0 f   njsIntLob.obj
 0001:0001dea0       ?preBind@ILob@@QAE?AW4NJSErrorType@@PAUBind@@@Z 1001eea0 f   njsIntLob.obj
 0001:0001df00       ?doBind@ILob@@QAEXPAUBind@@@Z 1001ef00 f   njsIntLob.obj
 0001:0001df50       ?hasILobInstance@ILob@@SA_NV?$Local@VObject@v8@@@v8@@@Z 1001ef50 f   njsIntLob.obj
 0001:0001e0a0       ?Init@ILob@@SAXV?$Local@VObject@v8@@@v8@@@Z 1001f0a0 f   njsIntLob.obj
 0001:0001e480       ?New@ILob@@CAXABV?$FunctionCallbackInfo@VValue@v8@@@Nan@@@Z 1001f480 f   njsIntLob.obj
 0001:0001e4c0       ?Release@ILob@@CAXABV?$FunctionCallbackInfo@VValue@v8@@@Nan@@@Z 1001f4c0 f   njsIntLob.obj
 0001:0001e6d0       ?Close@ILob@@CAXABV?$FunctionCallbackInfo@VValue@v8@@@Nan@@@Z 1001f6d0 f   njsIntLob.obj
 0001:0001ea50       ?Async_Close@ILob@@CAXPAUuv_work_s@@@Z 1001fa50 f   njsIntLob.obj
 0001:0001ea70       ?Async_AfterClose@ILob@@CAXPAUuv_work_s@@@Z 1001fa70 f   njsIntLob.obj
 0001:0001ec50       ?lobPropertyException@ILob@@CAXPAV1@W4NJSErrorType@@V?$basic_string@DU?$char_traits@D@std@@V?$allocator@D@2@@std@@@Z 1001fc50 f   njsIntLob.obj
 0001:0001edc0       ?GetChunkSize@ILob@@CAXV?$Local@VString@v8@@@v8@@ABV?$PropertyCallbackInfo@VValue@v8@@@Nan@@@Z 1001fdc0 f   njsIntLob.obj
 0001:0001efe0       ?SetChunkSize@ILob@@CAXV?$Local@VString@v8@@@v8@@V?$Local@VValue@v8@@@3@ABV?$PropertyCallbackInfo@X@Nan@@@Z 1001ffe0 f   njsIntLob.obj
 0001:0001f100       ?GetLength@ILob@@CAXV?$Local@VString@v8@@@v8@@ABV?$PropertyCallbackInfo@VValue@v8@@@Nan@@@Z 10020100 f   njsIntLob.obj
 0001:0001f350       ?SetLength@ILob@@CAXV?$Local@VString@v8@@@v8@@V?$Local@VValue@v8@@@3@ABV?$PropertyCallbackInfo@X@Nan@@@Z 10020350 f   njsIntLob.obj
 0001:0001f470       ?GetPieceSize@ILob@@CAXV?$Local@VString@v8@@@v8@@ABV?$PropertyCallbackInfo@VValue@v8@@@Nan@@@Z 10020470 f   njsIntLob.obj
 0001:0001f690       ?SetPieceSize@ILob@@CAXV?$Local@VString@v8@@@v8@@V?$Local@VValue@v8@@@3@ABV?$PropertyCallbackInfo@X@Nan@@@Z 10020690 f   njsIntLob.obj
 0001:0001f990       ?GetOffset@ILob@@CAXV?$Local@VString@v8@@@v8@@ABV?$PropertyCallbackInfo@VValue@v8@@@Nan@@@Z 10020990 f   njsIntLob.obj
 0001:0001fbb0       ?SetOffset@ILob@@CAXV?$Local@VString@v8@@@v8@@V?$Local@VValue@v8@@@3@ABV?$PropertyCallbackInfo@X@Nan@@@Z 10020bb0 f   njsIntLob.obj
 0001:0001fee0       ?GetType@ILob@@CAXV?$Local@VString@v8@@@v8@@ABV?$PropertyCallbackInfo@VValue@v8@@@Nan@@@Z 10020ee0 f   njsIntLob.obj
 0001:00020030       ?SetType@ILob@@CAXV?$Local@VString@v8@@@v8@@V?$Local@VValue@v8@@@3@ABV?$PropertyCallbackInfo@X@Nan@@@Z 10021030 f   njsIntLob.obj
 0001:00020150       ?GetIsAutoCloseLob@ILob@@CAXV?$Local@VString@v8@@@v8@@ABV?$PropertyCallbackInfo@VValue@v8@@@Nan@@@Z 10021150 f   njsIntLob.obj
 0001:00020280       ?SetIsAutoCloseLob@ILob@@CAXV?$Local@VString@v8@@@v8@@V?$Local@VValue@v8@@@3@ABV?$PropertyCallbackInfo@X@Nan@@@Z 10021280 f   njsIntLob.obj
 0001:000203a0       ?GetIsValid@ILob@@CAXV?$Local@VString@v8@@@v8@@ABV?$PropertyCallbackInfo@VValue@v8@@@Nan@@@Z 100213a0 f   njsIntLob.obj
 0001:000204d0       ?SetIsValid@ILob@@CAXV?$Local@VString@v8@@@v8@@V?$Local@VValue@v8@@@3@ABV?$PropertyCallbackInfo@X@Nan@@@Z 100214d0 f   njsIntLob.obj
 0001:000205f0       ?Read@ILob@@CAXABV?$FunctionCallbackInfo@VValue@v8@@@Nan@@@Z 100215f0 f   njsIntLob.obj
 0001:00020960       ?Async_Read@ILob@@CAXPAUuv_work_s@@@Z 10021960 f   njsIntLob.obj
 0001:00020aa0       ?Async_AfterRead@ILob@@CAXPAUuv_work_s@@@Z 10021aa0 f   njsIntLob.obj
 0001:00020ce0       ?Write@ILob@@CAXABV?$FunctionCallbackInfo@VValue@v8@@@Nan@@@Z 10021ce0 f   njsIntLob.obj
 0001:000210a0       ?Async_Write@ILob@@CAXPAUuv_work_s@@@Z 100220a0 f   njsIntLob.obj
 0001:000211d0       ?Async_AfterWrite@ILob@@CAXPAUuv_work_s@@@Z 100221d0 f   njsIntLob.obj
 0001:00021370       ??0ProtoILob@@QAE@PAUeBaton@@PAUDescriptor@dpi@@G@Z 10022370 f   njsIntLob.obj
 0001:00021520       ?cleanup@ProtoILob@@AAEXXZ 10022520 f   njsIntLob.obj
 0001:00021560       ??_GEnv@dpi@@MAEPAXI@Z     10022560 f i dpiEnv.obj
 0001:00021560       ??_EEnv@dpi@@MAEPAXI@Z     10022560 f i * CIL library *:* CIL module *
 0001:00021580       ??1Env@dpi@@MAE@XZ         10022580 f   dpiEnv.obj
 0001:00021590       ??0exception@stdext@@QAE@ABV01@@Z 10022590 f i dpiEnvImpl.obj
 0001:000215b0       ??0EnvImpl@@QAE@ABV?$basic_string@DU?$char_traits@D@std@@V?$allocator@D@2@@std@@II@Z 100225b0 f   dpiEnvImpl.obj
 0001:000216e0       ??_EEnvImpl@@UAEPAXI@Z     100226e0 f i * CIL library *:* CIL module *
 0001:000216e0       ??_GEnvImpl@@UAEPAXI@Z     100226e0 f i dpiEnvImpl.obj
 0001:00021750       ??0ExceptionImpl@@QAE@ABV0@@Z 10022750 f i dpiEnvImpl.obj
 0001:00021800       ??0Exception@dpi@@QAE@ABV01@@Z 10022800 f i dpiEnvImpl.obj
 0001:00021820       ??_EExceptionImpl@@UAEPAXI@Z 10022820 f i * CIL library *:* CIL module *
 0001:00021820       ??_GExceptionImpl@@UAEPAXI@Z 10022820 f i dpiEnvImpl.obj
 0001:00021890       ?terminate@EnvImpl@@UAEXXZ 10022890 f   dpiEnvImpl.obj
 0001:000218d0       ?poolMax@EnvImpl@@UAEXI@Z  100228d0 f   dpiEnvImpl.obj
 0001:000218e0       ?getError@StmtImpl@@UAEPAUOCIError@@XZ 100228e0 f   dpiStmtImpl.obj
 0001:000218e0       ?poolMax@EnvImpl@@UBEIXZ   100228e0 f   dpiEnvImpl.obj
 0001:000218f0       ?poolMin@EnvImpl@@UAEXI@Z  100228f0 f   dpiEnvImpl.obj
 0001:00021900       ?poolMin@EnvImpl@@UBEIXZ   10022900 f   dpiEnvImpl.obj
 0001:00021910       ?poolIncrement@EnvImpl@@UAEXI@Z 10022910 f   dpiEnvImpl.obj
 0001:00021920       ?poolIncrement@EnvImpl@@UBEIXZ 10022920 f   dpiEnvImpl.obj
 0001:00021920       ?getErrh@ConnImpl@@UAEPAUDpiHandle@dpi@@XZ 10022920 f   dpiConnImpl.obj
 0001:00021930       ?poolTimeout@EnvImpl@@UAEXI@Z 10022930 f   dpiEnvImpl.obj
 0001:00021940       ?poolTimeout@EnvImpl@@UBEIXZ 10022940 f   dpiEnvImpl.obj
 0001:00021950       ?drvName@EnvImpl@@UAEABV?$basic_string@DU?$char_traits@D@std@@V?$allocator@D@2@@std@@XZ 10022950 f   dpiEnvImpl.obj
 0001:00021960       ?externalAuth@EnvImpl@@UAEX_N@Z 10022960 f   dpiEnvImpl.obj
 0001:00021970       ?externalAuth@EnvImpl@@UBE_NXZ 10022970 f   dpiEnvImpl.obj
 0001:00021980       ?isEventEnabled@EnvImpl@@UAEX_N@Z 10022980 f   dpiEnvImpl.obj
 0001:00021990       ?isEventEnabled@EnvImpl@@UBE_NXZ 10022990 f   dpiEnvImpl.obj
 0001:000219a0       ?clientcharset@EnvImpl@@UBEIXZ 100229a0 f   dpiEnvImpl.obj
 0001:000219b0       ?clientncharset@EnvImpl@@UBEIXZ 100229b0 f   dpiEnvImpl.obj
 0001:000219c0       ?createPool@EnvImpl@@UAEPAVSPool@dpi@@ABV?$basic_string@DU?$char_traits@D@std@@V?$allocator@D@2@@std@@00HHHHH_N1H@Z 100229c0 f   dpiEnvImpl.obj
 0001:00021a90       ?getConnection@EnvImpl@@UAEPAVConn@dpi@@ABV?$basic_string@DU?$char_traits@D@std@@V?$allocator@D@2@@std@@00H0_NW4DBPrivileges@3@@Z 10022a90 f   dpiEnvImpl.obj
 0001:00021b30       ?terminatePool@EnvImpl@@UAEXPAVPoolImpl@@@Z 10022b30 f   dpiEnvImpl.obj
 0001:00021b50       ?releaseConnection@PoolImpl@@UAEXPAVConnImpl@@@Z 10022b50 f   dpiPoolImpl.obj
 0001:00021b50       ?releaseConnection@EnvImpl@@UAEXPAVConnImpl@@@Z 10022b50 f   dpiEnvImpl.obj
 0001:00021b70       ?cleanup@EnvImpl@@AAEXXZ   10022b70 f   dpiEnvImpl.obj
 0001:00021b90       ?getDateTimeArray@EnvImpl@@UBEPAVDateTimeArray@dpi@@PAUOCIError@@@Z 10022b90 f   dpiEnvImpl.obj
 0001:00021c00       ?releaseDateTimeArray@EnvImpl@@UBEXPAVDateTimeArray@dpi@@@Z 10022c00 f   dpiEnvImpl.obj
 0001:00021c20       ?allocHandle@EnvImpl@@UAEPAUDpiHandle@dpi@@W4HandleType@3@@Z 10022c20 f   dpiEnvImpl.obj
 0001:00021c60       ?allocDescriptor@EnvImpl@@UAEPAUDescriptor@dpi@@W4DescriptorType@3@@Z 10022c60 f   dpiEnvImpl.obj
 0001:00021ca0       ?allocDescriptorArray@EnvImpl@@UAEXW4DescriptorType@dpi@@IQAPAUDescriptor@3@@Z 10022ca0 f   dpiEnvImpl.obj
 0001:00021cd0       ?envHandle@EnvImpl@@UBEPAUDpiHandle@dpi@@XZ 10022cd0 f   dpiEnvImpl.obj
 0001:00021ce0       ??0ExceptionImpl@@QAE@W4DpiError@dpi@@@Z 10022ce0 f   dpiExceptionImpl.obj
 0001:00021ec0       ??0ExceptionImpl@@QAE@PBDH0@Z 10022ec0 f   dpiExceptionImpl.obj
 0001:00021f80       ??1ExceptionImpl@@UAE@XZ   10022f80 f   dpiExceptionImpl.obj
 0001:00021fe0       ?what@ExceptionImpl@@UBEPBDXZ 10022fe0 f   dpiExceptionImpl.obj
 0001:00021ff0       ?errnum@ExceptionImpl@@UBEHXZ 10022ff0 f   dpiExceptionImpl.obj
 0001:00022000       ?origin@ExceptionImpl@@UBEPBDXZ 10023000 f   dpiExceptionImpl.obj
 0001:00022010       ??$?6DU?$char_traits@D@std@@V?$allocator@D@1@@std@@YAAAV?$basic_ostream@DU?$char_traits@D@std@@@0@AAV10@ABV?$basic_string@DU?$char_traits@D@std@@V?$allocator@D@2@@0@@Z 10023010 f i dpiExceptionImpl.obj
 0001:00022260       ??$?6DU?$char_traits@D@std@@_J@std@@YAAAV?$basic_ostream@DU?$char_traits@D@std@@@0@AAV10@ABU?$_Smanip@_J@0@@Z 10023260 f i dpiExceptionImpl.obj
 0001:00022290       ??1Conn@dpi@@MAE@XZ        10023290 f i dpiConnImpl.obj
 0001:000222a0       ??_EConn@dpi@@MAEPAXI@Z    100232a0 f i * CIL library *:* CIL module *
 0001:000222a0       ??_GConn@dpi@@MAEPAXI@Z    100232a0 f i dpiConnImpl.obj
 0001:000222c0       ?tagMatched@ConnImpl@@UAEHXZ 100232c0 f i dpiConnImpl.obj
 0001:000222d0       ?tag@ConnImpl@@UAEAAV?$basic_string@DU?$char_traits@D@std@@V?$allocator@D@2@@std@@XZ 100232d0 f i dpiConnImpl.obj
 0001:000222e0       ?getSvch@ConnImpl@@UAEPAUDpiHandle@dpi@@XZ 100232e0 f i dpiConnImpl.obj
 0001:000222f0       ??0ConnImpl@@QAE@PAVEnvImpl@@PAUOCIEnv@@_NIABV?$basic_string@DU?$char_traits@D@std@@V?$allocator@D@2@@std@@333W4DBPrivileges@dpi@@@Z 100232f0 f   dpiConnImpl.obj
 0001:000224f0       ??0ConnImpl@@QAE@PAVPoolImpl@@PAUOCIEnv@@_NPAEIABV?$basic_string@DU?$char_traits@D@std@@V?$allocator@D@2@@std@@444HW4DBPrivileges@dpi@@H@Z 100234f0 f   dpiConnImpl.obj
 0001:00022660       ??1ConnImpl@@UAE@XZ        10023660 f   dpiConnImpl.obj
 0001:00022720       ??_GConnImpl@@UAEPAXI@Z    10023720 f i dpiConnImpl.obj
 0001:00022720       ??_EConnImpl@@UAEPAXI@Z    10023720 f i * CIL library *:* CIL module *
 0001:00022740       ?release@ConnImpl@@UAEXABV?$basic_string@DU?$char_traits@D@std@@V?$allocator@D@2@@std@@H@Z 10023740 f   dpiConnImpl.obj
 0001:000227c0       ?releaseStmt@ConnImpl@@UAEXPAVStmt@dpi@@@Z 100237c0 f   dpiConnImpl.obj
 0001:000227e0       ?stmtCacheSize@ConnImpl@@UAEXI@Z 100237e0 f   dpiConnImpl.obj
 0001:00022810       ?getLOBCharExpansionRatio@ConnImpl@@UAEIXZ 10023810 f   dpiConnImpl.obj
 0001:00022820       ?getVarCharByteExpansionRatio@ConnImpl@@UAEIXZ 10023820 f   dpiConnImpl.obj
 0001:00022820       ?poolMax@PoolImpl@@UBEHXZ  10023820 f   dpiPoolImpl.obj
 0001:00022830       ?stmtCacheSize@ConnImpl@@UBEIXZ 10023830 f   dpiConnImpl.obj
 0001:00022870       ?lobPrefetchSize@ConnImpl@@UBEIXZ 10023870 f   dpiConnImpl.obj
 0001:000228b0       ?clientId@ConnImpl@@UAEXABV?$basic_string@DU?$char_traits@D@std@@V?$allocator@D@2@@std@@@Z 100238b0 f   dpiConnImpl.obj
 0001:000228f0       ?module@ConnImpl@@UAEXABV?$basic_string@DU?$char_traits@D@std@@V?$allocator@D@2@@std@@@Z 100238f0 f   dpiConnImpl.obj
 0001:00022930       ?action@ConnImpl@@UAEXABV?$basic_string@DU?$char_traits@D@std@@V?$allocator@D@2@@std@@@Z 10023930 f   dpiConnImpl.obj
 0001:00022970       ?getStmt@ConnImpl@@UAEPAVStmt@dpi@@ABV?$basic_string@DU?$char_traits@D@std@@V?$allocator@D@2@@std@@@Z 10023970 f   dpiConnImpl.obj
 0001:000229f0       ?commit@ConnImpl@@UAEXXZ   100239f0 f   dpiConnImpl.obj
 0001:00022a10       ?rollback@ConnImpl@@UAEXXZ 10023a10 f   dpiConnImpl.obj
 0001:00022a30       ?breakExecution@ConnImpl@@UAEXXZ 10023a30 f   dpiConnImpl.obj
 0001:00022a60       ?setErrState@ConnImpl@@UAEXH@Z 10023a60 f   dpiConnImpl.obj
 0001:00022aa0       ?getServerVersion@ConnImpl@@UAEIXZ 10023aa0 f   dpiConnImpl.obj
 0001:00022b10       ?initConnImpl@ConnImpl@@AAEX_N0ABV?$basic_string@DU?$char_traits@D@std@@V?$allocator@D@2@@std@@PAEI111HAAV23@AAHW4DBPrivileges@dpi@@@Z 10023b10 f   dpiConnImpl.obj
 0001:00023080       ?cleanup@ConnImpl@@AAEXXZ  10024080 f   dpiConnImpl.obj
 0001:00023180       ??1DateTimeArray@dpi@@UAE@XZ 10024180 f i dpiDateTimeArrayImpl.obj
 0001:00023190       ??_EDateTimeArray@dpi@@UAEPAXI@Z 10024190 f i * CIL library *:* CIL module *
 0001:00023190       ??_GDateTimeArray@dpi@@UAEPAXI@Z 10024190 f i dpiDateTimeArrayImpl.obj
 0001:000231b0       ??_EDateTimeArrayImpl@dpi@@UAEPAXI@Z 100241b0 f i * CIL library *:* CIL module *
 0001:000231b0       ??_GDateTimeArrayImpl@dpi@@UAEPAXI@Z 100241b0 f i dpiDateTimeArrayImpl.obj
 0001:00023240       ?init@DateTimeArrayImpl@dpi@@UAEPAXH@Z 10024240 f   dpiDateTimeArrayImpl.obj
 0001:00023310       ?release@DateTimeArrayImpl@dpi@@UAEXXZ 10024310 f   dpiDateTimeArrayImpl.obj
 0001:00023340       ?getDateTime@DateTimeArrayImpl@dpi@@UAEOH@Z 10024340 f   dpiDateTimeArrayImpl.obj
 0001:000234f0       ?setDateTime@DateTimeArrayImpl@dpi@@UAEXHO@Z 100244f0 f   dpiDateTimeArrayImpl.obj
 0001:000236b0       ?initBaseDate@DateTimeArrayImpl@dpi@@SAXPAUOCIEnv@@@Z 100246b0 f   dpiDateTimeArrayImpl.obj
 0001:000237a0       ??1SPool@dpi@@MAE@XZ       100247a0 f i dpiPoolImpl.obj
 0001:000237b0       ??_ESPool@dpi@@MAEPAXI@Z   100247b0 f i * CIL library *:* CIL module *
 0001:000237b0       ??_GSPool@dpi@@MAEPAXI@Z   100247b0 f i dpiPoolImpl.obj
 0001:000237d0       ??0PoolImpl@@QAE@PAVEnvImpl@@PAUOCIEnv@@ABV?$basic_string@DU?$char_traits@D@std@@V?$allocator@D@2@@std@@22HHHH_NH3H@Z 100247d0 f   dpiPoolImpl.obj
 0001:00023ac0       ??_GPoolImpl@@UAEPAXI@Z    10024ac0 f i dpiPoolImpl.obj
 0001:00023ac0       ??_EPoolImpl@@UAEPAXI@Z    10024ac0 f i * CIL library *:* CIL module *
 0001:00023af0       ?terminate@PoolImpl@@UAEXXZ 10024af0 f   dpiPoolImpl.obj
 0001:00023b30       ?poolTimeout@PoolImpl@@UAEXI@Z 10024b30 f   dpiPoolImpl.obj
 0001:00023b60       ?stmtCacheSize@PoolImpl@@UAEXI@Z 10024b60 f   dpiPoolImpl.obj
 0001:00023b90       ?connectionsOpen@PoolImpl@@UBEIXZ 10024b90 f   dpiPoolImpl.obj
 0001:00023bd0       ?connectionsInUse@PoolImpl@@UBEIXZ 10024bd0 f   dpiPoolImpl.obj
 0001:00023c10       ?getConnection@PoolImpl@@UAEPAVConn@dpi@@ABV?$basic_string@DU?$char_traits@D@std@@V?$allocator@D@2@@std@@000HW4DBPrivileges@3@@Z 10024c10 f   dpiPoolImpl.obj
 0001:00023cb0       ?cleanup@PoolImpl@@AAEXXZ  10024cb0 f   dpiPoolImpl.obj
 0001:00023d20       ??1Stmt@dpi@@UAE@XZ        10024d20 f i dpiStmtImpl.obj
 0001:00023d30       ??_EStmt@dpi@@UAEPAXI@Z    10024d30 f i * CIL library *:* CIL module *
 0001:00023d30       ??_GStmt@dpi@@UAEPAXI@Z    10024d30 f i dpiStmtImpl.obj
 0001:00023d50       ??0StmtImpl@@QAE@PAUOCIEnv@@PAVConnImpl@@PAUOCISvcCtx@@ABV?$basic_string@DU?$char_traits@D@std@@V?$allocator@D@2@@std@@@Z 10024d50 f   dpiStmtImpl.obj
 0001:00023e80       ??_EStmtImpl@@UAEPAXI@Z    10024e80 f i * CIL library *:* CIL module *
 0001:00023e80       ??_GStmtImpl@@UAEPAXI@Z    10024e80 f i dpiStmtImpl.obj
 0001:00023ef0       ?stmtType@StmtImpl@@UBE?AW4DpiStmtType@dpi@@XZ 10024ef0 f   dpiStmtImpl.obj
 0001:00023f30       ?rowsAffected@StmtImpl@@UBE_KXZ 10024f30 f   dpiStmtImpl.obj
 0001:00023f80       ?numCols@StmtImpl@@UAEIXZ  10024f80 f   dpiStmtImpl.obj
 0001:00023fc0       ?prefetchRows@StmtImpl@@UAEXI@Z 10024fc0 f   dpiStmtImpl.obj
 0001:00023ff0       ?bind@StmtImpl@@UAEXIGPAX_JPAFPAII3PAUDpiBindCallbackCtx@dpi@@@Z 10024ff0 f   dpiStmtImpl.obj
 0001:000240f0       ?bind@StmtImpl@@UAEXPBEHIGPAX_JPAFPAII4PAUDpiBindCallbackCtx@dpi@@@Z 100250f0 f   dpiStmtImpl.obj
 0001:000241f0       ?execute@StmtImpl@@UAEXH_N@Z 100251f0 f   dpiStmtImpl.obj
 0001:00024230       ?release@StmtImpl@@UAEXXZ  10025230 f   dpiStmtImpl.obj
 0001:00024240       ?define@StmtImpl@@UAEXIGPAX_JPAFPAIPAUDpiDefineCallbackCtx@dpi@@@Z 10025240 f   dpiStmtImpl.obj
 0001:00024320       ?fetch@StmtImpl@@UAEXI@Z   10025320 f   dpiStmtImpl.obj
 0001:00024360       ?rowsFetched@StmtImpl@@UBEIXZ 10025360 f   dpiStmtImpl.obj
 0001:000243a0       ?getMetaData@StmtImpl@@UAEPBUMetaData@dpi@@_N@Z 100253a0 f   dpiStmtImpl.obj
 0001:00024710       ?cleanup@StmtImpl@@AAEXXZ  10025710 f   dpiStmtImpl.obj
 0001:00024790       ?inbindCallback@StmtImpl@@SAHPAXPAUOCIBind@@IIPAPAXPAIPAE2@Z 10025790 f   dpiStmtImpl.obj
 0001:000247d0       ?outbindCallback@StmtImpl@@SAHPAXPAUOCIBind@@IIPAPAXPAPAIPAE2PAPAG@Z 100257d0 f   dpiStmtImpl.obj
 0001:00024890       ?defineCallback@StmtImpl@@SAHPAXPAUOCIDefine@@IPAPAXPAPAIPAE2PAPAG@Z 10025890 f   dpiStmtImpl.obj
 0001:000248d0       ?isReturning@StmtImpl@@UAE_NXZ 100258d0 f   dpiStmtImpl.obj
 0001:00024930       ?getState@StmtImpl@@UAEIXZ 10025930 f   dpiStmtImpl.obj
 0001:00024a50       ?read@Lob@dpi@@SAXPAUDpiHandle@2@0PAUDescriptor@2@AA_K2_KPAX3@Z 10025a50 f   dpiLob.obj
 0001:00024ab0       ?write@Lob@dpi@@SAXPAUDpiHandle@2@0PAUDescriptor@2@AA_K2_KPAX3@Z 10025ab0 f   dpiLob.obj
 0001:00024b5b       __imp_load_?FatalException@node@@YAXPAVIsolate@v8@@ABVTryCatch@3@@Z 10025b5b f   node:node.exe
 0001:00024b65       __tailMerge_node_exe       10025b65 f i node:node.exe
 0001:00024b76       __imp_load__node_module_register 10025b76 f   node:node.exe
 0001:00024b80       __imp_load_?MakeCallback@node@@YA?AV?$Local@VValue@v8@@@v8@@PAVIsolate@3@V?$Local@VObject@v8@@@3@V?$Local@VFunction@v8@@@3@HPAV23@@Z 10025b80 f   node:node.exe
 0001:00024b8a       __imp_load__uv_default_loop 10025b8a f   node:node.exe
 0001:00024b94       __imp_load_?HasCaught@TryCatch@v8@@QBE_NXZ 10025b94 f   node:node.exe
 0001:00024b9e       __imp_load_??1TryCatch@v8@@QAE@XZ 10025b9e f   node:node.exe
 0001:00024ba8       __imp_load_??0TryCatch@v8@@QAE@PAVIsolate@1@@Z 10025ba8 f   node:node.exe
 0001:00024bb2       __imp_load_?New@Signature@v8@@SA?AV?$Local@VSignature@v8@@@2@PAVIsolate@2@V?$Local@VFunctionTemplate@v8@@@2@@Z 10025bb2 f   node:node.exe
 0001:00024bbc       __imp_load_?Global@Context@v8@@QAE?AV?$Local@VObject@v8@@@2@XZ 10025bbc f   node:node.exe
 0001:00024bc6       __imp_load_?ToLocalEmpty@V8@v8@@CAXXZ 10025bc6 f   node:node.exe
 0001:00024bd0       __imp_load_?FromJustIsNothing@V8@v8@@CAXXZ 10025bd0 f   node:node.exe
 0001:00024bda       __imp_load_?ClearWeak@V8@v8@@CAPAXPAPAVObject@internal@2@@Z 10025bda f   node:node.exe
 0001:00024be4       __imp_load_?MakeWeak@V8@v8@@CAXPAPAVObject@internal@2@PAXP6AXABV?$WeakCallbackInfo@X@2@@ZW4WeakCallbackType@2@@Z 10025be4 f   node:node.exe
 0001:00024bee       __imp_load_?DisposeGlobal@V8@v8@@CAXPAPAVObject@internal@2@@Z 10025bee f   node:node.exe
 0001:00024bf8       __imp_load_?GlobalizeReference@V8@v8@@CAPAPAVObject@internal@2@PAVIsolate@42@PAPAV342@@Z 10025bf8 f   node:node.exe
 0001:00024c02       __imp_load_?Escape@EscapableHandleScope@v8@@AAEPAPAVObject@internal@2@PAPAV342@@Z 10025c02 f   node:node.exe
 0001:00024c0c       __imp_load_??0EscapableHandleScope@v8@@QAE@PAVIsolate@1@@Z 10025c0c f   node:node.exe
 0001:00024c16       __imp_load_?Int32Value@Value@v8@@QBE?AV?$Maybe@H@2@V?$Local@VContext@v8@@@2@@Z 10025c16 f   node:node.exe
 0001:00024c20       __imp_load_?Uint32Value@Value@v8@@QBE?AV?$Maybe@I@2@V?$Local@VContext@v8@@@2@@Z 10025c20 f   node:node.exe
 0001:00024c2a       __imp_load_?ToInteger@Value@v8@@QBE?AV?$MaybeLocal@VInteger@v8@@@2@V?$Local@VContext@v8@@@2@@Z 10025c2a f   node:node.exe
 0001:00024c34       __imp_load_?IsUint32@Value@v8@@QBE_NXZ 10025c34 f   node:node.exe
 0001:00024c3e       __imp_load_?IsInt32@Value@v8@@QBE_NXZ 10025c3e f   node:node.exe
 0001:00024c48       __imp_load_?IsNumber@Value@v8@@QBE_NXZ 10025c48 f   node:node.exe
 0001:00024c52       __imp_load_?IsObject@Value@v8@@QBE_NXZ 10025c52 f   node:node.exe
 0001:00024c5c       __imp_load_?IsArray@Value@v8@@QBE_NXZ 10025c5c f   node:node.exe
 0001:00024c66       __imp_load_?IsFunction@Value@v8@@QBE_NXZ 10025c66 f   node:node.exe
 0001:00024c70       __imp_load_?SetClassName@FunctionTemplate@v8@@QAEXV?$Local@VString@v8@@@2@@Z 10025c70 f   node:node.exe
 0001:00024c7a       __imp_load_?PrototypeTemplate@FunctionTemplate@v8@@QAE?AV?$Local@VObjectTemplate@v8@@@2@XZ 10025c7a f   node:node.exe
 0001:00024c84       __imp_load_?InstanceTemplate@FunctionTemplate@v8@@QAE?AV?$Local@VObjectTemplate@v8@@@2@XZ 10025c84 f   node:node.exe
 0001:00024c8e       __imp_load_?GetFunction@FunctionTemplate@v8@@QAE?AV?$Local@VFunction@v8@@@2@XZ 10025c8e f   node:node.exe
 0001:00024c98       __imp_load_?GetFunction@FunctionTemplate@v8@@QAE?AV?$MaybeLocal@VFunction@v8@@@2@V?$Local@VContext@v8@@@2@@Z 10025c98 f   node:node.exe
 0001:00024ca2       __imp_load_?New@FunctionTemplate@v8@@SA?AV?$Local@VFunctionTemplate@v8@@@2@PAVIsolate@2@P6AXABV?$FunctionCallbackInfo@VValue@v8@@@2@@ZV?$Local@VValue@v8@@@2@V?$Local@VSignature@v8@@@2@H@Z 10025ca2 f   node:node.exe
 0001:00024cac       __imp_load_?Error@Exception@v8@@SA?AV?$Local@VValue@v8@@@2@V?$Local@VString@v8@@@2@@Z 10025cac f   node:node.exe
 0001:00024cb6       __imp_load_??1Utf8Value@String@v8@@QAE@XZ 10025cb6 f   node:node.exe
 0001:00024cc0       __imp_load_??0Utf8Value@String@v8@@QAE@V?$Local@VValue@v8@@@2@@Z 10025cc0 f   node:node.exe
 0001:00024cca       __imp_load_?NewFromUtf8@String@v8@@SA?AV?$MaybeLocal@VString@v8@@@2@PAVIsolate@2@PBDW4NewStringType@2@H@Z 10025cca f   node:node.exe
 0001:00024cd4       __imp_load_?New@Array@v8@@SA?AV?$Local@VArray@v8@@@2@PAVIsolate@2@H@Z 10025cd4 f   node:node.exe
 0001:00024cde       __imp_load_?Length@Array@v8@@QBEIXZ 10025cde f   node:node.exe
 0001:00024ce8       __imp_load_?CreateHandle@HandleScope@v8@@KAPAPAVObject@internal@2@PAVIsolate@42@PAV342@@Z 10025ce8 f   node:node.exe
 0001:00024cf2       __imp_load_?CreateHandle@HandleScope@v8@@CAPAPAVObject@internal@2@PAVHeapObject@42@PAV342@@Z 10025cf2 f   node:node.exe
 0001:00024cfc       __imp_load_??1HandleScope@v8@@QAE@XZ 10025cfc f   node:node.exe
 0001:00024d06       __imp_load_??0HandleScope@v8@@QAE@PAVIsolate@1@@Z 10025d06 f   node:node.exe
 0001:00024d10       __imp_load_?Value@Boolean@v8@@QBE_NXZ 10025d10 f   node:node.exe
 0001:00024d1a       __imp_load_?SlowGetAlignedPointerFromInternalField@Object@v8@@AAEPAXH@Z 10025d1a f   node:node.exe
 0001:00024d24       __imp_load_?SlowGetInternalField@Object@v8@@AAE?AV?$Local@VValue@v8@@@2@H@Z 10025d24 f   node:node.exe
 0001:00024d2e       __imp_load_?SetAlignedPointerInInternalField@Object@v8@@QAEXHPAX@Z 10025d2e f   node:node.exe
 0001:00024d38       __imp_load_?SetInternalField@Object@v8@@QAEXHV?$Local@VValue@v8@@@2@@Z 10025d38 f   node:node.exe
 0001:00024d42       __imp_load_?InternalFieldCount@Object@v8@@QAEHXZ 10025d42 f   node:node.exe
 0001:00024d4c       __imp_load_?Get@Object@v8@@QAE?AV?$Local@VValue@v8@@@2@V32@@Z 10025d4c f   node:node.exe
 0001:00024d56       __imp_load_?Get@Object@v8@@QAE?AV?$Local@VValue@v8@@@2@I@Z 10025d56 f   node:node.exe
 0001:00024d60       __imp_load_?Set@Object@v8@@QAE?AV?$Maybe@_N@2@V?$Local@VContext@v8@@@2@V?$Local@VValue@v8@@@2@1@Z 10025d60 f   node:node.exe
 0001:00024d6a       __imp_load_?Set@Object@v8@@QAE_NIV?$Local@VValue@v8@@@2@@Z 10025d6a f   node:node.exe
 0001:00024d74       __imp_load_?Set@Template@v8@@QAEXV?$Local@VName@v8@@@2@V?$Local@VData@v8@@@2@W4PropertyAttribute@2@@Z 10025d74 f   node:node.exe
 0001:00024d7e       __imp_load_?SetInternalFieldCount@ObjectTemplate@v8@@QAEXH@Z 10025d7e f   node:node.exe
 0001:00024d88       __imp_load_?SetAccessor@ObjectTemplate@v8@@QAEXV?$Local@VName@v8@@@2@P6AX0ABV?$PropertyCallbackInfo@VValue@v8@@@2@@ZP6AX0V?$Local@VValue@v8@@@2@ABV?$PropertyCallbackInfo@X@2@@Z3W4AccessControl@2@W4PropertyAttribute@2@V?$Local@VAccessorSignature@v8@@@2@@Z 10025d88 f   node:node.exe
 0001:00024d92       __imp_load_?NewInstance@ObjectTemplate@v8@@QAE?AV?$MaybeLocal@VObject@v8@@@2@V?$Local@VContext@v8@@@2@@Z 10025d92 f   node:node.exe
 0001:00024d9c       __imp_load_?New@ObjectTemplate@v8@@SA?AV?$Local@VObjectTemplate@v8@@@2@PAVIsolate@2@V?$Local@VFunctionTemplate@v8@@@2@@Z 10025d9c f   node:node.exe
 0001:00024da6       __imp_load_?NewFromUnsigned@Integer@v8@@SA?AV?$Local@VInteger@v8@@@2@PAVIsolate@2@I@Z 10025da6 f   node:node.exe
 0001:00024db0       __imp_load_?New@Integer@v8@@SA?AV?$Local@VInteger@v8@@@2@PAVIsolate@2@H@Z 10025db0 f   node:node.exe
 0001:00024dba       __imp_load_?ThrowException@Isolate@v8@@QAE?AV?$Local@VValue@v8@@@2@V32@@Z 10025dba f   node:node.exe
 0001:00024dc4       __imp_load_?GetCurrentContext@Isolate@v8@@QAE?AV?$Local@VContext@v8@@@2@XZ 10025dc4 f   node:node.exe
 0001:00024dce       __imp_load_?GetCurrent@Isolate@v8@@SAPAV12@XZ 10025dce f   node:node.exe
 0001:00024dd8       __imp_load_?Value@External@v8@@QBEPAXXZ 10025dd8 f   node:node.exe
 0001:00024de2       __imp_load_?New@External@v8@@SA?AV?$Local@VExternal@v8@@@2@PAVIsolate@2@PAX@Z 10025de2 f   node:node.exe
 0001:00024dec       __imp_load__uv_queue_work  10025dec f   node:node.exe
 0001:00024df6       __imp_load_?ToObject@Value@v8@@QBE?AV?$Local@VObject@v8@@@2@XZ 10025df6 f   node:node.exe
 0001:00024e00       __imp_load_?ToString@Value@v8@@QBE?AV?$Local@VString@v8@@@2@XZ 10025e00 f   node:node.exe
 0001:00024e0a       __imp_load_?ToBoolean@Value@v8@@QBE?AV?$Local@VBoolean@v8@@@2@XZ 10025e0a f   node:node.exe
 0001:00024e14       __imp_load_?NewInstance@Function@v8@@QBE?AV?$MaybeLocal@VObject@v8@@@2@V?$Local@VContext@v8@@@2@@Z 10025e14 f   node:node.exe
 0001:00024e1e       __imp_load_?length@Utf8Value@String@v8@@QBEHXZ 10025e1e f   node:node.exe
 0001:00024e28       __imp_load_??DUtf8Value@String@v8@@QAEPADXZ 10025e28 f   node:node.exe
 0001:00024e32       __imp_load_??1EscapableHandleScope@v8@@QAE@XZ 10025e32 f   node:node.exe
 0001:00024e3c       __imp_load_?Length@Buffer@node@@YAIV?$Local@VObject@v8@@@v8@@@Z 10025e3c f   node:node.exe
 0001:00024e46       __imp_load_?Data@Buffer@node@@YAPADV?$Local@VObject@v8@@@v8@@@Z 10025e46 f   node:node.exe
 0001:00024e50       __imp_load_?HasInstance@Buffer@node@@YA_NV?$Local@VValue@v8@@@v8@@@Z 10025e50 f   node:node.exe
 0001:00024e5a       __imp_load_?HasInstance@Buffer@node@@YA_NV?$Local@VObject@v8@@@v8@@@Z 10025e5a f   node:node.exe
 0001:00024e64       __imp_load_?Copy@Buffer@node@@YA?AV?$MaybeLocal@VObject@v8@@@v8@@PAVIsolate@4@PBDI@Z 10025e64 f   node:node.exe
 0001:00024e6e       __imp_load_?New@Date@v8@@SA?AV?$MaybeLocal@VValue@v8@@@2@V?$Local@VContext@v8@@@2@N@Z 10025e6e f   node:node.exe
 0001:00024e78       __imp_load_?NumberValue@Value@v8@@QBENXZ 10025e78 f   node:node.exe
 0001:00024e82       __imp_load_?IsDate@Value@v8@@QBE_NXZ 10025e82 f   node:node.exe
 0001:00024e8c       __imp_load_?New@Number@v8@@SA?AV?$Local@VNumber@v8@@@2@PAVIsolate@2@N@Z 10025e8c f   node:node.exe
 0001:00024e96       __imp_load_?New@Object@v8@@SA?AV?$Local@VObject@v8@@@2@PAVIsolate@2@@Z 10025e96 f   node:node.exe
 0001:00024ea0       __imp_load_?GetOwnPropertyNames@Object@v8@@QAE?AV?$Local@VArray@v8@@@2@XZ 10025ea0 f   node:node.exe
 0001:00024eaa       __imp_load_?ForceSet@Object@v8@@QAE?AV?$Maybe@_N@2@V?$Local@VContext@v8@@@2@V?$Local@VValue@v8@@@2@1W4PropertyAttribute@2@@Z 10025eaa f   node:node.exe
 0001:00024eb4       __imp_load_?Set@Object@v8@@QAE?AV?$Maybe@_N@2@V?$Local@VContext@v8@@@2@IV?$Local@VValue@v8@@@2@@Z 10025eb4 f   node:node.exe
 0001:00024ebe       __imp_load_?Call@Function@v8@@QAE?AV?$Local@VValue@v8@@@2@V32@HQAV32@@Z 10025ebe f   node:node.exe
 0001:00024ec8       __imp_load_?HasInstance@FunctionTemplate@v8@@QAE_NV?$Local@VValue@v8@@@2@@Z 10025ec8 f   node:node.exe
 0001:00024ed2       __Getcvt                   10025ed2 f   libcpmt:xwctomb.obj
 0001:00024f3b       ??0_Locimp@locale@std@@AAE@_N@Z 10025f3b f i libcpmt:locale0.obj
 0001:00024f78       ??1_Fac_node@std@@QAE@XZ   10025f78 f i libcpmt:locale0.obj
 0001:00024f8d       ??1_Fac_tidy_reg_t@std@@QAE@XZ 10025f8d f i libcpmt:locale0.obj
 0001:00024fb1       ??1_Locimp@locale@std@@MAE@XZ 10025fb1 f i libcpmt:locale0.obj
 0001:00024fdc       ??4?$_Yarn@D@std@@QAEAAV01@PBD@Z 10025fdc f i libcpmt:locale0.obj
 0001:00025030       ??_E_Locimp@locale@std@@MAEPAXI@Z 10026030 f i libcpmt:locale0.obj
 0001:00025030       ??_G_Locimp@locale@std@@MAEPAXI@Z 10026030 f i libcpmt:locale0.obj
 0001:0002504f       ?_Facet_Register@std@@YAXPAV_Facet_base@1@@Z 1002604f f   libcpmt:locale0.obj
 0001:00025077       ?_Getgloballocale@locale@std@@CAPAV_Locimp@12@XZ 10026077 f   libcpmt:locale0.obj
 0001:0002507d       ?_Init@locale@std@@CAPAV_Locimp@12@_N@Z 1002607d f   libcpmt:locale0.obj
 0001:000250f9       ?_Locimp_dtor@_Locimp@locale@std@@CAXPAV123@@Z 100260f9 f   libcpmt:locale0.obj
 0001:00025152       ?_Locinfo_ctor@_Locinfo@std@@SAXPAV12@PBD@Z 10026152 f   libcpmt:locale0.obj
 0001:0002519d       ?_Locinfo_dtor@_Locinfo@std@@SAXPAV12@@Z 1002619d f   libcpmt:locale0.obj
 0001:000251bf       ?_New_Locimp@_Locimp@locale@std@@CAPAV123@_N@Z 100261bf f   libcpmt:locale0.obj
 0001:000251de       ?_Setgloballocale@locale@std@@CAXPAX@Z 100261de f   libcpmt:locale0.obj
 0001:00025206       __Deletegloballocale       10026206 f   libcpmt:locale0.obj
 0001:00025251       ?_Callfns@ios_base@std@@AAEXW4event@12@@Z 10026251 f i libcpmt:ios.obj
 0001:00025276       ?_Ios_base_dtor@ios_base@std@@CAXPAV12@@Z 10026276 f   libcpmt:ios.obj
 0001:000252b3       ?_Tidy@ios_base@std@@AAEXXZ 100262b3 f i libcpmt:ios.obj
 0001:000252f5       ??0bad_alloc@std@@QAE@ABV01@@Z 100262f5 f i libcpmt:xthrow.obj
 0001:00025310       ??0length_error@std@@QAE@ABV01@@Z 10026310 f i libcpmt:xthrow.obj
 0001:0002532b       ??0logic_error@std@@QAE@ABV01@@Z 1002632b f i libcpmt:xthrow.obj
 0001:00025346       ??0out_of_range@std@@QAE@ABV01@@Z 10026346 f i libcpmt:xthrow.obj
 0001:00025361       ??1bad_alloc@std@@UAE@XZ   10026361 f i libcpmt:xthrow.obj
 0001:0002536c       ??1length_error@std@@UAE@XZ 1002636c f i libcpmt:xthrow.obj
 0001:0002536c       ??1out_of_range@std@@UAE@XZ 1002636c f i libcpmt:xthrow.obj
 0001:00025371       ??_Gbad_alloc@std@@UAEPAXI@Z 10026371 f i libcpmt:xthrow.obj
 0001:00025371       ??_Ebad_alloc@std@@UAEPAXI@Z 10026371 f i libcpmt:xthrow.obj
 0001:00025396       ??_Elength_error@std@@UAEPAXI@Z 10026396 f i libcpmt:xthrow.obj
 0001:00025396       ??_Gout_of_range@std@@UAEPAXI@Z 10026396 f i libcpmt:xthrow.obj
 0001:00025396       ??_Glength_error@std@@UAEPAXI@Z 10026396 f i libcpmt:xthrow.obj
 0001:00025396       ??_Elogic_error@std@@UAEPAXI@Z 10026396 f i libcpmt:xthrow.obj
 0001:00025396       ??_Glogic_error@std@@UAEPAXI@Z 10026396 f i libcpmt:xthrow.obj
 0001:00025396       ??_Eout_of_range@std@@UAEPAXI@Z 10026396 f i libcpmt:xthrow.obj
 0001:000253b5       ?_Xbad_alloc@std@@YAXXZ    100263b5 f   libcpmt:xthrow.obj
 0001:000253e6       ?_Xlength_error@std@@YAXPBD@Z 100263e6 f   libcpmt:xthrow.obj
 0001:00025414       ?_Xout_of_range@std@@YAXPBD@Z 10026414 f   libcpmt:xthrow.obj
 0001:00025442       ??0_Init_locks@std@@QAE@XZ 10026442 f   libcpmt:xlock.obj
 0001:00025470       ??0_Lockit@std@@QAE@H@Z    10026470 f   libcpmt:xlock.obj
 0001:000254a3       ??1_Init_locks@std@@QAE@XZ 100264a3 f   libcpmt:xlock.obj
 0001:000254cb       ??1_Lockit@std@@QAE@XZ     100264cb f   libcpmt:xlock.obj
 0001:000254ef       ??_U@YAPAXI@Z              100264ef f   libcpmt:newaop.obj
 0001:000254f8       __Getctype                 100264f8 f   libcpmt:_tolower.obj
 0001:00025564       __Tolower                  10026564 f   libcpmt:_tolower.obj
 0001:00025663       __Toupper                  10026663 f   libcpmt:_toupper.obj
 0001:00025762       ?setw@std@@YA?AU?$_Smanip@_J@1@_J@Z 10026762 f   libcpmt:iomanip.obj
 0001:00025790       ??1_Init_atexit@@QAE@XZ    10026790 f i libcpmt:iosptrs.obj
 0001:000257b9       ?_Atexit@@YAXP6AXXZ@Z      100267b9 f   libcpmt:iosptrs.obj
 0001:000257e7       __Mtxdst                   100267e7 f   libcpmt:xmtx.obj
 0001:000257f5       __Mtxinit                  100267f5 f   libcpmt:xmtx.obj
 0001:0002580c       __Mtxlock                  1002680c f   libcpmt:xmtx.obj
 0001:0002581a       __Mtxunlock                1002681a f   libcpmt:xmtx.obj
 0001:00025828       @__security_check_cookie@4 10026828 f   LIBCMT:secchk.obj
 0001:00025837       __set_abort_behavior       10026837 f   LIBCMT:abort.obj
 0001:00025856       _abort                     10026856 f   LIBCMT:abort.obj
 0001:00025899       __call_reportfault         10026899 f   LIBCMT:invarg.obj
 0001:000259be       __initp_misc_invarg        100269be f   LIBCMT:invarg.obj
 0001:000259cb       __invalid_parameter        100269cb f   LIBCMT:invarg.obj
 0001:000259f6       __invalid_parameter_noinfo 100269f6 f   LIBCMT:invarg.obj
 0001:00025a06       __invoke_watson            10026a06 f   LIBCMT:invarg.obj
 0001:00025a31       _sprintf_s                 10026a31 f   LIBCMT:sprintf.obj
 0001:00025a50       _memmove                   10026a50 f   LIBCMT:memmove.obj
 0001:00026094       _free                      10027094 f   LIBCMT:free.obj
 0001:000260cc       _malloc                    100270cc f   LIBCMT:malloc.obj
 0001:0002615e       _localeconv                1002715e f   LIBCMT:lconv.obj
 0001:00026184       __wassert                  10027184 f   LIBCMT:wassert.obj
 0001:00026828       ___onexitinit              10027828 f   LIBCMT:onexit.obj
 0001:00026857       __onexit                   10027857 f   LIBCMT:onexit.obj
 0001:00026953       _atexit                    10027953 f   LIBCMT:onexit.obj
 0001:00026968       ??_V@YAXPAX@Z              10027968 f   LIBCMT:delete2.obj
 0001:0002696d       __purecall                 1002796d f   LIBCMT:purevirt.obj
 0001:0002698f       ??3@YAXPAX@Z               1002798f f   LIBCMT:delete.obj
 0001:000269a0       _strcspn                   100279a0 f   LIBCMT:strcspn.obj
 0001:000269e6       ??1type_info@@UAE@XZ       100279e6 f   LIBCMT:typinfo.obj
 0001:000269f4       ??8type_info@@QBE_NABV0@@Z 100279f4 f   LIBCMT:typinfo.obj
 0001:00026a12       ??_Etype_info@@UAEPAXI@Z   10027a12 f i LIBCMT:typinfo.obj
 0001:00026a12       ??_Gtype_info@@UAEPAXI@Z   10027a12 f i LIBCMT:typinfo.obj
 0001:00026a31       ??2@YAPAXI@Z               10027a31 f   LIBCMT:new.obj
 0001:00026a82       ??_M@YGXPAXIHP6EX0@Z@Z     10027a82 f   LIBCMT:ehvecdtr.obj
 0001:00026af1       ?__ArrayUnwind@@YGXPAXIHP6EX0@Z@Z 10027af1 f   LIBCMT:ehvecdtr.obj
 0001:00026b4f       ??_L@YGXPAXIHP6EX0@Z1@Z    10027b4f f   LIBCMT:ehvecctr.obj
 0001:00026bb1       _realloc                   10027bb1 f   LIBCMT:realloc.obj
 0001:00026c5c       ___raise_securityfailure   10027c5c f   LIBCMT:gs_report.obj
 0001:00026c99       ___report_gsfailure        10027c99 f   LIBCMT:gs_report.obj
 0001:00026d94       ___report_rangecheckfailure 10027d94 f   LIBCMT:gs_report.obj
 0001:00026da0       ___report_securityfailure  10027da0 f   LIBCMT:gs_report.obj
 0001:00026e70       __time64                   10027e70 f   LIBCMT:time64.obj
 0001:00026ec1       ??0_LocaleUpdate@@QAE@PAUlocaleinfo_struct@@@Z 10027ec1 f i LIBCMT:stricmp.obj
 0001:00026f49       ___ascii_stricmp           10027f49 f   LIBCMT:stricmp.obj
 0001:00026f82       __stricmp                  10027f82 f   LIBCMT:stricmp.obj
 0001:00026fc9       __stricmp_l                10027fc9 f   LIBCMT:stricmp.obj
 0001:0002705e       __CRT_INIT@12              1002805e f   LIBCMT:dllcrt0.obj
 0001:000271d0       __DllMainCRTStartup@12     100281d0 f   LIBCMT:dllcrt0.obj
 0001:00027301       ___DllXcptFilter           10028301 f   LIBCMT:dllcrt0.obj
 0001:00027326       ____lc_codepage_func       10028326 f   LIBCMT:initctyp.obj
 0001:0002734c       ____lc_locale_name_func    1002834c f   LIBCMT:initctyp.obj
 0001:00027374       ____mb_cur_max_func        10028374 f   LIBCMT:initctyp.obj
 0001:0002739a       ___init_ctype              1002839a f   LIBCMT:initctyp.obj
 0001:00027732       ___doserrno                10028732 f   LIBCMT:dosmap.obj
 0001:00027745       __dosmaperr                10028745 f   LIBCMT:dosmap.obj
 0001:00027766       __errno                    10028766 f   LIBCMT:dosmap.obj
 0001:00027779       __get_errno_from_oserr     10028779 f   LIBCMT:dosmap.obj
 0001:00027814       __ismbblead                10028814 f   LIBCMT:ismbbyte.obj
 0001:00027830       _memcpy                    10028830 f   LIBCMT:memcpy.obj
 0001:00027e80       _strlen                    10028e80 f   LIBCMT:strlen.obj
 0001:00027f0b       __CxxThrowException@8      10028f0b f   LIBCMT:throw.obj
 0001:00027f6e       __EH_epilog3               10028f6e f   LIBCMT:ehprolg3.obj
 0001:00027f82       __EH_prolog3               10028f82 f   LIBCMT:ehprolg3.obj
 0001:00027fb5       __EH_prolog3_catch         10028fb5 f   LIBCMT:ehprolg3.obj
 0001:000280bb       ?_CallCatchBlock2@@YAPAXPAUEHRegistrationNode@@PBU_s_FuncInfo@@PAXHK@Z 100290bb f   LIBCMT:_trnsctrl_.obj
 0001:0002811b       ?_CallMemberFunction2@@YGXPAX00H@Z 1002911b f   LIBCMT:_trnsctrl_.obj
 0001:0002811b       ?_CallMemberFunction0@@YGXPAX0@Z 1002911b f   LIBCMT:_trnsctrl_.obj
 0001:0002811b       ?_CallMemberFunction1@@YGXPAX00@Z 1002911b f   LIBCMT:_trnsctrl_.obj
 0001:00028122       ?_CallSETranslator@@YAHPAUEHExceptionRecord@@PAUEHRegistrationNode@@PAX2PBU_s_FuncInfo@@H1@Z 10029122 f   LIBCMT:_trnsctrl_.obj
 0001:000281f9       ?_GetRangeOfTrysToCheck@@YAPBU_s_TryBlockMapEntry@@PBU_s_FuncInfo@@HHPAI1@Z 100291f9 f   LIBCMT:_trnsctrl_.obj
 0001:00028277       ?_JumpToContinuation@@YGXPAXPAUEHRegistrationNode@@@Z 10029277 f   LIBCMT:_trnsctrl_.obj
 0001:000282a9       ?_UnwindNestedFrames@@YGXPAUEHRegistrationNode@@PAUEHExceptionRecord@@@Z 100292a9 f   LIBCMT:_trnsctrl_.obj
 0001:000282fe       __CreateFrameInfo          100292fe f   LIBCMT:_trnsctrl_.obj
 0001:00028328       __FindAndUnlinkFrame       10029328 f   LIBCMT:_trnsctrl_.obj
 0001:00028378       __IsExceptionObjectToBeDestroyed 10029378 f   LIBCMT:_trnsctrl_.obj
 0001:000283a1       ___CxxFrameHandler3        100293a1 f   LIBCMT:_trnsctrl_.obj
 0001:000283d7       __fpmath                   100293d7 f   LIBCMT:fpinit.obj
 0001:000283ee       __cfltcvt_init             100293ee f   LIBCMT:fpinit.obj
 0001:0002844e       _setlocale                 1002944e f   LIBCMT:setlocal.obj
 0001:00028632       ??0exception@std@@QAE@ABQBD@Z 10029632 f   LIBCMT:stdexcpt.obj
 0001:00028657       ??0exception@std@@QAE@ABQBDH@Z 10029657 f   LIBCMT:stdexcpt.obj
 0001:00028672       ??0exception@std@@QAE@ABV01@@Z 10029672 f   LIBCMT:stdexcpt.obj
 0001:00028695       ??1exception@std@@UAE@XZ   10029695 f   LIBCMT:stdexcpt.obj
 0001:000286a0       ??4exception@std@@QAEAAV01@ABV01@@Z 100296a0 f   LIBCMT:stdexcpt.obj
 0001:000286d3       ??_Eexception@std@@UAEPAXI@Z 100296d3 f i LIBCMT:stdexcpt.obj
 0001:000286d3       ??_Gexception@std@@UAEPAXI@Z 100296d3 f i LIBCMT:stdexcpt.obj
 0001:000286f8       ?_Copy_str@exception@std@@AAEXPBD@Z 100296f8 f   LIBCMT:stdexcpt.obj
 0001:00028736       ?_Tidy@exception@std@@AAEXXZ 10029736 f   LIBCMT:stdexcpt.obj
 0001:00028752       ?what@exception@std@@UBEPBDXZ 10029752 f   LIBCMT:stdexcpt.obj
 0001:0002875f       __lock                     1002975f f   LIBCMT:mlock.obj
 0001:00028793       __mtdeletelocks            10029793 f   LIBCMT:mlock.obj
 0001:000287e7       __mtinitlocknum            100297e7 f   LIBCMT:mlock.obj
 0001:00028890       __mtinitlocks              10029890 f   LIBCMT:mlock.obj
 0001:000288c9       __unlock                   100298c9 f   LIBCMT:mlock.obj
 0001:000288de       ___pctype_func             100298de f   LIBCMT:ctype.obj
 0001:00028907       __isdigit_l                10029907 f i LIBCMT:_ctype.obj
 0001:00028959       __islower_l                10029959 f i LIBCMT:_ctype.obj
 0001:000289ab       __isupper_l                100299ab f i LIBCMT:_ctype.obj
 0001:000289fd       _isdigit                   100299fd f i LIBCMT:_ctype.obj
 0001:00028a28       _islower                   10029a28 f i LIBCMT:_ctype.obj
 0001:00028a53       _isupper                   10029a53 f i LIBCMT:_ctype.obj
 0001:00028a7e       __wcsdup                   10029a7e f   LIBCMT:wcsdup.obj
 0001:00028cd5       ___crtLCMapStringA         10029cd5 f   LIBCMT:a_map.obj
 0001:00028d1b       __freea                    10029d1b f i LIBCMT:a_map.obj
 0001:00028d39       __calloc_crt               10029d39 f   LIBCMT:crtheap.obj
 0001:00028d81       __malloc_crt               10029d81 f   LIBCMT:crtheap.obj
 0001:00028dc8       __realloc_crt              10029dc8 f   LIBCMT:crtheap.obj
 0001:00028e20       _memset                    10029e20 f   LIBCMT:memset.obj
 0001:00028eb0       _strcmp                    10029eb0 f   LIBCMT:strcmp.obj
 0001:00028f3c       ___crtFlsAlloc             10029f3c f   LIBCMT:winapisupp.obj
 0001:00028f5a       ___crtFlsFree              10029f5a f   LIBCMT:winapisupp.obj
 0001:00028f79       ___crtFlsGetValue          10029f79 f   LIBCMT:winapisupp.obj
 0001:00028f98       ___crtFlsSetValue          10029f98 f   LIBCMT:winapisupp.obj
 0001:00028fba       ___crtInitializeCriticalSectionEx 10029fba f   LIBCMT:winapisupp.obj
 0001:00028fe8       ___crtIsPackagedApp        10029fe8 f   LIBCMT:winapisupp.obj
 0001:00029028       ___crtLoadWinApiPointers   1002a028 f   LIBCMT:winapisupp.obj
 0001:000292b3       ___crtSleep                1002a2b3 f   LIBCMT:winapisupp.obj
 0001:000292c1       ___crtTerminateProcess     1002a2c1 f   LIBCMT:winapisupp.obj
 0001:000292d6       ___crtUnhandledException   1002a2d6 f   LIBCMT:winapisupp.obj
 0001:000292ec       _memcpy_s                  1002a2ec f   LIBCMT:memcpy_s.obj
 0001:0002936b       _wcslen                    1002a36b f   LIBCMT:wcslen.obj
 0001:00029384       __tolower_l                1002a384 f   LIBCMT:tolower.obj
 0001:000294c7       _tolower                   1002a4c7 f   LIBCMT:tolower.obj
 0001:00029500       _memchr                    1002a500 f   LIBCMT:memchr.obj
 0001:000295b0       __allmul                   1002a5b0 f   LIBCMT:llmul.obj
 0001:000295f0       __aulldiv                  1002a5f0 f   LIBCMT:ulldiv.obj
 0001:00029658       _memcmp                    1002a658 f   LIBCMT:memcmp.obj
 0001:0002add0       _GetTableIndexFromLcid     1002bdd0 f   LIBCMT:winapinls.obj
 0001:0002ae05       _GetTableIndexFromLocaleName 1002be05 f   LIBCMT:winapinls.obj
 0001:0002ae53       ___crtDownlevelLCIDToLocaleName 1002be53 f   LIBCMT:winapinls.obj
 0001:0002aecf       ___crtDownlevelLocaleNameToLCID 1002becf f   LIBCMT:winapinls.obj
 0001:0002af0d       ___crtEnumSystemLocalesEx  1002bf0d f   LIBCMT:winapinls.obj
 0001:0002af4a       ___crtGetLocaleInfoEx      1002bf4a f   LIBCMT:winapinls.obj
 0001:0002af79       ___crtGetUserDefaultLocaleName 1002bf79 f   LIBCMT:winapinls.obj
 0001:0002afa4       ___crtIsValidLocaleName    1002bfa4 f   LIBCMT:winapinls.obj
 0001:0002afcf       ___crtLCMapStringEx        1002bfcf f   LIBCMT:winapinls.obj
 0001:0002b01b       ___wcsnicmp_ascii          1002c01b f   LIBCMT:winapinls.obj
 0001:0002b089       ___crtLCMapStringW         1002c089 f   LIBCMT:w_map.obj
 0001:0002b0c0       __CIsqrt                   1002c0c0 f   LIBCMT:sqrt.obj
 0001:0002b0d4       _sqrt                      1002c0d4     LIBCMT:sqrt.obj
 0001:0002b17a       ___crtCorExitProcess       1002c17a f   LIBCMT:crt0dat.obj
 0001:0002b1ae       ___crtExitProcess          1002c1ae f   LIBCMT:crt0dat.obj
 0001:0002b1c4       ___freeCrtMemory           1002c1c4 f   LIBCMT:crt0dat.obj
 0001:0002b2d1       __amsg_exit                1002c2d1 f   LIBCMT:crt0dat.obj
 0001:0002b2ed       __cexit                    1002c2ed f   LIBCMT:crt0dat.obj
 0001:0002b2fc       __cinit                    1002c2fc f   LIBCMT:crt0dat.obj
 0001:0002b380       __exit                     1002c380 f   LIBCMT:crt0dat.obj
 0001:0002b394       __init_pointers            1002c394 f   LIBCMT:crt0dat.obj
 0001:0002b402       __initterm_e               1002c402 f   LIBCMT:crt0dat.obj
 0001:0002b424       __lockexit                 1002c424 f   LIBCMT:crt0dat.obj
 0001:0002b42d       __unlockexit               1002c42d f   LIBCMT:crt0dat.obj
 0001:0002b565       ___get_sigabrt             1002c565 f   LIBCMT:winsig.obj
 0001:0002b572       __initp_misc_winsig        1002c572 f   LIBCMT:winsig.obj
 0001:0002b58e       _raise                     1002c58e f   LIBCMT:winsig.obj
 0001:0002b783       __crt_debugger_hook        1002c783 f   LIBCMT:dbghook.obj
 0001:0002b78b       __flsbuf                   1002c78b f   LIBCMT:_flsbuf.obj
 0001:0002b8da       __vsnprintf_helper         1002c8da f   LIBCMT:vsnprnc.obj
 0001:0002b9a4       __vsprintf_s_l             1002c9a4 f   LIBCMT:vsnprnc.obj
 0001:0002ba19       __output_l                 1002ca19 f   LIBCMT:output.obj
 0001:0002c599       ___isa_available_init      1002d599 f   LIBCMT:cpu_disp.obj
 0001:0002c712       __heap_init                1002d712 f   LIBCMT:heapinit.obj
 0001:0002c727       __heap_term                1002d727 f   LIBCMT:heapinit.obj
 0001:0002c72f       __callnewh                 1002d72f f   LIBCMT:handler.obj
 0001:0002c755       __initp_heap_handler       1002d755 f   LIBCMT:handler.obj
 0001:0002c762       __FF_MSGBANNER             1002d762 f   LIBCMT:crt0msg.obj
 0001:0002c79b       __GET_RTERRMSG             1002d79b f   LIBCMT:crt0msg.obj
 0001:0002c7bf       __NMSG_WRITE               1002d7bf f   LIBCMT:crt0msg.obj
 0001:0002c97c       ___addlocaleref            1002d97c f   LIBCMT:localref.obj
 0001:0002ca11       ___freetlocinfo            1002da11 f   LIBCMT:localref.obj
 0001:0002cb6b       ___removelocaleref         1002db6b f   LIBCMT:localref.obj
 0001:0002cc0b       ___updatetlocinfo          1002dc0b f   LIBCMT:localref.obj
 0001:0002cc8b       __updatetlocinfoEx_nolock  1002dc8b f   LIBCMT:localref.obj
 0001:0002ccd6       __freefls@4                1002dcd6 f   LIBCMT:tidtable.obj
 0001:0002ce0b       __freeptd                  1002de0b f   LIBCMT:tidtable.obj
 0001:0002ce41       __getptd                   1002de41 f   LIBCMT:tidtable.obj
 0001:0002ce59       __getptd_noexit            1002de59 f   LIBCMT:tidtable.obj
 0001:0002cec8       __initptd                  1002dec8 f   LIBCMT:tidtable.obj
 0001:0002cf7b       __mtinit                   1002df7b f   LIBCMT:tidtable.obj
 0001:0002cff1       __mtterm                   1002dff1 f   LIBCMT:tidtable.obj
 0001:0002d00e       _wcscat_s                  1002e00e f   LIBCMT:wcscat_s.obj
 0001:0002d07a       _wcscpy_s                  1002e07a f   LIBCMT:wcscpy_s.obj
 0001:0002d0d6       _wcsncat_s                 1002e0d6 f   LIBCMT:wcsncat_s.obj
 0001:0002d1a4       __set_error_mode           1002e1a4 f   LIBCMT:errmode.obj
 0001:0002d1e4       __itow_s                   1002e1e4 f   LIBCMT:xtows.obj
 0001:0002d300       ___initstdio               1002e300 f   LIBCMT:_file.obj
 0001:0002d373       ___endstdio                1002e373 f   LIBCMT:_file.obj
 0001:0002d39a       ___iob_func                1002e39a f   LIBCMT:_file.obj
 0001:0002d3a0       __lock_file                1002e3a0 f   LIBCMT:_file.obj
 0001:0002d3df       __lock_file2               1002e3df f   LIBCMT:_file.obj
 0001:0002d40f       __unlock_file              1002e40f f   LIBCMT:_file.obj
 0001:0002d449       __unlock_file2             1002e449 f   LIBCMT:_file.obj
 0001:0002d476       __fflush_nolock            1002e476 f   LIBCMT:fflush.obj
 0001:0002d4bc       __flush                    1002e4bc f   LIBCMT:fflush.obj
 0001:0002d520       __flushall                 1002e520 f   LIBCMT:fflush.obj
 0001:0002d529       _fflush                    1002e529 f   LIBCMT:fflush.obj
 0001:0002d666       _setvbuf                   1002e666 f   LIBCMT:setvbuf.obj
 0001:0002d76c       _fwprintf                  1002e76c f   LIBCMT:fwprintf.obj
 0001:0002d800       __vswprintf_c_l            1002e800 f   LIBCMT:vswprnc.obj
 0001:0002d828       __vswprintf_helper         1002e828 f   LIBCMT:vswprnc.obj
 0001:0002d923       ___crtMessageBoxW          1002e923 f   LIBCMT:crtmboxw.obj
 0001:0002db09       __msize                    1002eb09 f   LIBCMT:msize.obj
 0001:0002db40       __SEH_prolog4              1002eb40 f   LIBCMT:sehprolg4.obj
 0001:0002db85       __SEH_epilog4              1002eb85 f   LIBCMT:sehprolg4.obj
 0001:0002dba0       __except_handler4          1002eba0 f   LIBCMT:chandler4.obj
 0001:0002dd34       ___getlocaleinfo           1002ed34 f   LIBCMT:inithelp.obj
 0001:0002df0d       __initp_misc_purevirt      1002ef0d f   LIBCMT:inithelp.obj
 0001:0002df1a       __decomp                   1002ef1a f   LIBCMT:util.obj
 0001:0002dfec       __set_exp                  1002efec f   LIBCMT:util.obj
 0001:0002e01b       __errcode                  1002f01b f   LIBCMT:fpexcept.obj
 0001:0002e04d       __except1                  1002f04d f   LIBCMT:fpexcept.obj
 0001:0002e115       __handle_exc               1002f115 f   LIBCMT:fpexcept.obj
 0001:0002e2f3       __raise_exc                1002f2f3 f   LIBCMT:fpexcept.obj
 0001:0002e314       __raise_exc_ex             1002f314 f   LIBCMT:fpexcept.obj
 0001:0002e5f9       __set_errno_from_matherr   1002f5f9 f   LIBCMT:fpexcept.obj
 0001:0002e626       __umatherr                 1002f626 f   LIBCMT:fpexcept.obj
 0001:0002e6c6       ___set_fpsr_sse2           1002f6c6 f   LIBCMT:fpctrl.obj
 0001:0002e73c       __clrfp                    1002f73c f   LIBCMT:fpctrl.obj
 0001:0002e74d       __ctrlfp                   1002f74d f   LIBCMT:fpctrl.obj
 0001:0002e778       __set_statfp               1002f778 f   LIBCMT:fpctrl.obj
 0001:0002e7d0       __statfp                   1002f7d0 f   LIBCMT:fpctrl.obj
 0001:0002e7e0       ?_Type_info_dtor@type_info@@CAXPAV1@@Z 1002f7e0 f   LIBCMT:typname.obj
 0001:0002e851       ?_inconsistency@@YAXXZ     1002f851 f   LIBCMT:hooks.obj
 0001:0002e889       ?terminate@@YAXXZ          1002f889 f   LIBCMT:hooks.obj
 0001:0002e8bd       ?unexpected@@YAXXZ         1002f8bd f   LIBCMT:hooks.obj
 0001:0002e8d0       __initp_eh_hooks           1002f8d0 f   LIBCMT:hooks.obj
 0001:0002e8e1       __vsnprintf                1002f8e1 f   LIBCMT:vsnprint.obj
 0001:0002e8e1       _vsnprintf                 1002f8e1 f   LIBCMT:vsnprint.obj
 0001:0002e8fc       __vsnprintf_l              1002f8fc f   LIBCMT:vsnprint.obj
 0001:0002e9a8       ___initmbctable            1002f9a8 f   LIBCMT:mbctype.obj
 0001:0002ec5f       ___updatetmbcinfo          1002fc5f f   LIBCMT:mbctype.obj
 0001:0002ed05       __setmbcp                  1002fd05 f   LIBCMT:mbctype.obj
 0001:0002eead       __setmbcp_nolock           1002fead f   LIBCMT:mbctype.obj
 0001:0002f098       __locterm                  10030098 f   LIBCMT:wsetloca.obj
 0001:0002f0ea       ___copy_locale_name        100300ea f   LIBCMT:wsetloca.obj
 0001:0002f14e       ___lc_lctowcs              1003014e f   LIBCMT:wsetloca.obj
 0001:0002f1bc       ___lc_wcstolc              100301bc f   LIBCMT:wsetloca.obj
 0001:0002f314       __expandlocale             10030314 f   LIBCMT:wsetloca.obj
 0001:0002f60b       __wcscats                  1003060b f   LIBCMT:wsetloca.obj
 0001:0002f64a       __wsetlocale               1003064a f   LIBCMT:wsetloca.obj
 0001:0002ff67       __XcptFilter               10030f67 f   LIBCMT:winxfltr.obj
 0001:000300c2       ___CppXcptFilter           100310c2 f   LIBCMT:winxfltr.obj
 0001:000300e0       __ioinit                   100310e0 f   LIBCMT:ioinit.obj
 0001:00030394       __ioterm                   10031394 f   LIBCMT:ioinit.obj
 0001:000303e6       __setargv                  100313e6 f   LIBCMT:stdargv.obj
 0001:00030615       __setenvp                  10031615 f   LIBCMT:stdenvp.obj
 0001:000306f6       ___security_init_cookie    100316f6 f   LIBCMT:gs_support.obj
 0001:00030792       _DllMain@12                10031792 f   LIBCMT:dllmain.obj
 0001:00030798       ___crtGetEnvironmentStringsA 10031798 f   LIBCMT:a_env.obj
 0001:00030825       __RTC_Initialize           10031825 f   LIBCMT:initsect.obj
 0001:00030845       __RTC_Terminate            10031845 f   LIBCMT:initsect.obj
 0001:0003095d       ___crtGetStringTypeA       1003195d f   LIBCMT:a_str.obj
 0001:000309a0       __CallSettingFrame@12      100319a0 f   LIBCMT:lowhelpr.obj
 0001:000309c7       __NLG_Return               100319c7     LIBCMT:lowhelpr.obj
 0001:000309ec       ___DestructExceptionObject 100319ec f   LIBCMT:frame.obj
 0001:00030a77       ??0bad_exception@std@@QAE@ABV01@@Z 10031a77 f i LIBCMT:frame.obj
 0001:00030a92       ??1bad_exception@std@@UAE@XZ 10031a92 f i LIBCMT:frame.obj
 0001:00030a9d       ??_Ebad_exception@std@@UAEPAXI@Z 10031a9d f i LIBCMT:frame.obj
 0001:00030a9d       ??_Gbad_exception@std@@UAEPAXI@Z 10031a9d f i LIBCMT:frame.obj
 0001:000312d1       ___AdjustPointer           100322d1 f   LIBCMT:frame.obj
 0001:000312f6       ___BuildCatchObject        100322f6 f   LIBCMT:frame.obj
 0001:00031384       ___BuildCatchObjectHelper  10032384 f   LIBCMT:frame.obj
 0001:00031546       ___FrameUnwindFilter       10032546 f   LIBCMT:frame.obj
 0001:00031594       ___FrameUnwindToState      10032594 f   LIBCMT:frame.obj
 0001:0003166d       ___InternalCxxFrameHandler 1003266d f   LIBCMT:frame.obj
 0001:0003174e       ___TypeMatch               1003274e f   LIBCMT:frame.obj
 0001:000317b5       __cfltcvt                  100327b5 f   LIBCMT:cvt.obj
 0001:000317d6       __cfltcvt_l                100327d6 f   LIBCMT:cvt.obj
 0001:0003185c       __cftoa_l                  1003285c f   LIBCMT:cvt.obj
 0001:00031bb8       __cftoe                    10032bb8 f   LIBCMT:cvt.obj
 0001:00031d27       __cftoe_l                  10032d27 f   LIBCMT:cvt.obj
 0001:00031ee1       __cftof_l                  10032ee1 f   LIBCMT:cvt.obj
 0001:00031fa2       __cftog_l                  10032fa2 f   LIBCMT:cvt.obj
 0001:000320a1       __cropzeros                100330a1 f   LIBCMT:cvt.obj
 0001:000320b2       __cropzeros_l              100330b2 f   LIBCMT:cvt.obj
 0001:00032132       __fassign                  10033132 f   LIBCMT:cvt.obj
 0001:0003214a       __fassign_l                1003314a f   LIBCMT:cvt.obj
 0001:0003218c       __forcdecpt                1003318c f   LIBCMT:cvt.obj
 0001:0003219d       __forcdecpt_l              1003319d f   LIBCMT:cvt.obj
 0001:00032211       __positive                 10033211 f   LIBCMT:cvt.obj
 0001:00032253       __setdefaultprecision      10033253 f   LIBCMT:fp8.obj
 0001:0003227a       __initp_misc_cfltcvt_tab   1003327a f   LIBCMT:cmiscdat.obj
 0001:00032299       __mbstowcs_l_helper        10033299 f   LIBCMT:mbstowcs.obj
 0001:000323fa       __mbstowcs_s_l             100333fa f   LIBCMT:mbstowcs.obj
 0001:000324d8       _mbstowcs_s                100334d8 f   LIBCMT:mbstowcs.obj
 0001:000324f6       __wcstombs_l_helper        100334f6 f   LIBCMT:wcstombs.obj
 0001:0003275d       __wcstombs_s_l             1003375d f   LIBCMT:wcstombs.obj
 0001:00032828       _strcpy_s                  10033828 f   LIBCMT:strcpy_s.obj
 0001:0003287d       __isctype_l                1003387d f   LIBCMT:isctype.obj
 0001:0003292e       _calloc                    1003392e f   LIBCMT:calloc.obj
 0001:00032970       __alloca_probe_16          10033970 f   LIBCMT:alloca16.obj
 0001:00032986       __alloca_probe_8           10033986     LIBCMT:alloca16.obj
 0001:0003299c       __calloc_impl              1003399c f   LIBCMT:calloc_impl.obj
 0001:00032a16       __VEC_memset               10033a16 f   LIBCMT:p4_memset.obj
 0001:00032ade       __wcsicmp                  10033ade f   LIBCMT:wcsicmp.obj
 0001:00032b71       __wcsicmp_l                10033b71 f   LIBCMT:wcsicmp.obj
 0001:00032c4c       __isleadbyte_l             10033c4c f i LIBCMT:_wctype.obj
 0001:00032c86       _isleadbyte                10033c86 f i LIBCMT:_wctype.obj
 0001:00032c97       _wcsnlen                   10033c97 f   LIBCMT:wcslen_s.obj
 0001:00032cc0       __trandisp1                10033cc0 f   LIBCMT:87disp.obj
 0001:00032d27       __trandisp2                10033d27 f   LIBCMT:87disp.obj
 0001:00032db3       __rttospopde               10033db3     LIBCMT:87disp.obj
 0001:00032db8       __rttospop                 10033db8     LIBCMT:87disp.obj
 0001:00032dba       __rtnospop                 10033dba     LIBCMT:87disp.obj
 0001:00032dbc       __rttosnpop                10033dbc     LIBCMT:87disp.obj
 0001:00032dbd       __rtnospopde               10033dbd     LIBCMT:87disp.obj
 0001:00032dc4       __rtzeropop                10033dc4     LIBCMT:87disp.obj
 0001:00032dc6       __rtzeronpop               10033dc6     LIBCMT:87disp.obj
 0001:00032dcb       __rtonepop                 10033dcb     LIBCMT:87disp.obj
 0001:00032dcd       __rtonenpop                10033dcd     LIBCMT:87disp.obj
 0001:00032dd2       __tosnan1                  10033dd2     LIBCMT:87disp.obj
 0001:00032dfd       __nosnan2                  10033dfd     LIBCMT:87disp.obj
 0001:00032dff       __tosnan2                  10033dff     LIBCMT:87disp.obj
 0001:00032e27       __nan2                     10033e27     LIBCMT:87disp.obj
 0001:00032e66       __rtindfpop                10033e66     LIBCMT:87disp.obj
 0001:00032e68       __rtindfnpop               10033e68     LIBCMT:87disp.obj
 0001:00032e79       __rttosnpopde              10033e79     LIBCMT:87disp.obj
 0001:00032e83       __rtchsifneg               10033e83     LIBCMT:87disp.obj
 0001:00032e90       __startTwoArgErrorHandling 10033e90 f   LIBCMT:genexcep.obj
 0001:00032ea7       __startOneArgErrorHandling 10033ea7 f   LIBCMT:genexcep.obj
 0001:00032ef0       __twoToTOS                 10033ef0 f   LIBCMT:common.obj
 0001:00032f05       __load_CW                  10033f05 f   LIBCMT:common.obj
 0001:00032f1c       __convertTOStoQNaN         10033f1c f   LIBCMT:common.obj
 0001:00032f35       __fload_withFB             10033f35 f   LIBCMT:common.obj
 0001:00032f78       __checkTOS_withFB          10033f78 f   LIBCMT:common.obj
 0001:00032f8e       __fast_exit                10033f8e f   LIBCMT:common.obj
 0001:00032f9b       __math_exit                10033f9b f   LIBCMT:common.obj
 0001:00032fc5       __check_overflow_exit      10033fc5 f   LIBCMT:common.obj
 0001:00032fd9       __check_range_exit         10033fd9 f   LIBCMT:common.obj
 0001:00033080       __FindPESection            10034080 f   LIBCMT:pesect.obj
 0001:000330d0       __IsNonwritableInCurrentImage 100340d0 f   LIBCMT:pesect.obj
 0001:00033190       __ValidateImageBase        10034190 f   LIBCMT:pesect.obj
 0001:000331c1       __initp_misc_rand_s        100341c1 f   LIBCMT:rand_s.obj
 0001:000331ce       __ftbuf                    100341ce f   LIBCMT:_sftbuf.obj
 0001:000331ff       __stbuf                    100341ff f   LIBCMT:_sftbuf.obj
 0001:000332a5       __fileno                   100342a5 f   LIBCMT:fileno.obj
 0001:000332c9       __isatty                   100342c9 f   LIBCMT:isatty.obj
 0001:0003331d       __write                    1003431d f   LIBCMT:write.obj
 0001:0003340c       __write_nolock             1003440c f   LIBCMT:write.obj
 0001:00033c71       __lseeki64                 10034c71 f   LIBCMT:lseeki64.obj
 0001:00033d6d       __lseeki64_nolock          10034d6d f   LIBCMT:lseeki64.obj
 0001:00033de0       __getbuf                   10034de0 f   LIBCMT:_getbuf.obj
 0001:00033e26       __output_s_l               10034e26 f   LIBCMT:outputs.obj
 0001:00034aae       __get_printf_count_output  10035aae f   LIBCMT:printf.obj
 0001:00034ac3       __wctomb_s_l               10035ac3 f   LIBCMT:wctomb.obj
 0001:00034be7       _wctomb_s                  10035be7 f   LIBCMT:wctomb.obj
 0001:00034c10       __aulldvrm                 10035c10 f   LIBCMT:ulldvrm.obj
 0001:00034ca5       _wcsncpy_s                 10035ca5 f   LIBCMT:wcsncpy_s.obj
 0001:00034d63       ___free_lconv_mon          10035d63 f   LIBCMT:initmon.obj
 0001:00034e5f       ___init_monetary           10035e5f f   LIBCMT:initmon.obj
 0001:00035200       ___free_lconv_num          10036200 f   LIBCMT:initnum.obj
 0001:00035267       ___init_numeric            10036267 f   LIBCMT:initnum.obj
 0001:0003546d       ___free_lc_time            1003646d f   LIBCMT:inittime.obj
 0001:000357ed       ___init_time               100367ed f   LIBCMT:inittime.obj
 0001:0003605c       __fcloseall                1003705c f   LIBCMT:closeall.obj
 0001:000360f9       __commit                   100370f9 f   LIBCMT:commit.obj
 0001:000361e2       __freebuf                  100371e2 f   LIBCMT:_freebuf.obj
 0001:00036212       __woutput_l                10037212 f   LIBCMT:woutput.obj
 0001:00036f00       __local_unwind4            10037f00 f   LIBCMT:exsup4.obj
 0001:00036fd6       __seh_longjmp_unwind4@4    10037fd6 f   LIBCMT:exsup4.obj
 0001:00036ff2       @_EH4_CallFilterFunc@8     10037ff2 f   LIBCMT:exsup4.obj
 0001:00037009       @_EH4_TransferToHandler@8  10038009 f   LIBCMT:exsup4.obj
 0001:00037022       @_EH4_GlobalUnwind2@8      10038022 f   LIBCMT:exsup4.obj
 0001:0003703b       @_EH4_LocalUnwind@16       1003803b f   LIBCMT:exsup4.obj
 0001:00037052       _strncpy_s                 10038052 f   LIBCMT:strncpy_s.obj
 0001:000371da       ___crtGetLocaleInfoA       100381da f   LIBCMT:a_loc.obj
 0001:00037214       _wcscmp                    10038214 f   LIBCMT:wcscmp.obj
 0001:00037252       _wcscspn                   10038252 f   LIBCMT:wcscspn.obj
 0001:0003729d       _wcsncmp                   1003829d f   LIBCMT:wcsncmp.obj
 0001:000372d3       _wcspbrk                   100382d3 f   LIBCMT:wcspbrk.obj
 0001:0003789c       ___get_qualified_locale    1003889c f   LIBCMT:getqloc.obj
 0001:00038086       ___get_qualified_locale_downlevel 10039086 f   LIBCMT:getqloc_downlevel.obj
 0001:000382b0       __global_unwind2           100392b0 f   LIBCMT:exsup.obj
 0001:00038315       __local_unwind2            10039315 f   LIBCMT:exsup.obj
 0001:00038399       __abnormal_termination     10039399 f   LIBCMT:exsup.obj
 0001:000383bc       __NLG_Notify1              100393bc f   LIBCMT:exsup.obj
 0001:000383c5       __NLG_Notify               100393c5 f   LIBCMT:exsup.obj
 0001:000383dc       __NLG_Dispatch2            100393dc     LIBCMT:exsup.obj
 0001:000383dc       __NLG_Dispatch             100393dc     LIBCMT:exsup.obj
 0001:000383e4       __NLG_Call                 100393e4 f   LIBCMT:exsup.obj
 0001:000383e6       __NLG_Return2              100393e6     LIBCMT:exsup.obj
 0001:000383e7       ?_ValidateWrite@@YAHPAXI@Z 100393e7 f   LIBCMT:validate.obj
 0001:000383e7       ?_ValidateExecute@@YAHP6GHXZ@Z 100393e7 f   LIBCMT:validate.obj
 0001:000383e7       ?_ValidateRead@@YAHPBXI@Z  100393e7 f   LIBCMT:validate.obj
 0001:00038400       _strrchr                   10039400 f   LIBCMT:strrchr.obj
 0001:00038537       __fptostr                  10039537 f   LIBCMT:_fptostr.obj
 0001:000385e7       ___crt_atoflt_l            100395e7 f   LIBCMT:atodbl.obj
 0001:0003868b       __atodbl_l                 1003968b f   LIBCMT:atodbl.obj
 0001:00038719       __atoflt_l                 10039719 f   LIBCMT:atodbl.obj
 0001:00038731       ___dtold                   10039731 f   LIBCMT:cfout.obj
 0001:000387f9       __fltout2                  100397f9 f   LIBCMT:cfout.obj
 0001:00038890       __alldvrm                  10039890 f   LIBCMT:lldvrm.obj
 0001:00038970       __aullshr                  10039970 f   LIBCMT:ullshr.obj
 0001:0003898f       __controlfp_s              1003998f f   LIBCMT:contrlfp.obj
 0001:000389ec       __fptrap                   100399ec f   LIBCMT:crt0fp.obj
 0001:00038a00       __alloca_probe             10039a00 f   LIBCMT:chkstk.obj
 0001:00038a00       __chkstk                   10039a00 f   LIBCMT:chkstk.obj
 0001:00038a2b       __towlower_l               10039a2b f   LIBCMT:towlower.obj
 0001:00038adc       _iswctype                  10039adc f   LIBCMT:iswctype.obj
 0001:00038b32       __87except                 10039b32 f   LIBCMT:87except.obj
 0001:00038c3b       ___lock_fhandle            10039c3b f   LIBCMT:osfinfo.obj
 0001:00038cc9       __free_osfhnd              10039cc9 f   LIBCMT:osfinfo.obj
 0001:00038d4f       __get_osfhandle            10039d4f f   LIBCMT:osfinfo.obj
 0001:00038db6       __unlock_fhandle           10039db6 f   LIBCMT:osfinfo.obj
 0001:00038ddc       __mbtowc_l                 10039ddc f   LIBCMT:mbtowc.obj
 0001:00038ed1       _mbtowc                    10039ed1 f   LIBCMT:mbtowc.obj
 0001:00038ee9       __putwch_nolock            10039ee9 f   LIBCMT:putwch.obj
 0001:00038f2c       __fclose_nolock            10039f2c f   LIBCMT:fclose.obj
 0001:00038f98       _fclose                    10039f98 f   LIBCMT:fclose.obj
 0001:0003900f       __fputwc_nolock            1003a00f f   LIBCMT:fputwc.obj
 0001:00039376       _wcstol                    1003a376 f   LIBCMT:wcstol.obj
 0001:0003938e       __wtol                     1003a38e f   LIBCMT:wtox.obj
 0001:000393a2       _wcschr                    1003a3a2 f   LIBCMT:wcschr.obj
 0001:00039450       __wcsnicmp                 1003a450 f   LIBCMT:wcsnicmp.obj
 0001:00039506       __wcsnicmp_l               1003a506 f   LIBCMT:wcsnicmp.obj
 0001:000395ff       __ld12tod                  1003a5ff f   LIBCMT:intrncvt.obj
 0001:00039b71       __ld12tof                  1003ab71 f   LIBCMT:intrncvt.obj
 0001:0003a0e3       ___strgtold12_l            1003b0e3 f   LIBCMT:strgtold.obj
 0001:0003a88b       _$I10_OUTPUT               1003b88b f   LIBCMT:x10fout.obj
 0001:0003b308       __control87                1003c308 f i LIBCMT:ieee87.obj
 0001:0003b6a1       ___termconout              1003c6a1 f   LIBCMT:initcon.obj
 0001:0003b6b8       ___initconout              1003c6b8 f   LIBCMT:initcon.obj
 0001:0003b6d7       __close                    1003c6d7 f   LIBCMT:close.obj
 0001:0003b7b2       __close_nolock             1003c7b2 f   LIBCMT:close.obj
 0001:0003b84c       __flswbuf                  1003c84c f   LIBCMT:_flswbuf.obj
 0001:0003b9ae       __wchartodigit             1003c9ae f   LIBCMT:wchtodig.obj
 0001:0003bb4d       ___mtold12                 1003cb4d f   LIBCMT:mantold.obj
 0001:0003bd30       _strchr                    1003cd30 f   LIBCMT:strchr.obj
 0001:0003bd9e       ___from_strstr_to_strchr   1003cd9e     LIBCMT:strchr.obj
 0001:0003be60       ___ascii_strnicmp          1003ce60 f   LIBCMT:_strnicm.obj
 0001:0003bec2       _IsProcessorFeaturePresent@4 1003cec2 f   kernel32:KERNEL32.dll
 0001:0003bec8       _RtlUnwind@16              1003cec8 f   kernel32:KERNEL32.dll
 0001:0003becf       ___delayLoadHelper2@8      1003cecf f   DelayImp:delayhlp.obj
 0001:0003c0f0       __ftoui3                   1003d0f0 f   LIBCMT:ftol3.obj
 0001:0003c0ff       __ftoul3                   1003d0ff f   LIBCMT:ftol3.obj
 0001:0003c10e       __ftol3                    1003d10e f   LIBCMT:ftol3.obj
 0001:0003c11b       __ftol3_NaN                1003d11b f   LIBCMT:ftol3.obj
 0001:0003c133       __ftol3_work               1003d133 f   LIBCMT:ftol3.obj
 0001:0003c1b9       __ftol3_common             1003d1b9 f   LIBCMT:ftol3.obj
 0001:0003c27b       __ftol3_arg_error          1003d27b f   LIBCMT:ftol3.obj
 0001:0003c28d       __ftol3_except             1003d28d f   LIBCMT:ftol3.obj
 0001:0003c2d1       __dtoui3                   1003d2d1 f   LIBCMT:ftol3.obj
 0001:0003c2e0       __dtoul3                   1003d2e0 f   LIBCMT:ftol3.obj
 0001:0003c2ef       __dtol3                    1003d2ef f   LIBCMT:ftol3.obj
 0001:0003c2fc       __dtol3_NaN                1003d2fc f   LIBCMT:ftol3.obj
 0001:0003c319       __dtol3_work               1003d319 f   LIBCMT:ftol3.obj
 0001:0003c3fe       __ultod3                   1003d3fe f   LIBCMT:ftol3.obj
 0001:0003c48f       __ltod3                    1003d48f f   LIBCMT:ftol3.obj
 0002:00000000       __imp__GetModuleHandleA@4  10040000     kernel32:KERNEL32.dll
 0002:00000004       __imp__CloseHandle@4       10040004     kernel32:KERNEL32.dll
 0002:00000008       __imp__CreateFileW@28      10040008     kernel32:KERNEL32.dll
 0002:0000000c       __imp__SetStdHandle@8      1004000c     kernel32:KERNEL32.dll
 0002:00000010       __imp__FlushFileBuffers@4  10040010     kernel32:KERNEL32.dll
 0002:00000014       __imp__SetFilePointerEx@20 10040014     kernel32:KERNEL32.dll
 0002:00000018       __imp__GetConsoleMode@8    10040018     kernel32:KERNEL32.dll
 0002:0000001c       __imp__GetConsoleCP@0      1004001c     kernel32:KERNEL32.dll
 0002:00000020       __imp__FreeLibrary@4       10040020     kernel32:KERNEL32.dll
 0002:00000024       __imp__FreeEnvironmentStringsW@4 10040024     kernel32:KERNEL32.dll
 0002:00000028       __imp__GetEnvironmentStringsW@0 10040028     kernel32:KERNEL32.dll
 0002:0000002c       __imp__GetCurrentProcessId@0 1004002c     kernel32:KERNEL32.dll
 0002:00000030       __imp__QueryPerformanceCounter@4 10040030     kernel32:KERNEL32.dll
 0002:00000034       __imp__GetModuleFileNameA@12 10040034     kernel32:KERNEL32.dll
 0002:00000038       __imp__GetOEMCP@0          10040038     kernel32:KERNEL32.dll
 0002:0000003c       __imp__GetACP@0            1004003c     kernel32:KERNEL32.dll
 0002:00000040       __imp__IsValidCodePage@4   10040040     kernel32:KERNEL32.dll
 0002:00000044       __imp__HeapSize@12         10040044     kernel32:KERNEL32.dll
 0002:00000048       __imp__LoadLibraryExW@12   10040048     kernel32:KERNEL32.dll
 0002:0000004c       __imp__OutputDebugStringW@4 1004004c     kernel32:KERNEL32.dll
 0002:00000050       __imp__WriteFile@20        10040050     kernel32:KERNEL32.dll
 0002:00000054       __imp__GetProcessHeap@0    10040054     kernel32:KERNEL32.dll
 0002:00000058       __imp__ExitProcess@4       10040058     kernel32:KERNEL32.dll
 0002:0000005c       __imp__EnumSystemLocalesW@8 1004005c     kernel32:KERNEL32.dll
 0002:00000060       __imp__GetUserDefaultLCID@0 10040060     kernel32:KERNEL32.dll
 0002:00000064       __imp__IsValidLocale@8     10040064     kernel32:KERNEL32.dll
 0002:00000068       __imp__GetLocaleInfoW@16   10040068     kernel32:KERNEL32.dll
 0002:0000006c       __imp__LCMapStringW@24     1004006c     kernel32:KERNEL32.dll
 0002:00000070       __imp__GetProcAddress@8    10040070     kernel32:KERNEL32.dll
 0002:00000074       __imp__GetModuleHandleW@4  10040074     kernel32:KERNEL32.dll
 0002:00000078       __imp__GetStartupInfoW@4   10040078     kernel32:KERNEL32.dll
 0002:0000007c       __imp__TlsFree@4           1004007c     kernel32:KERNEL32.dll
 0002:00000080       __imp__TlsSetValue@8       10040080     kernel32:KERNEL32.dll
 0002:00000084       __imp__TlsGetValue@4       10040084     kernel32:KERNEL32.dll
 0002:00000088       __imp__TlsAlloc@0          10040088     kernel32:KERNEL32.dll
 0002:0000008c       __imp__TerminateProcess@8  1004008c     kernel32:KERNEL32.dll
 0002:00000090       __imp__GetCurrentProcess@0 10040090     kernel32:KERNEL32.dll
 0002:00000094       __imp__Sleep@4             10040094     kernel32:KERNEL32.dll
 0002:00000098       __imp__WideCharToMultiByte@32 10040098     kernel32:KERNEL32.dll
 0002:0000009c       __imp__EncodePointer@4     1004009c     kernel32:KERNEL32.dll
 0002:000000a0       __imp__DecodePointer@4     100400a0     kernel32:KERNEL32.dll
 0002:000000a4       __imp__EnterCriticalSection@4 100400a4     kernel32:KERNEL32.dll
 0002:000000a8       __imp__LeaveCriticalSection@4 100400a8     kernel32:KERNEL32.dll
 0002:000000ac       __imp__DeleteCriticalSection@4 100400ac     kernel32:KERNEL32.dll
 0002:000000b0       __imp__MultiByteToWideChar@24 100400b0     kernel32:KERNEL32.dll
 0002:000000b4       __imp__GetStringTypeW@16   100400b4     kernel32:KERNEL32.dll
 0002:000000b8       __imp__IsProcessorFeaturePresent@4 100400b8     kernel32:KERNEL32.dll
 0002:000000bc       __imp__IsDebuggerPresent@0 100400bc     kernel32:KERNEL32.dll
 0002:000000c0       __imp__GetLastError@0      100400c0     kernel32:KERNEL32.dll
 0002:000000c4       __imp__HeapFree@12         100400c4     kernel32:KERNEL32.dll
 0002:000000c8       __imp__HeapAlloc@12        100400c8     kernel32:KERNEL32.dll
 0002:000000cc       __imp__GetStdHandle@4      100400cc     kernel32:KERNEL32.dll
 0002:000000d0       __imp__GetFileType@4       100400d0     kernel32:KERNEL32.dll
 0002:000000d4       __imp__GetModuleFileNameW@12 100400d4     kernel32:KERNEL32.dll
 0002:000000d8       __imp__GetModuleHandleExW@12 100400d8     kernel32:KERNEL32.dll
 0002:000000dc       __imp__WriteConsoleW@20    100400dc     kernel32:KERNEL32.dll
 0002:000000e0       __imp__HeapReAlloc@16      100400e0     kernel32:KERNEL32.dll
 0002:000000e4       __imp__GetSystemTimeAsFileTime@4 100400e4     kernel32:KERNEL32.dll
 0002:000000e8       __imp__GetCommandLineA@0   100400e8     kernel32:KERNEL32.dll
 0002:000000ec       __imp__GetCurrentThreadId@0 100400ec     kernel32:KERNEL32.dll
 0002:000000f0       __imp__GetCPInfo@8         100400f0     kernel32:KERNEL32.dll
 0002:000000f4       __imp__RaiseException@16   100400f4     kernel32:KERNEL32.dll
 0002:000000f8       __imp__RtlUnwind@16        100400f8     kernel32:KERNEL32.dll
 0002:000000fc       __imp__UnhandledExceptionFilter@4 100400fc     kernel32:KERNEL32.dll
 0002:00000100       __imp__SetUnhandledExceptionFilter@4 10040100     kernel32:KERNEL32.dll
 0002:00000104       __imp__SetLastError@4      10040104     kernel32:KERNEL32.dll
 0002:00000108       __imp__InitializeCriticalSectionAndSpinCount@8 10040108     kernel32:KERNEL32.dll
 0002:0000010c       __imp__LoadLibraryExA@12   1004010c     kernel32:KERNEL32.dll
 0002:00000110       \177KERNEL32_NULL_THUNK_DATA 10040110     kernel32:KERNEL32.dll
 0002:00000114       __imp__OCIClientVersion    10040114     oci:OCI.dll
 0002:00000118       __imp__OCILobWrite2        10040118     oci:OCI.dll
 0002:0000011c       __imp__OCILobFreeTemporary 1004011c     oci:OCI.dll
 0002:00000120       __imp__OCILobLocatorAssign 10040120     oci:OCI.dll
 0002:00000124       __imp__OCILobRead2         10040124     oci:OCI.dll
 0002:00000128       __imp__OCILobGetLength2    10040128     oci:OCI.dll
 0002:0000012c       __imp__OCILobGetChunkSize  1004012c     oci:OCI.dll
 0002:00000130       __imp__OCILobCreateTemporary 10040130     oci:OCI.dll
 0002:00000134       __imp__OCILobIsTemporary   10040134     oci:OCI.dll
 0002:00000138       __imp__OCIErrorGet         10040138     oci:OCI.dll
 0002:0000013c       __imp__OCIStmtExecute      1004013c     oci:OCI.dll
 0002:00000140       __imp__OCIDefineByPos2     10040140     oci:OCI.dll
 0002:00000144       __imp__OCIStmtFetch2       10040144     oci:OCI.dll
 0002:00000148       __imp__OCIStmtRelease      10040148     oci:OCI.dll
 0002:0000014c       __imp__OCIStmtPrepare2     1004014c     oci:OCI.dll
 0002:00000150       __imp__OCIParamGet         10040150     oci:OCI.dll
 0002:00000154       __imp__OCIDefineDynamic    10040154     oci:OCI.dll
 0002:00000158       __imp__OCIBindByName2      10040158     oci:OCI.dll
 0002:0000015c       __imp__OCIBindDynamic      1004015c     oci:OCI.dll
 0002:00000160       __imp__OCIBindByPos2       10040160     oci:OCI.dll
 0002:00000164       __imp__OCISessionPoolCreate 10040164     oci:OCI.dll
 0002:00000168       __imp__OCISessionPoolDestroy 10040168     oci:OCI.dll
 0002:0000016c       __imp__OCIDateTimeConstruct 1004016c     oci:OCI.dll
 0002:00000170       __imp__OCIDateTimeIntervalAdd 10040170     oci:OCI.dll
 0002:00000174       __imp__OCIIntervalSetDaySecond 10040174     oci:OCI.dll
 0002:00000178       __imp__OCIDateTimeSubtract 10040178     oci:OCI.dll
 0002:0000017c       __imp__OCIIntervalGetDaySecond 1004017c     oci:OCI.dll
 0002:00000180       __imp__OCISessionRelease   10040180     oci:OCI.dll
 0002:00000184       __imp__OCIContextGetValue  10040184     oci:OCI.dll
 0002:00000188       __imp__OCITransCommit      10040188     oci:OCI.dll
 0002:0000018c       __imp__OCIAttrGet          1004018c     oci:OCI.dll
 0002:00000190       __imp__OCIBreak            10040190     oci:OCI.dll
 0002:00000194       __imp__OCISessionGet       10040194     oci:OCI.dll
 0002:00000198       __imp__OCITransRollback    10040198     oci:OCI.dll
 0002:0000019c       __imp__OCIAttrSet          1004019c     oci:OCI.dll
 0002:000001a0       __imp__OCIServerRelease    100401a0     oci:OCI.dll
 0002:000001a4       __imp__OCIContextSetValue  100401a4     oci:OCI.dll
 0002:000001a8       __imp__OCIPing             100401a8     oci:OCI.dll
 0002:000001ac       __imp__OCIMemoryFree       100401ac     oci:OCI.dll
 0002:000001b0       __imp__OCIMemoryAlloc      100401b0     oci:OCI.dll
 0002:000001b4       __imp__OCIEnvNlsCreate     100401b4     oci:OCI.dll
 0002:000001b8       __imp__OCIHandleAlloc      100401b8     oci:OCI.dll
 0002:000001bc       __imp__OCIArrayDescriptorAlloc 100401bc     oci:OCI.dll
 0002:000001c0       __imp__OCIDescriptorAlloc  100401c0     oci:OCI.dll
 0002:000001c4       __imp__OCIArrayDescriptorFree 100401c4     oci:OCI.dll
 0002:000001c8       __imp__OCIDescriptorFree   100401c8     oci:OCI.dll
 0002:000001cc       __imp__OCIHandleFree       100401cc     oci:OCI.dll
 0002:000001d0       \177OCI_NULL_THUNK_DATA    100401d0     oci:OCI.dll
 0002:000001d4       ___xc_a                    100401d4     LIBCMT:crt0init.obj
 0002:000001ec       __register_oracledb_       100401ec     njsOracle.obj
 0002:00000208       ___xc_z                    10040208     LIBCMT:crt0init.obj
 0002:0000020c       ___xi_a                    1004020c     LIBCMT:crt0init.obj
 0002:00000220       ___xi_z                    10040220     LIBCMT:crt0init.obj
 0002:00000224       ___xp_a                    10040224     LIBCMT:crt0init.obj
 0002:00000234       ___xp_z                    10040234     LIBCMT:crt0init.obj
 0002:00000238       ___xt_a                    10040238     LIBCMT:crt0init.obj
 0002:0000023c       ___xt_z                    1004023c     LIBCMT:crt0init.obj
 0002:00000280       __sz_node_exe              10040280     node:node.exe
 0002:00000760       ??_C@_0BC@CIJDGCDI@permission?5denied?$AA@ 10040760     libcpmt:syserror.obj
 0002:00000774       ??_C@_0M@MIDIAGJP@file?5exists?$AA@ 10040774     libcpmt:syserror.obj
 0002:00000780       ??_C@_0P@FDINDDOK@no?5such?5device?$AA@ 10040780     libcpmt:syserror.obj
 0002:00000790       ??_C@_0BC@EJHOMAAK@filename?5too?5long?$AA@ 10040790     libcpmt:syserror.obj
 0002:000007a4       ??_C@_0BI@NGCEHDD@device?5or?5resource?5busy?$AA@ 100407a4     libcpmt:syserror.obj
 0002:000007bc       ??_C@_08GLNPIFBN@io?5error?$AA@ 100407bc     libcpmt:syserror.obj
 0002:000007c8       ??_C@_0BE@JIDOCPHM@directory?5not?5empty?$AA@ 100407c8     libcpmt:syserror.obj
 0002:000007dc       ??_C@_0BB@FCMFBGOM@invalid?5argument?$AA@ 100407dc     libcpmt:syserror.obj
 0002:000007f0       ??_C@_0BD@IJDJKDEA@no?5space?5on?5device?$AA@ 100407f0     libcpmt:syserror.obj
 0002:00000804       ??_C@_0BK@NDOCBPGE@no?5such?5file?5or?5directory?$AA@ 10040804     libcpmt:syserror.obj
 0002:00000820       ??_C@_0BH@KEFGLDAF@function?5not?5supported?$AA@ 10040820     libcpmt:syserror.obj
 0002:00000838       ??_C@_0BC@NJECKMKE@no?5lock?5available?$AA@ 10040838     libcpmt:syserror.obj
 0002:0000084c       ??_C@_0BC@ENOOLCNF@not?5enough?5memory?$AA@ 1004084c     libcpmt:syserror.obj
 0002:00000860       ??_C@_0BP@LKNGHENJ@resource?5unavailable?5try?5again?$AA@ 10040860     libcpmt:syserror.obj
 0002:00000880       ??_C@_0BC@PPHBOELF@cross?5device?5link?$AA@ 10040880     libcpmt:syserror.obj
 0002:00000894       ??_C@_0BD@MOLBPMEA@operation?5canceled?$AA@ 10040894     libcpmt:syserror.obj
 0002:000008a8       ??_C@_0BE@GHAFMPAH@too?5many?5files?5open?$AA@ 100408a8     libcpmt:syserror.obj
 0002:000008bc       ??_C@_0BC@FNODOBAE@permission_denied?$AA@ 100408bc     libcpmt:syserror.obj
 0002:000008d0       ??_C@_0P@LNDJPBFK@address_in_use?$AA@ 100408d0     libcpmt:syserror.obj
 0002:000008e0       ??_C@_0BG@IPMGOJF@address_not_available?$AA@ 100408e0     libcpmt:syserror.obj
 0002:000008f8       ??_C@_0BN@LCBDHODA@address_family_not_supported?$AA@ 100408f8     libcpmt:syserror.obj
 0002:00000918       ??_C@_0BP@FOJJHMCC@connection_already_in_progress?$AA@ 10040918     libcpmt:syserror.obj
 0002:00000938       ??_C@_0BE@DLHHIBGN@bad_file_descriptor?$AA@ 10040938     libcpmt:syserror.obj
 0002:0000094c       ??_C@_0BD@OJMJDIGI@connection_aborted?$AA@ 1004094c     libcpmt:syserror.obj
 0002:00000960       ??_C@_0BD@NGKCIFEP@connection_refused?$AA@ 10040960     libcpmt:syserror.obj
 0002:00000974       ??_C@_0BB@JOANDNCK@connection_reset?$AA@ 10040974     libcpmt:syserror.obj
 0002:00000988       ??_C@_0BN@JLJNLKLK@destination_address_required?$AA@ 10040988     libcpmt:syserror.obj
 0002:000009a8       ??_C@_0M@IJGMGFGP@bad_address?$AA@ 100409a8     libcpmt:syserror.obj
 0002:000009b4       ??_C@_0BB@KKNHPPIN@host_unreachable?$AA@ 100409b4     libcpmt:syserror.obj
 0002:000009c8       ??_C@_0BG@DJGBJIIK@operation_in_progress?$AA@ 100409c8     libcpmt:syserror.obj
 0002:000009e0       ??_C@_0M@EGEKIIMP@interrupted?$AA@ 100409e0     libcpmt:syserror.obj
 0002:000009ec       ??_C@_0BB@FFIHMIPJ@invalid_argument?$AA@ 100409ec     libcpmt:syserror.obj
 0002:00000a00       ??_C@_0BC@FIFLCHLO@already_connected?$AA@ 10040a00     libcpmt:syserror.obj
 0002:00000a14       ??_C@_0BE@GJJJJDDA@too_many_files_open?$AA@ 10040a14     libcpmt:syserror.obj
 0002:00000a28       ??_C@_0N@HPMLKHPL@message_size?$AA@ 10040a28     libcpmt:syserror.obj
 0002:00000a38       ??_C@_0BC@LEEIKBAL@filename_too_long?$AA@ 10040a38     libcpmt:syserror.obj
 0002:00000a4c       ??_C@_0N@FCPALPJK@network_down?$AA@ 10040a4c     libcpmt:syserror.obj
 0002:00000a5c       ??_C@_0O@EHNDLHIG@network_reset?$AA@ 10040a5c     libcpmt:syserror.obj
 0002:00000a6c       ??_C@_0BE@JFNJIDNF@network_unreachable?$AA@ 10040a6c     libcpmt:syserror.obj
 0002:00000a80       ??_C@_0BA@FDIJKJCL@no_buffer_space?$AA@ 10040a80     libcpmt:syserror.obj
 0002:00000a90       ??_C@_0BD@JHIHCGKP@no_protocol_option?$AA@ 10040a90     libcpmt:syserror.obj
 0002:00000aa4       ??_C@_0O@GBCLHHD@not_connected?$AA@ 10040aa4     libcpmt:syserror.obj
 0002:00000ab4       ??_C@_0N@IMHKKLEM@not_a_socket?$AA@ 10040ab4     libcpmt:syserror.obj
 0002:00000ac4       ??_C@_0BI@ICEIDKLJ@operation_not_supported?$AA@ 10040ac4     libcpmt:syserror.obj
 0002:00000adc       ??_C@_0BH@KAPBAIJF@protocol_not_supported?$AA@ 10040adc     libcpmt:syserror.obj
 0002:00000af4       ??_C@_0BE@GAOJJFPC@wrong_protocol_type?$AA@ 10040af4     libcpmt:syserror.obj
 0002:00000b08       ??_C@_09NCHNLHPG@timed_out?$AA@ 10040b08     libcpmt:syserror.obj
 0002:00000b14       ??_C@_0BG@GDGHKFDH@operation_would_block?$AA@ 10040b14     libcpmt:syserror.obj
 0002:00000b2c       ??_C@_0BN@LKKBCCDB@address?5family?5not?5supported?$AA@ 10040b2c     libcpmt:syserror.obj
 0002:00000b4c       ??_C@_0P@LDMLAFHI@address?5in?5use?$AA@ 10040b4c     libcpmt:syserror.obj
 0002:00000b5c       ??_C@_0BG@DHPCNBJB@address?5not?5available?$AA@ 10040b5c     libcpmt:syserror.obj
 0002:00000b74       ??_C@_0BC@DFIBIBIL@already?5connected?$AA@ 10040b74     libcpmt:syserror.obj
 0002:00000b88       ??_C@_0BH@CAKOHOMI@argument?5list?5too?5long?$AA@ 10040b88     libcpmt:syserror.obj
 0002:00000ba0       ??_C@_0BH@CGIMPKIM@argument?5out?5of?5domain?$AA@ 10040ba0     libcpmt:syserror.obj
 0002:00000bb8       ??_C@_0M@KGHGGJGL@bad?5address?$AA@ 10040bb8     libcpmt:syserror.obj
 0002:00000bc4       ??_C@_0BE@MPJPGCEO@bad?5file?5descriptor?$AA@ 10040bc4     libcpmt:syserror.obj
 0002:00000bd8       ??_C@_0M@PMMIEFCP@bad?5message?$AA@ 10040bd8     libcpmt:syserror.obj
 0002:00000be4       ??_C@_0M@KPHOFDBE@broken?5pipe?$AA@ 10040be4     libcpmt:syserror.obj
 0002:00000bf0       ??_C@_0BD@MGNDDEGM@connection?5aborted?$AA@ 10040bf0     libcpmt:syserror.obj
 0002:00000c04       ??_C@_0BP@KAIHPOGN@connection?5already?5in?5progress?$AA@ 10040c04     libcpmt:syserror.obj
 0002:00000c24       ??_C@_0BD@PJLIIJEL@connection?5refused?$AA@ 10040c24     libcpmt:syserror.obj
 0002:00000c38       ??_C@_0BB@IECNJNOI@connection?5reset?$AA@ 10040c38     libcpmt:syserror.obj
 0002:00000c4c       ??_C@_0BN@KDMIFEIP@destination?5address?5required?$AA@ 10040c4c     libcpmt:syserror.obj
 0002:00000c6c       ??_C@_0BI@BNCLIGPB@executable?5format?5error?$AA@ 10040c6c     libcpmt:syserror.obj
 0002:00000c84       ??_C@_0P@DNAJLBJK@file?5too?5large?$AA@ 10040c84     libcpmt:syserror.obj
 0002:00000c94       ??_C@_0BB@DHFDFGDM@host?5unreachable?$AA@ 10040c94     libcpmt:syserror.obj
 0002:00000ca8       ??_C@_0BD@JPHBMONG@identifier?5removed?$AA@ 10040ca8     libcpmt:syserror.obj
 0002:00000cbc       ??_C@_0BG@CDNPAGJK@illegal?5byte?5sequence?$AA@ 10040cbc     libcpmt:syserror.obj
 0002:00000cd4       ??_C@_0CD@BNPLBMNA@inappropriate?5io?5control?5operati@ 10040cd4     libcpmt:syserror.obj
 0002:00000cf8       ??_C@_0N@OHAFKDEK@invalid?5seek?$AA@ 10040cf8     libcpmt:syserror.obj
 0002:00000d08       ??_C@_0P@FLLDBIDK@is?5a?5directory?$AA@ 10040d08     libcpmt:syserror.obj
 0002:00000d18       ??_C@_0N@IFLPBIOP@message?5size?$AA@ 10040d18     libcpmt:syserror.obj
 0002:00000d28       ??_C@_0N@KIIEAAIO@network?5down?$AA@ 10040d28     libcpmt:syserror.obj
 0002:00000d38       ??_C@_0O@FNPDBHEE@network?5reset?$AA@ 10040d38     libcpmt:syserror.obj
 0002:00000d48       ??_C@_0BE@IFNCKGE@network?5unreachable?$AA@ 10040d48     libcpmt:syserror.obj
 0002:00000d5c       ??_C@_0BA@PFFCAOFK@no?5buffer?5space?$AA@ 10040d5c     libcpmt:syserror.obj
 0002:00000d6c       ??_C@_0BB@IEPBLJHK@no?5child?5process?$AA@ 10040d6c     libcpmt:syserror.obj
 0002:00000d80       ??_C@_07PLECNNKG@no?5link?$AA@ 10040d80     libcpmt:syserror.obj
 0002:00000d88       ??_C@_0BF@PBGGPKKE@no?5message?5available?$AA@ 10040d88     libcpmt:syserror.obj
 0002:00000da0       ??_C@_0L@EDOLMPAK@no?5message?$AA@ 10040da0     libcpmt:syserror.obj
 0002:00000dac       ??_C@_0BD@EAMBFIDF@no?5protocol?5option?$AA@ 10040dac     libcpmt:syserror.obj
 0002:00000dc0       ??_C@_0BE@MKFDAFMP@no?5stream?5resources?$AA@ 10040dc0     libcpmt:syserror.obj
 0002:00000dd4       ??_C@_0BK@IMCPHCBI@no?5such?5device?5or?5address?$AA@ 10040dd4     libcpmt:syserror.obj
 0002:00000df0       ??_C@_0BA@ENLPPKBN@no?5such?5process?$AA@ 10040df0     libcpmt:syserror.obj
 0002:00000e00       ??_C@_0BA@DOCPFFJG@not?5a?5directory?$AA@ 10040e00     libcpmt:syserror.obj
 0002:00000e10       ??_C@_0N@POEIPGGF@not?5a?5socket?$AA@ 10040e10     libcpmt:syserror.obj
 0002:00000e20       ??_C@_0N@LGAPMMPI@not?5a?5stream?$AA@ 10040e20     libcpmt:syserror.obj
 0002:00000e30       ??_C@_0O@GLMIBBEG@not?5connected?$AA@ 10040e30     libcpmt:syserror.obj
 0002:00000e40       ??_C@_0O@NHEDABJP@not?5supported?$AA@ 10040e40     libcpmt:syserror.obj
 0002:00000e50       ??_C@_0BG@KDKHOPCO@operation?5in?5progress?$AA@ 10040e50     libcpmt:syserror.obj
 0002:00000e68       ??_C@_0BI@OHIEJAAB@operation?5not?5permitted?$AA@ 10040e68     libcpmt:syserror.obj
 0002:00000e80       ??_C@_0BI@LNEGIFLN@operation?5not?5supported?$AA@ 10040e80     libcpmt:syserror.obj
 0002:00000e98       ??_C@_0BG@OEMDKMEE@operation?5would?5block?$AA@ 10040e98     libcpmt:syserror.obj
 0002:00000eb0       ??_C@_0L@BLPOFLNJ@owner?5dead?$AA@ 10040eb0     libcpmt:syserror.obj
 0002:00000ebc       ??_C@_0P@FNPOCJBE@protocol?5error?$AA@ 10040ebc     libcpmt:syserror.obj
 0002:00000ecc       ??_C@_0BH@JPPPLHJB@protocol?5not?5supported?$AA@ 10040ecc     libcpmt:syserror.obj
 0002:00000ee4       ??_C@_0BG@EICBIHDP@read?5only?5file?5system?$AA@ 10040ee4     libcpmt:syserror.obj
 0002:00000efc       ??_C@_0BO@BJBOMOEJ@resource?5deadlock?5would?5occur?$AA@ 10040efc     libcpmt:syserror.obj
 0002:00000f1c       ??_C@_0BE@GOIPJJHG@result?5out?5of?5range?$AA@ 10040f1c     libcpmt:syserror.obj
 0002:00000f30       ??_C@_0BG@MPLKFPAE@state?5not?5recoverable?$AA@ 10040f30     libcpmt:syserror.obj
 0002:00000f48       ??_C@_0P@DIIFGFCG@stream?5timeout?$AA@ 10040f48     libcpmt:syserror.obj
 0002:00000f58       ??_C@_0P@IPFDMIFL@text?5file?5busy?$AA@ 10040f58     libcpmt:syserror.obj
 0002:00000f68       ??_C@_09KJPPMAOI@timed?5out?$AA@ 10040f68     libcpmt:syserror.obj
 0002:00000f74       ??_C@_0BO@HACHBEKI@too?5many?5files?5open?5in?5system?$AA@ 10040f74     libcpmt:syserror.obj
 0002:00000f94       ??_C@_0P@HCOMKFCC@too?5many?5links?$AA@ 10040f94     libcpmt:syserror.obj
 0002:00000fa4       ??_C@_0BO@EFGOJEF@too?5many?5symbolic?5link?5levels?$AA@ 10040fa4     libcpmt:syserror.obj
 0002:00000fc4       ??_C@_0BA@KGKGOOJA@value?5too?5large?$AA@ 10040fc4     libcpmt:syserror.obj
 0002:00000fd4       ??_C@_0BE@MIEJDDNH@wrong?5protocol?5type?$AA@ 10040fd4     libcpmt:syserror.obj
 0002:00000fec       ??_7_Facet_base@std@@6B@   10040fec     libcpmt:locale0.obj
 0002:00000ffc       ??_7_Locimp@locale@std@@6B@ 10040ffc     libcpmt:locale0.obj
 0002:00001008       ??_C@_01NBENCBCI@?$CK?$AA@ 10041008     libcpmt:locale0.obj
 0002:0000100c       ??_C@_01GFHCPBMG@C?$AA@    1004100c     libcpmt:locale0.obj
 0002:00001010       ?_BADOFF@std@@3_JB         10041010     libcpmt:ios.obj
 0002:0000101c       ??_7bad_alloc@std@@6B@     1004101c     libcpmt:xthrow.obj
 0002:00001024       ??_C@_0P@GHFPNOJB@bad?5allocation?$AA@ 10041024     libcpmt:xthrow.obj
 0002:00001038       ??_7logic_error@std@@6B@   10041038     libcpmt:xthrow.obj
 0002:00001044       ??_7length_error@std@@6B@  10041044     libcpmt:xthrow.obj
 0002:00001050       ??_7out_of_range@std@@6B@  10041050     libcpmt:xthrow.obj
 0002:0000105c       ??_7runtime_error@std@@6B@ 1004105c     libcpmt:xthrow.obj
 0002:00001068       ??_7?$ctype@D@std@@6B@     10041068     libcpmt:locale.obj
 0002:00001098       ??_7?$num_put@DV?$ostreambuf_iterator@DU?$char_traits@D@std@@@std@@@std@@6B@ 10041098     libcpmt:locale.obj
 0002:000010c8       ??_7?$numpunct@D@std@@6B@  100410c8     libcpmt:locale.obj
 0002:000010e8       ??_C@_11LOCGONAA@?$AA?$AA@ 100410e8     libcpmt:wlocale.obj
 0002:00001250       ??_C@_17LGKOMLJ@?$AA?4?$AA?4?$AA?4?$AA?$AA@ 10041250     LIBCMT:wassert.obj
 0002:00001258       ??_C@_13LBAGMAIH@?$AA?6?$AA?$AA@ 10041258     LIBCMT:wassert.obj
 0002:0000125c       ??_C@_15IABLJNFO@?$AA?6?$AA?6?$AA?$AA@ 1004125c     LIBCMT:wassert.obj
 0002:00001264       ??_C@_1CE@OJBNHDMO@?$AAA?$AAs?$AAs?$AAe?$AAr?$AAt?$AAi?$AAo?$AAn?$AA?5?$AAf?$AAa?$AAi?$AAl?$AAe?$AAd?$AA?$CB?$AA?$AA@ 10041264     LIBCMT:wassert.obj
 0002:00001288       ??_C@_1BE@PHKBBGE@?$AAP?$AAr?$AAo?$AAg?$AAr?$AAa?$AAm?$AA?3?$AA?5?$AA?$AA@ 10041288     LIBCMT:wassert.obj
 0002:0000129c       ??_C@_1CO@EAEJAADC@?$AA?$DM?$AAp?$AAr?$AAo?$AAg?$AAr?$AAa?$AAm?$AA?5?$AAn?$AAa?$AAm?$AAe?$AA?5?$AAu?$AAn?$AAk?$AAn?$AAo?$AAw?$AAn?$AA?$DO?$AA?$AA@ 1004129c     LIBCMT:wassert.obj
 0002:000012cc       ??_C@_1O@HEMHKNDC@?$AAF?$AAi?$AAl?$AAe?$AA?3?$AA?5?$AA?$AA@ 100412cc     LIBCMT:wassert.obj
 0002:000012dc       ??_C@_1O@KCAFKHJE@?$AAL?$AAi?$AAn?$AAe?$AA?3?$AA?5?$AA?$AA@ 100412dc     LIBCMT:wassert.obj
 0002:000012ec       ??_C@_1BK@PEDCIPMA@?$AAE?$AAx?$AAp?$AAr?$AAe?$AAs?$AAs?$AAi?$AAo?$AAn?$AA?3?$AA?5?$AA?$AA@ 100412ec     LIBCMT:wassert.obj
 0002:00001308       ??_C@_1OA@EGMLFBHJ@?$AAF?$AAo?$AAr?$AA?5?$AAi?$AAn?$AAf?$AAo?$AAr?$AAm?$AAa?$AAt?$AAi?$AAo?$AAn?$AA?5?$AAo?$AAn?$AA?5?$AAh?$AAo?$AAw?$AA?5?$AAy?$AAo?$AAu?$AAr?$AA?5?$AAp?$AAr?$AAo?$AAg@ 10041308     LIBCMT:wassert.obj
 0002:000013e8       ??_C@_1HK@POCJMFGK@?$AA?$CI?$AAP?$AAr?$AAe?$AAs?$AAs?$AA?5?$AAR?$AAe?$AAt?$AAr?$AAy?$AA?5?$AAt?$AAo?$AA?5?$AAd?$AAe?$AAb?$AAu?$AAg?$AA?5?$AAt?$AAh?$AAe?$AA?5?$AAa?$AAp?$AAp?$AAl?$AAi?$AAc@ 100413e8     LIBCMT:wassert.obj
 0002:00001468       ??_C@_1EK@MBDPDCGA@?$AAM?$AAi?$AAc?$AAr?$AAo?$AAs?$AAo?$AAf?$AAt?$AA?5?$AAV?$AAi?$AAs?$AAu?$AAa?$AAl?$AA?5?$AAC?$AA?$CL?$AA?$CL?$AA?5?$AAR?$AAu?$AAn?$AAt?$AAi?$AAm?$AAe?$AA?5?$AAL?$AAi?$AAb@ 10041468     LIBCMT:wassert.obj
 0002:000014b8       ??_7type_info@@6B@         100414b8     LIBCMT:typinfo.obj
 0002:000014c4       __pRawDllMain              100414c4     LIBCMT:dllcrt0.obj
 0002:000014c4       __pDefaultRawDllMain       100414c4     LIBCMT:dllcrt0.obj
 0002:000014e8       __FPinit                   100414e8     LIBCMT:fpinit.obj
 0002:000014f0       ??_7exception@std@@6B@     100414f0     LIBCMT:stdexcpt.obj
 0002:000014f8       ??_C@_0BC@EOODALEL@Unknown?5exception?$AA@ 100414f8     LIBCMT:stdexcpt.obj
 0002:00001510       ___newctype                10041510     LIBCMT:ctype.obj
 0002:00001810       __wctype                   10041810     LIBCMT:ctype.obj
 0002:00001a18       ___newclmap                10041a18     LIBCMT:ctype.obj
 0002:00001b98       ___newcumap                10041b98     LIBCMT:ctype.obj
 0002:00001d18       ??_C@_1BK@MGMFAEKH@?$AAk?$AAe?$AAr?$AAn?$AAe?$AAl?$AA3?$AA2?$AA?4?$AAd?$AAl?$AAl?$AA?$AA@ 10041d18     LIBCMT:winapisupp.obj
 0002:00001d34       ??_C@_08KNHFBNJ@FlsAlloc?$AA@ 10041d34     LIBCMT:winapisupp.obj
 0002:00001d40       ??_C@_07PEJMOBNF@FlsFree?$AA@ 10041d40     LIBCMT:winapisupp.obj
 0002:00001d48       ??_C@_0M@GDNOONDI@FlsGetValue?$AA@ 10041d48     LIBCMT:winapisupp.obj
 0002:00001d54       ??_C@_0M@JCPCPOEF@FlsSetValue?$AA@ 10041d54     LIBCMT:winapisupp.obj
 0002:00001d60       ??_C@_0BM@HCFOFFN@InitializeCriticalSectionEx?$AA@ 10041d60     LIBCMT:winapisupp.obj
 0002:00001d7c       ??_C@_0P@DLHPPCNH@CreateEventExW?$AA@ 10041d7c     LIBCMT:winapisupp.obj
 0002:00001d8c       ??_C@_0BD@KIEEOEEH@CreateSemaphoreExW?$AA@ 10041d8c     LIBCMT:winapisupp.obj
 0002:00001da0       ??_C@_0BI@BKLFFAPO@SetThreadStackGuarantee?$AA@ 10041da0     LIBCMT:winapisupp.obj
 0002:00001db8       ??_C@_0BG@OGFAJCKC@CreateThreadpoolTimer?$AA@ 10041db8     LIBCMT:winapisupp.obj
 0002:00001dd0       ??_C@_0BD@LPLEMMDI@SetThreadpoolTimer?$AA@ 10041dd0     LIBCMT:winapisupp.obj
 0002:00001de4       ??_C@_0CA@FMNJENH@WaitForThreadpoolTimerCallbacks?$AA@ 10041de4     LIBCMT:winapisupp.obj
 0002:00001e04       ??_C@_0BF@DCFCCNOC@CloseThreadpoolTimer?$AA@ 10041e04     LIBCMT:winapisupp.obj
 0002:00001e1c       ??_C@_0BF@FLABGKKM@CreateThreadpoolWait?$AA@ 10041e1c     LIBCMT:winapisupp.obj
 0002:00001e34       ??_C@_0BC@MGCOHNA@SetThreadpoolWait?$AA@ 10041e34     LIBCMT:winapisupp.obj
 0002:00001e48       ??_C@_0BE@OCIOMIMP@CloseThreadpoolWait?$AA@ 10041e48     LIBCMT:winapisupp.obj
 0002:00001e5c       ??_C@_0BJ@LKGHFHBO@FlushProcessWriteBuffers?$AA@ 10041e5c     LIBCMT:winapisupp.obj
 0002:00001e78       ??_C@_0BP@KALKKPMO@FreeLibraryWhenCallbackReturns?$AA@ 10041e78     LIBCMT:winapisupp.obj
 0002:00001e98       ??_C@_0BK@DFNBACLA@GetCurrentProcessorNumber?$AA@ 10041e98     LIBCMT:winapisupp.obj
 0002:00001eb4       ??_C@_0BP@KHGALBC@GetLogicalProcessorInformation?$AA@ 10041eb4     LIBCMT:winapisupp.obj
 0002:00001ed4       ??_C@_0BE@FKKLLFLM@CreateSymbolicLinkW?$AA@ 10041ed4     LIBCMT:winapisupp.obj
 0002:00001ee8       ??_C@_0BJ@OHNKDLIJ@SetDefaultDllDirectories?$AA@ 10041ee8     LIBCMT:winapisupp.obj
 0002:00001f04       ??_C@_0BE@LJANKFHF@EnumSystemLocalesEx?$AA@ 10041f04     LIBCMT:winapisupp.obj
 0002:00001f18       ??_C@_0BA@IHGNDAEB@CompareStringEx?$AA@ 10041f18     LIBCMT:winapisupp.obj
 0002:00001f28       ??_C@_0BA@EPCJIIPD@GetDateFormatEx?$AA@ 10041f28     LIBCMT:winapisupp.obj
 0002:00001f38       ??_C@_0BA@ONOKGCMP@GetLocaleInfoEx?$AA@ 10041f38     LIBCMT:winapisupp.obj
 0002:00001f48       ??_C@_0BA@CIJJKCJJ@GetTimeFormatEx?$AA@ 10041f48     LIBCMT:winapisupp.obj
 0002:00001f58       ??_C@_0BJ@PBCCBIPI@GetUserDefaultLocaleName?$AA@ 10041f58     LIBCMT:winapisupp.obj
 0002:00001f74       ??_C@_0BC@CELBKLLA@IsValidLocaleName?$AA@ 10041f74     LIBCMT:winapisupp.obj
 0002:00001f88       ??_C@_0O@KKBNKAPF@LCMapStringEx?$AA@ 10041f88     LIBCMT:winapisupp.obj
 0002:00001f98       ??_C@_0BE@JOGNEJCI@GetCurrentPackageId?$AA@ 10041f98     LIBCMT:winapisupp.obj
 0002:00001fac       ??_C@_0P@CDHHOHKP@GetTickCount64?$AA@ 10041fac     LIBCMT:winapisupp.obj
 0002:00001fbc       ??_C@_0BO@KPCLFDJJ@GetFileInformationByHandleExW?$AA@ 10041fbc     LIBCMT:winapisupp.obj
 0002:00001fdc       ??_C@_0BM@MHIDLABK@SetFileInformationByHandleW?$AA@ 10041fdc     LIBCMT:winapisupp.obj
 0002:00001ff8       _LcidToLocaleNameTable     10041ff8     LIBCMT:winapinls.obj
 0002:00002718       _LocaleNameToIndexTable    10042718     LIBCMT:winapinls.obj
 0002:00002e38       ??_C@_15EMKDOKLE@?$AAa?$AAr?$AA?$AA@ 10042e38     LIBCMT:winapinls.obj
 0002:00002e40       ??_C@_15KNPADPLH@?$AAb?$AAg?$AA?$AA@ 10042e40     LIBCMT:winapinls.obj
 0002:00002e48       ??_C@_15EDMHLDMO@?$AAc?$AAa?$AA?$AA@ 10042e48     LIBCMT:winapinls.obj
 0002:00002e50       ??_C@_1O@BPEAJADD@?$AAz?$AAh?$AA?9?$AAC?$AAH?$AAS?$AA?$AA@ 10042e50     LIBCMT:winapinls.obj
 0002:00002e60       ??_C@_15LJNHCMNK@?$AAc?$AAs?$AA?$AA@ 10042e60     LIBCMT:winapinls.obj
 0002:00002e68       ??_C@_15FOMCIDHG@?$AAd?$AAa?$AA?$AA@ 10042e68     LIBCMT:winapinls.obj
 0002:00002e70       ??_C@_15NBKABECB@?$AAd?$AAe?$AA?$AA@ 10042e70     LIBCMT:winapinls.obj
 0002:00002e78       ??_C@_15GHPEIIAO@?$AAe?$AAl?$AA?$AA@ 10042e78     LIBCMT:winapinls.obj
 0002:00002e80       ??_C@_15MNPNEAIF@?$AAe?$AAn?$AA?$AA@ 10042e80     LIBCMT:winapinls.obj
 0002:00002e88       ??_C@_15GPIOMPMH@?$AAe?$AAs?$AA?$AA@ 10042e88     LIBCMT:winapinls.obj
 0002:00002e90       ??_C@_15NGLOAKJC@?$AAf?$AAi?$AA?$AA@ 10042e90     LIBCMT:winapinls.obj
 0002:00002e98       ??_C@_15FBKGNKAM@?$AAf?$AAr?$AA?$AA@ 10042e98     LIBCMT:winapinls.obj
 0002:00002ea0       ??_C@_15KGGCNEFK@?$AAh?$AAe?$AA?$AA@ 10042ea0     LIBCMT:winapinls.obj
 0002:00002ea8       ??_C@_15PGHLIDMF@?$AAh?$AAu?$AA?$AA@ 10042ea8     LIBCMT:winapinls.obj
 0002:00002eb0       ??_C@_15BIEMAPLM@?$AAi?$AAs?$AA?$AA@ 10042eb0     LIBCMT:winapinls.obj
 0002:00002eb8       ??_C@_15IFJLDHAF@?$AAi?$AAt?$AA?$AA@ 10042eb8     LIBCMT:winapinls.obj
 0002:00002ec0       ??_C@_15GEMIOCAG@?$AAj?$AAa?$AA?$AA@ 10042ec0     LIBCMT:winapinls.obj
 0002:00002ec8       ??_C@_15EPELEGJA@?$AAk?$AAo?$AA?$AA@ 10042ec8     LIBCMT:winapinls.obj
 0002:00002ed0       ??_C@_15NDDHIMN@?$AAn?$AAl?$AA?$AA@ 10042ed0     LIBCMT:winapinls.obj
 0002:00002ed8       ??_C@_15BPIGNHCD@?$AAn?$AAo?$AA?$AA@ 10042ed8     LIBCMT:winapinls.obj
 0002:00002ee0       ??_C@_15DEOPBLCG@?$AAp?$AAl?$AA?$AA@ 10042ee0     LIBCMT:winapinls.obj
 0002:00002ee8       ??_C@_15KBECGEFG@?$AAp?$AAt?$AA?$AA@ 10042ee8     LIBCMT:winapinls.obj
 0002:00002ef0       ??_C@_15GLJCBFMD@?$AAr?$AAo?$AA?$AA@ 10042ef0     LIBCMT:winapinls.obj
 0002:00002ef8       ??_C@_15FEDGKCDI@?$AAr?$AAu?$AA?$AA@ 10042ef8     LIBCMT:winapinls.obj
 0002:00002f00       ??_C@_15GLKMLLHM@?$AAh?$AAr?$AA?$AA@ 10042f00     LIBCMT:winapinls.obj
 0002:00002f08       ??_C@_15CPKMFBDB@?$AAs?$AAk?$AA?$AA@ 10042f08     LIBCMT:winapinls.obj
 0002:00002f10       ??_C@_15BAAIOGMK@?$AAs?$AAq?$AA?$AA@ 10042f10     LIBCMT:winapinls.obj
 0002:00002f18       ??_C@_15INNPNOHD@?$AAs?$AAv?$AA?$AA@ 10042f18     LIBCMT:winapinls.obj
 0002:00002f20       ??_C@_15CABMMOGH@?$AAt?$AAh?$AA?$AA@ 10042f20     LIBCMT:winapinls.obj
 0002:00002f28       ??_C@_15BPLIHJJM@?$AAt?$AAr?$AA?$AA@ 10042f28     LIBCMT:winapinls.obj
 0002:00002f30       ??_C@_15NEOEKKDJ@?$AAu?$AAr?$AA?$AA@ 10042f30     LIBCMT:winapinls.obj
 0002:00002f38       ??_C@_15NFICGAJK@?$AAi?$AAd?$AA?$AA@ 10042f38     LIBCMT:winapinls.obj
 0002:00002f40       ??_C@_15PJPFLCCM@?$AAu?$AAk?$AA?$AA@ 10042f40     LIBCMT:winapinls.obj
 0002:00002f48       ??_C@_15HPJPHDM@?$AAb?$AAe?$AA?$AA@ 10042f48     LIBCMT:winapinls.obj
 0002:00002f50       ??_C@_15LCHLGJII@?$AAs?$AAl?$AA?$AA@ 10042f50     LIBCMT:winapinls.obj
 0002:00002f58       ??_C@_15PCFJPHHO@?$AAe?$AAt?$AA?$AA@ 10042f58     LIBCMT:winapinls.obj
 0002:00002f60       ??_C@_15HPFPGODN@?$AAl?$AAv?$AA?$AA@ 10042f60     LIBCMT:winapinls.obj
 0002:00002f68       ??_C@_15NFFGKGLG@?$AAl?$AAt?$AA?$AA@ 10042f68     LIBCMT:winapinls.obj
 0002:00002f70       ??_C@_15BDAKCCHN@?$AAf?$AAa?$AA?$AA@ 10042f70     LIBCMT:winapinls.obj
 0002:00002f78       ??_C@_15NFGIAIAJ@?$AAv?$AAi?$AA?$AA@ 10042f78     LIBCMT:winapinls.obj
 0002:00002f80       ??_C@_15LMKNDMHN@?$AAh?$AAy?$AA?$AA@ 10042f80     LIBCMT:winapinls.obj
 0002:00002f88       ??_C@_15IJBHMCFL@?$AAa?$AAz?$AA?$AA@ 10042f88     LIBCMT:winapinls.obj
 0002:00002f90       ??_C@_15EKOFJABL@?$AAe?$AAu?$AA?$AA@ 10042f90     LIBCMT:winapinls.obj
 0002:00002f98       ??_C@_15BGHADCNK@?$AAm?$AAk?$AA?$AA@ 10042f98     LIBCMT:winapinls.obj
 0002:00002fa0       ??_C@_15JDNICKHM@?$AAa?$AAf?$AA?$AA@ 10042fa0     LIBCMT:winapinls.obj
 0002:00002fa8       ??_C@_15KPJEDBKD@?$AAk?$AAa?$AA?$AA@ 10042fa8     LIBCMT:winapinls.obj
 0002:00002fb0       ??_C@_15PDNFFFEO@?$AAf?$AAo?$AA?$AA@ 10042fb0     LIBCMT:winapinls.obj
 0002:00002fb8       ??_C@_15OMLEGLOC@?$AAh?$AAi?$AA?$AA@ 10042fb8     LIBCMT:winapinls.obj
 0002:00002fc0       ??_C@_15IDNNENKK@?$AAm?$AAs?$AA?$AA@ 10042fc0     LIBCMT:winapinls.obj
 0002:00002fc8       ??_C@_15MACJNBMH@?$AAk?$AAk?$AA?$AA@ 10042fc8     LIBCMT:winapinls.obj
 0002:00002fd0       ??_C@_15DKDJEOND@?$AAk?$AAy?$AA?$AA@ 10042fd0     LIBCMT:winapinls.obj
 0002:00002fd8       ??_C@_15DFGDLJBG@?$AAs?$AAw?$AA?$AA@ 10042fd8     LIBCMT:winapinls.obj
 0002:00002fe0       ??_C@_15BBFAICNG@?$AAu?$AAz?$AA?$AA@ 10042fe0     LIBCMT:winapinls.obj
 0002:00002fe8       ??_C@_15DKNDCGEA@?$AAt?$AAt?$AA?$AA@ 10042fe8     LIBCMT:winapinls.obj
 0002:00002ff0       ??_C@_15MGIFMDPL@?$AAp?$AAa?$AA?$AA@ 10042ff0     LIBCMT:winapinls.obj
 0002:00002ff8       ??_C@_15HCNDBBA@?$AAg?$AAu?$AA?$AA@ 10042ff8     LIBCMT:winapinls.obj
 0002:00003000       ??_C@_15FNBEIBON@?$AAt?$AAa?$AA?$AA@ 10043000     LIBCMT:winapinls.obj
 0002:00003008       ??_C@_15NCHGBGLK@?$AAt?$AAe?$AA?$AA@ 10043008     LIBCMT:winapinls.obj
 0002:00003010       ??_C@_15PHPHCBPF@?$AAk?$AAn?$AA?$AA@ 10043010     LIBCMT:winapinls.obj
 0002:00003018       ??_C@_15DLGBCKMP@?$AAm?$AAr?$AA?$AA@ 10043018     LIBCMT:winapinls.obj
 0002:00003020       ??_C@_15EABBLBFF@?$AAs?$AAa?$AA?$AA@ 10043020     LIBCMT:winapinls.obj
 0002:00003028       ??_C@_15CBKOMCOI@?$AAm?$AAn?$AA?$AA@ 10043028     LIBCMT:winapinls.obj
 0002:00003030       ??_C@_15CKDMCJAF@?$AAg?$AAl?$AA?$AA@ 10043030     LIBCMT:winapinls.obj
 0002:00003038       ??_C@_17CNJFBPG@?$AAk?$AAo?$AAk?$AA?$AA@ 10043038     LIBCMT:winapinls.obj
 0002:00003040       ??_C@_17FFBJICPL@?$AAs?$AAy?$AAr?$AA?$AA@ 10043040     LIBCMT:winapinls.obj
 0002:00003048       ??_C@_17KPNDCPAF@?$AAd?$AAi?$AAv?$AA?$AA@ 10043048     LIBCMT:winapinls.obj
 0002:00003050       ??_C@_1M@OKAHONE@?$AAa?$AAr?$AA?9?$AAS?$AAA?$AA?$AA@ 10043050     LIBCMT:winapinls.obj
 0002:0000305c       ??_C@_1M@FFFIGIGK@?$AAb?$AAg?$AA?9?$AAB?$AAG?$AA?$AA@ 1004305c     LIBCMT:winapinls.obj
 0002:00003068       ??_C@_1M@BJNKEDC@?$AAc?$AAa?$AA?9?$AAE?$AAS?$AA?$AA@ 10043068     LIBCMT:winapinls.obj
 0002:00003074       ??_C@_1M@CLNBBOPM@?$AAz?$AAh?$AA?9?$AAT?$AAW?$AA?$AA@ 10043074     LIBCMT:winapinls.obj
 0002:00003080       ??_C@_1M@IJJHFJHA@?$AAc?$AAs?$AA?9?$AAC?$AAZ?$AA?$AA@ 10043080     LIBCMT:winapinls.obj
 0002:0000308c       ??_C@_1M@CLPEOBGI@?$AAd?$AAa?$AA?9?$AAD?$AAK?$AA?$AA@ 1004308c     LIBCMT:winapinls.obj
 0002:00003098       ??_C@_1M@MCMADGCB@?$AAd?$AAe?$AA?9?$AAD?$AAE?$AA?$AA@ 10043098     LIBCMT:winapinls.obj
 0002:000030a4       ??_C@_1M@OOCKEMAM@?$AAe?$AAl?$AA?9?$AAG?$AAR?$AA?$AA@ 100430a4     LIBCMT:winapinls.obj
 0002:000030b0       ??_C@_1M@BMHNFIME@?$AAe?$AAn?$AA?9?$AAU?$AAS?$AA?$AA@ 100430b0     LIBCMT:winapinls.obj
 0002:000030bc       ??_C@_1M@DDNJFGID@?$AAf?$AAi?$AA?9?$AAF?$AAI?$AA?$AA@ 100430bc     LIBCMT:winapinls.obj
 0002:000030c8       ??_C@_1M@GLIPPMAC@?$AAf?$AAr?$AA?9?$AAF?$AAR?$AA?$AA@ 100430c8     LIBCMT:winapinls.obj
 0002:000030d4       ??_C@_1M@GFMCHPE@?$AAh?$AAe?$AA?9?$AAI?$AAL?$AA?$AA@ 100430d4     LIBCMT:winapinls.obj
 0002:000030e0       ??_C@_1M@MHLPGNKM@?$AAh?$AAu?$AA?9?$AAH?$AAU?$AA?$AA@ 100430e0     LIBCMT:winapinls.obj
 0002:000030ec       ??_C@_1M@LPDDNNPN@?$AAi?$AAs?$AA?9?$AAI?$AAS?$AA?$AA@ 100430ec     LIBCMT:winapinls.obj
 0002:000030f8       ??_C@_1M@MADIPODN@?$AAi?$AAt?$AA?9?$AAI?$AAT?$AA?$AA@ 100430f8     LIBCMT:winapinls.obj
 0002:00003104       ??_C@_1M@HPNHIDJI@?$AAj?$AAa?$AA?9?$AAJ?$AAP?$AA?$AA@ 10043104     LIBCMT:winapinls.obj
 0002:00003110       ??_C@_1M@JLOOOEGK@?$AAk?$AAo?$AA?9?$AAK?$AAR?$AA?$AA@ 10043110     LIBCMT:winapinls.obj
 0002:0000311c       ??_C@_1M@IHBJJGG@?$AAn?$AAl?$AA?9?$AAN?$AAL?$AA?$AA@ 1004311c     LIBCMT:winapinls.obj
 0002:00003128       ??_C@_1M@EANAGDL@?$AAn?$AAb?$AA?9?$AAN?$AAO?$AA?$AA@ 10043128     LIBCMT:winapinls.obj
 0002:00003134       ??_C@_1M@NEIEMEGP@?$AAp?$AAl?$AA?9?$AAP?$AAL?$AA?$AA@ 10043134     LIBCMT:winapinls.obj
 0002:00003140       ??_C@_1M@BOCFIGEP@?$AAp?$AAt?$AA?9?$AAB?$AAR?$AA?$AA@ 10043140     LIBCMT:winapinls.obj
 0002:0000314c       ??_C@_1M@IMPFOPBG@?$AAr?$AAo?$AA?9?$AAR?$AAO?$AA?$AA@ 1004314c     LIBCMT:winapinls.obj
 0002:00003158       ??_C@_1M@IDNNEJMM@?$AAr?$AAu?$AA?9?$AAR?$AAU?$AA?$AA@ 10043158     LIBCMT:winapinls.obj
 0002:00003164       ??_C@_1M@LILEEOGM@?$AAh?$AAr?$AA?9?$AAH?$AAR?$AA?$AA@ 10043164     LIBCMT:winapinls.obj
 0002:00003170       ??_C@_1M@FKIFEHPB@?$AAs?$AAk?$AA?9?$AAS?$AAK?$AA?$AA@ 10043170     LIBCMT:winapinls.obj
 0002:0000317c       ??_C@_1M@LJMAMNPJ@?$AAs?$AAq?$AA?9?$AAA?$AAL?$AA?$AA@ 1004317c     LIBCMT:winapinls.obj
 0002:00003188       ??_C@_1M@GIAKDKJK@?$AAs?$AAv?$AA?9?$AAS?$AAE?$AA?$AA@ 10043188     LIBCMT:winapinls.obj
 0002:00003194       ??_C@_1M@MKJKIKCL@?$AAt?$AAh?$AA?9?$AAT?$AAH?$AA?$AA@ 10043194     LIBCMT:winapinls.obj
 0002:000031a0       ??_C@_1M@MFLCCMPB@?$AAt?$AAr?$AA?9?$AAT?$AAR?$AA?$AA@ 100431a0     LIBCMT:winapinls.obj
 0002:000031ac       ??_C@_1M@OIJHDKJN@?$AAu?$AAr?$AA?9?$AAP?$AAK?$AA?$AA@ 100431ac     LIBCMT:winapinls.obj
 0002:000031b8       ??_C@_1M@LHIPCIEK@?$AAi?$AAd?$AA?9?$AAI?$AAD?$AA?$AA@ 100431b8     LIBCMT:winapinls.obj
 0002:000031c4       ??_C@_1M@MFMOBGI@?$AAu?$AAk?$AA?9?$AAU?$AAA?$AA?$AA@ 100431c4     LIBCMT:winapinls.obj
 0002:000031d0       ??_C@_1M@OBGLJIPL@?$AAb?$AAe?$AA?9?$AAB?$AAY?$AA?$AA@ 100431d0     LIBCMT:winapinls.obj
 0002:000031dc       ??_C@_1M@BCFAJEAD@?$AAs?$AAl?$AA?9?$AAS?$AAI?$AA?$AA@ 100431dc     LIBCMT:winapinls.obj
 0002:000031e8       ??_C@_1M@FKFFEDDN@?$AAe?$AAt?$AA?9?$AAE?$AAE?$AA?$AA@ 100431e8     LIBCMT:winapinls.obj
 0002:000031f4       ??_C@_1M@KGKKAACI@?$AAl?$AAv?$AA?9?$AAL?$AAV?$AA?$AA@ 100431f4     LIBCMT:winapinls.obj
 0002:00003200       ??_C@_1M@IFGBIJO@?$AAl?$AAt?$AA?9?$AAL?$AAT?$AA?$AA@ 10043200     LIBCMT:winapinls.obj
 0002:0000320c       ??_C@_1M@FGEAHEDM@?$AAf?$AAa?$AA?9?$AAI?$AAR?$AA?$AA@ 1004320c     LIBCMT:winapinls.obj
 0002:00003218       ??_C@_1M@KBMAIBFN@?$AAv?$AAi?$AA?9?$AAV?$AAN?$AA?$AA@ 10043218     LIBCMT:winapinls.obj
 0002:00003224       ??_C@_1M@GPCBKDJK@?$AAh?$AAy?$AA?9?$AAA?$AAM?$AA?$AA@ 10043224     LIBCMT:winapinls.obj
 0002:00003230       ??_C@_1BG@BECMDDJB@?$AAa?$AAz?$AA?9?$AAA?$AAZ?$AA?9?$AAL?$AAa?$AAt?$AAn?$AA?$AA@ 10043230     LIBCMT:winapinls.obj
 0002:00003248       ??_C@_1M@MAOFCAEA@?$AAe?$AAu?$AA?9?$AAE?$AAS?$AA?$AA@ 10043248     LIBCMT:winapinls.obj
 0002:00003254       ??_C@_1M@IGHABKPI@?$AAm?$AAk?$AA?9?$AAM?$AAK?$AA?$AA@ 10043254     LIBCMT:winapinls.obj
 0002:00003260       ??_C@_1M@IAIGNEJG@?$AAt?$AAn?$AA?9?$AAZ?$AAA?$AA?$AA@ 10043260     LIBCMT:winapinls.obj
 0002:0000326c       ??_C@_1M@IIJCOJFA@?$AAx?$AAh?$AA?9?$AAZ?$AAA?$AA?$AA@ 1004326c     LIBCMT:winapinls.obj
 0002:00003278       ??_C@_1M@LGPJHNJH@?$AAz?$AAu?$AA?9?$AAZ?$AAA?$AA?$AA@ 10043278     LIBCMT:winapinls.obj
 0002:00003284       ??_C@_1M@HOKAOIO@?$AAa?$AAf?$AA?9?$AAZ?$AAA?$AA?$AA@ 10043284     LIBCMT:winapinls.obj
 0002:00003290       ??_C@_1M@DPCLHLIE@?$AAk?$AAa?$AA?9?$AAG?$AAE?$AA?$AA@ 10043290     LIBCMT:winapinls.obj
 0002:0000329c       ??_C@_1M@BLKMHJBI@?$AAf?$AAo?$AA?9?$AAF?$AAO?$AA?$AA@ 1004329c     LIBCMT:winapinls.obj
 0002:000032a8       ??_C@_1M@LGGJAPPB@?$AAh?$AAi?$AA?9?$AAI?$AAN?$AA?$AA@ 100432a8     LIBCMT:winapinls.obj
 0002:000032b4       ??_C@_1M@FIKPIHFE@?$AAm?$AAt?$AA?9?$AAM?$AAT?$AA?$AA@ 100432b4     LIBCMT:winapinls.obj
 0002:000032c0       ??_C@_1M@HEGGPBFA@?$AAs?$AAe?$AA?9?$AAN?$AAO?$AA?$AA@ 100432c0     LIBCMT:winapinls.obj
 0002:000032cc       ??_C@_1M@EIBJEEPA@?$AAm?$AAs?$AA?9?$AAM?$AAY?$AA?$AA@ 100432cc     LIBCMT:winapinls.obj
 0002:000032d8       ??_C@_1M@FHLBGMPP@?$AAk?$AAk?$AA?9?$AAK?$AAZ?$AA?$AA@ 100432d8     LIBCMT:winapinls.obj
 0002:000032e4       ??_C@_1M@NGJJLCGI@?$AAk?$AAy?$AA?9?$AAK?$AAG?$AA?$AA@ 100432e4     LIBCMT:winapinls.obj
 0002:000032f0       ??_C@_1M@GIENNBFC@?$AAs?$AAw?$AA?9?$AAK?$AAE?$AA?$AA@ 100432f0     LIBCMT:winapinls.obj
 0002:000032fc       ??_C@_1BG@NDGMJIMJ@?$AAu?$AAz?$AA?9?$AAU?$AAZ?$AA?9?$AAL?$AAa?$AAt?$AAn?$AA?$AA@ 100432fc     LIBCMT:winapinls.obj
 0002:00003314       ??_C@_1M@IDCCIHBC@?$AAt?$AAt?$AA?9?$AAR?$AAU?$AA?$AA@ 10043314     LIBCMT:winapinls.obj
 0002:00003320       ??_C@_1M@LOICPMOJ@?$AAb?$AAn?$AA?9?$AAI?$AAN?$AA?$AA@ 10043320     LIBCMT:winapinls.obj
 0002:0000332c       ??_C@_1M@KPKKNEAH@?$AAp?$AAa?$AA?9?$AAI?$AAN?$AA?$AA@ 1004332c     LIBCMT:winapinls.obj
 0002:00003338       ??_C@_1M@PJGPPBOG@?$AAg?$AAu?$AA?9?$AAI?$AAN?$AA?$AA@ 10043338     LIBCMT:winapinls.obj
 0002:00003344       ??_C@_1M@KMKMOPHI@?$AAt?$AAa?$AA?9?$AAI?$AAN?$AA?$AA@ 10043344     LIBCMT:winapinls.obj
 0002:00003350       ??_C@_1M@KFEHEPAC@?$AAt?$AAe?$AA?9?$AAI?$AAN?$AA?$AA@ 10043350     LIBCMT:winapinls.obj
 0002:0000335c       ??_C@_1M@CDCLMGHI@?$AAk?$AAn?$AA?9?$AAI?$AAN?$AA?$AA@ 1004335c     LIBCMT:winapinls.obj
 0002:00003368       ??_C@_1M@MIODLDKF@?$AAm?$AAl?$AA?9?$AAI?$AAN?$AA?$AA@ 10043368     LIBCMT:winapinls.obj
 0002:00003374       ??_C@_1M@PBIEACPO@?$AAm?$AAr?$AA?9?$AAI?$AAN?$AA?$AA@ 10043374     LIBCMT:winapinls.obj
 0002:00003380       ??_C@_1M@NIDEAGPH@?$AAs?$AAa?$AA?9?$AAI?$AAN?$AA?$AA@ 10043380     LIBCMT:winapinls.obj
 0002:0000338c       ??_C@_1M@FHIHCBIO@?$AAm?$AAn?$AA?9?$AAM?$AAN?$AA?$AA@ 1004338c     LIBCMT:winapinls.obj
 0002:00003398       ??_C@_1M@JAIJPENP@?$AAc?$AAy?$AA?9?$AAG?$AAB?$AA?$AA@ 10043398     LIBCMT:winapinls.obj
 0002:000033a4       ??_C@_1M@PHGFBEPN@?$AAg?$AAl?$AA?9?$AAE?$AAS?$AA?$AA@ 100433a4     LIBCMT:winapinls.obj
 0002:000033b0       ??_C@_1O@KPIPDNCP@?$AAk?$AAo?$AAk?$AA?9?$AAI?$AAN?$AA?$AA@ 100433b0     LIBCMT:winapinls.obj
 0002:000033c0       ??_C@_1O@KNHJLDJA@?$AAs?$AAy?$AAr?$AA?9?$AAS?$AAY?$AA?$AA@ 100433c0     LIBCMT:winapinls.obj
 0002:000033d0       ??_C@_1O@MKEKBLAH@?$AAd?$AAi?$AAv?$AA?9?$AAM?$AAV?$AA?$AA@ 100433d0     LIBCMT:winapinls.obj
 0002:000033e0       ??_C@_1O@OHDCKDDF@?$AAq?$AAu?$AAz?$AA?9?$AAB?$AAO?$AA?$AA@ 100433e0     LIBCMT:winapinls.obj
 0002:000033f0       ??_C@_1M@LEPJNLFD@?$AAn?$AAs?$AA?9?$AAZ?$AAA?$AA?$AA@ 100433f0     LIBCMT:winapinls.obj
 0002:000033fc       ??_C@_1M@OMLEIIJB@?$AAm?$AAi?$AA?9?$AAN?$AAZ?$AA?$AA@ 100433fc     LIBCMT:winapinls.obj
 0002:00003408       ??_C@_1M@PMPEAILG@?$AAa?$AAr?$AA?9?$AAI?$AAQ?$AA?$AA@ 10043408     LIBCMT:winapinls.obj
 0002:00003414       ??_C@_1M@BIBDDEMK@?$AAz?$AAh?$AA?9?$AAC?$AAN?$AA?$AA@ 10043414     LIBCMT:winapinls.obj
 0002:00003420       ??_C@_1M@CNKPNOEE@?$AAd?$AAe?$AA?9?$AAC?$AAH?$AA?$AA@ 10043420     LIBCMT:winapinls.obj
 0002:0000342c       ??_C@_1M@LKMGMLKO@?$AAe?$AAn?$AA?9?$AAG?$AAB?$AA?$AA@ 1004342c     LIBCMT:winapinls.obj
 0002:00003438       ??_C@_1M@PGKJFFGL@?$AAe?$AAs?$AA?9?$AAM?$AAX?$AA?$AA@ 10043438     LIBCMT:winapinls.obj
 0002:00003444       ??_C@_1M@DNNANBDC@?$AAf?$AAr?$AA?9?$AAB?$AAE?$AA?$AA@ 10043444     LIBCMT:winapinls.obj
 0002:00003450       ??_C@_1M@HLGMDFHM@?$AAi?$AAt?$AA?9?$AAC?$AAH?$AA?$AA@ 10043450     LIBCMT:winapinls.obj
 0002:0000345c       ??_C@_1M@CLLBGJH@?$AAn?$AAl?$AA?9?$AAB?$AAE?$AA?$AA@ 1004345c     LIBCMT:winapinls.obj
 0002:00003468       ??_C@_1M@BODBOGLF@?$AAn?$AAn?$AA?9?$AAN?$AAO?$AA?$AA@ 10043468     LIBCMT:winapinls.obj
 0002:00003474       ??_C@_1M@HFFAHKAD@?$AAp?$AAt?$AA?9?$AAP?$AAT?$AA?$AA@ 10043474     LIBCMT:winapinls.obj
 0002:00003480       ??_C@_1BG@LNOAKHIE@?$AAs?$AAr?$AA?9?$AAS?$AAP?$AA?9?$AAL?$AAa?$AAt?$AAn?$AA?$AA@ 10043480     LIBCMT:winapinls.obj
 0002:00003498       ??_C@_1M@HBMHBGAK@?$AAs?$AAv?$AA?9?$AAF?$AAI?$AA?$AA@ 10043498     LIBCMT:winapinls.obj
 0002:000034a4       ??_C@_1BG@DGCJGJBE@?$AAa?$AAz?$AA?9?$AAA?$AAZ?$AA?9?$AAC?$AAy?$AAr?$AAl?$AA?$AA@ 100434a4     LIBCMT:winapinls.obj
 0002:000034bc       ??_C@_1M@KEJDAAHB@?$AAs?$AAe?$AA?9?$AAS?$AAE?$AA?$AA@ 100434bc     LIBCMT:winapinls.obj
 0002:000034c8       ??_C@_1M@HEIBJJAD@?$AAm?$AAs?$AA?9?$AAB?$AAN?$AA?$AA@ 100434c8     LIBCMT:winapinls.obj
 0002:000034d4       ??_C@_1BG@PBGJMCEM@?$AAu?$AAz?$AA?9?$AAU?$AAZ?$AA?9?$AAC?$AAy?$AAr?$AAl?$AA?$AA@ 100434d4     LIBCMT:winapinls.obj
 0002:000034ec       ??_C@_1O@LAOBCMDF@?$AAq?$AAu?$AAz?$AA?9?$AAE?$AAC?$AA?$AA@ 100434ec     LIBCMT:winapinls.obj
 0002:000034fc       ??_C@_1M@POEEMAIO@?$AAa?$AAr?$AA?9?$AAE?$AAG?$AA?$AA@ 100434fc     LIBCMT:winapinls.obj
 0002:00003508       ??_C@_1M@EFAKDEDL@?$AAz?$AAh?$AA?9?$AAH?$AAK?$AA?$AA@ 10043508     LIBCMT:winapinls.obj
 0002:00003514       ??_C@_1M@HKKIJHGI@?$AAd?$AAe?$AA?9?$AAA?$AAT?$AA?$AA@ 10043514     LIBCMT:winapinls.obj
 0002:00003520       ??_C@_1M@KBFBEHJF@?$AAe?$AAn?$AA?9?$AAA?$AAU?$AA?$AA@ 10043520     LIBCMT:winapinls.obj
 0002:0000352c       ??_C@_1M@MNPLFAAH@?$AAe?$AAs?$AA?9?$AAE?$AAS?$AA?$AA@ 1004352c     LIBCMT:winapinls.obj
 0002:00003538       ??_C@_1M@HJOOJFMA@?$AAf?$AAr?$AA?9?$AAC?$AAA?$AA?$AA@ 10043538     LIBCMT:winapinls.obj
 0002:00003544       ??_C@_1BG@JPOFPNAB@?$AAs?$AAr?$AA?9?$AAS?$AAP?$AA?9?$AAC?$AAy?$AAr?$AAl?$AA?$AA@ 10043544     LIBCMT:winapinls.obj
 0002:0000355c       ??_C@_1M@LNFOCMOB@?$AAs?$AAe?$AA?9?$AAF?$AAI?$AA?$AA@ 1004355c     LIBCMT:winapinls.obj
 0002:00003568       ??_C@_1O@MGJBOAMB@?$AAq?$AAu?$AAz?$AA?9?$AAP?$AAE?$AA?$AA@ 10043568     LIBCMT:winapinls.obj
 0002:00003578       ??_C@_1M@GJINLBOK@?$AAa?$AAr?$AA?9?$AAL?$AAY?$AA?$AA@ 10043578     LIBCMT:winapinls.obj
 0002:00003584       ??_C@_1M@GGMNHJNL@?$AAz?$AAh?$AA?9?$AAS?$AAG?$AA?$AA@ 10043584     LIBCMT:winapinls.obj
 0002:00003590       ??_C@_1M@HOIKODND@?$AAd?$AAe?$AA?9?$AAL?$AAU?$AA?$AA@ 10043590     LIBCMT:winapinls.obj
 0002:0000359c       ??_C@_1M@DDOCCGFG@?$AAe?$AAn?$AA?9?$AAC?$AAA?$AA?$AA@ 1004359c     LIBCMT:winapinls.obj
 0002:000035a8       ??_C@_1M@BNOEMJLF@?$AAe?$AAs?$AA?9?$AAG?$AAT?$AA?$AA@ 100435a8     LIBCMT:winapinls.obj
 0002:000035b4       ??_C@_1M@EOGNKEK@?$AAf?$AAr?$AA?9?$AAC?$AAH?$AA?$AA@ 100435b4     LIBCMT:winapinls.obj
 0002:000035c0       ??_C@_1M@FLIDJFHL@?$AAh?$AAr?$AA?9?$AAB?$AAA?$AA?$AA@ 100435c0     LIBCMT:winapinls.obj
 0002:000035cc       ??_C@_1O@FMCELNAJ@?$AAs?$AAm?$AAj?$AA?9?$AAN?$AAO?$AA?$AA@ 100435cc     LIBCMT:winapinls.obj
 0002:000035dc       ??_C@_1M@JHGLJMGJ@?$AAa?$AAr?$AA?9?$AAD?$AAZ?$AA?$AA@ 100435dc     LIBCMT:winapinls.obj
 0002:000035e8       ??_C@_1M@JKKFDCNP@?$AAz?$AAh?$AA?9?$AAM?$AAO?$AA?$AA@ 100435e8     LIBCMT:winapinls.obj
 0002:000035f4       ??_C@_1M@GEEFALPE@?$AAd?$AAe?$AA?9?$AAL?$AAI?$AA?$AA@ 100435f4     LIBCMT:winapinls.obj
 0002:00003600       ??_C@_1M@IGEOFBG@?$AAe?$AAn?$AA?9?$AAN?$AAZ?$AA?$AA@ 10043600     LIBCMT:winapinls.obj
 0002:0000360c       ??_C@_1M@KDBONEHP@?$AAe?$AAs?$AA?9?$AAC?$AAR?$AA?$AA@ 1004360c     LIBCMT:winapinls.obj
 0002:00003618       ??_C@_1M@FHMDOHNN@?$AAf?$AAr?$AA?9?$AAL?$AAU?$AA?$AA@ 10043618     LIBCMT:winapinls.obj
 0002:00003624       ??_C@_1BG@NFKKMAFG@?$AAb?$AAs?$AA?9?$AAB?$AAA?$AA?9?$AAL?$AAa?$AAt?$AAn?$AA?$AA@ 10043624     LIBCMT:winapinls.obj
 0002:0000363c       ??_C@_1O@IMNBEMCI@?$AAs?$AAm?$AAj?$AA?9?$AAS?$AAE?$AA?$AA@ 1004363c     LIBCMT:winapinls.obj
 0002:0000364c       ??_C@_1M@DHHMBNDP@?$AAa?$AAr?$AA?9?$AAM?$AAA?$AA?$AA@ 1004364c     LIBCMT:winapinls.obj
 0002:00003658       ??_C@_1M@BNBLJCGH@?$AAe?$AAn?$AA?9?$AAI?$AAE?$AA?$AA@ 10043658     LIBCMT:winapinls.obj
 0002:00003664       ??_C@_1M@GEPAFMDL@?$AAe?$AAs?$AA?9?$AAP?$AAA?$AA?$AA@ 10043664     LIBCMT:winapinls.obj
 0002:00003670       ??_C@_1M@OJONDMDL@?$AAf?$AAr?$AA?9?$AAM?$AAC?$AA?$AA@ 10043670     LIBCMT:winapinls.obj
 0002:0000367c       ??_C@_1BG@OBCNFJB@?$AAs?$AAr?$AA?9?$AAB?$AAA?$AA?9?$AAL?$AAa?$AAt?$AAn?$AA?$AA@ 1004367c     LIBCMT:winapinls.obj
 0002:00003694       ??_C@_1O@KEMEEGPO@?$AAs?$AAm?$AAa?$AA?9?$AAN?$AAO?$AA?$AA@ 10043694     LIBCMT:winapinls.obj
 0002:000036a4       ??_C@_1M@ELMGFODK@?$AAa?$AAr?$AA?9?$AAT?$AAN?$AA?$AA@ 100436a4     LIBCMT:winapinls.obj
 0002:000036b0       ??_C@_1M@BHDLHFAF@?$AAe?$AAn?$AA?9?$AAZ?$AAA?$AA?$AA@ 100436b0     LIBCMT:winapinls.obj
 0002:000036bc       ??_C@_1M@BMGIGLIF@?$AAe?$AAs?$AA?9?$AAD?$AAO?$AA?$AA@ 100436bc     LIBCMT:winapinls.obj
 0002:000036c8       ??_C@_1BG@CMBHIPBE@?$AAs?$AAr?$AA?9?$AAB?$AAA?$AA?9?$AAC?$AAy?$AAr?$AAl?$AA?$AA@ 100436c8     LIBCMT:winapinls.obj
 0002:000036e0       ??_C@_1O@HEDBLHNP@?$AAs?$AAm?$AAa?$AA?9?$AAS?$AAE?$AA?$AA@ 100436e0     LIBCMT:winapinls.obj
 0002:000036f0       ??_C@_1M@DAGCADIM@?$AAa?$AAr?$AA?9?$AAO?$AAM?$AA?$AA@ 100436f0     LIBCMT:winapinls.obj
 0002:000036fc       ??_C@_1M@FODLMICG@?$AAe?$AAn?$AA?9?$AAJ?$AAM?$AA?$AA@ 100436fc     LIBCMT:winapinls.obj
 0002:00003708       ??_C@_1M@DNMLCIHB@?$AAe?$AAs?$AA?9?$AAV?$AAE?$AA?$AA@ 10043708     LIBCMT:winapinls.obj
 0002:00003714       ??_C@_1O@EOKHMKJK@?$AAs?$AAm?$AAs?$AA?9?$AAF?$AAI?$AA?$AA@ 10043714     LIBCMT:winapinls.obj
 0002:00003724       ??_C@_1M@CAFJMKOF@?$AAa?$AAr?$AA?9?$AAY?$AAE?$AA?$AA@ 10043724     LIBCMT:winapinls.obj
 0002:00003730       ??_C@_1M@CBFHIJLI@?$AAe?$AAn?$AA?9?$AAC?$AAB?$AA?$AA@ 10043730     LIBCMT:winapinls.obj
 0002:0000373c       ??_C@_1M@BGNFLDN@?$AAe?$AAs?$AA?9?$AAC?$AAO?$AA?$AA@ 1004373c     LIBCMT:winapinls.obj
 0002:00003748       ??_C@_1O@JMPHMAMC@?$AAs?$AAm?$AAn?$AA?9?$AAF?$AAI?$AA?$AA@ 10043748     LIBCMT:winapinls.obj
 0002:00003758       ??_C@_1M@JLANABKE@?$AAa?$AAr?$AA?9?$AAS?$AAY?$AA?$AA@ 10043758     LIBCMT:winapinls.obj
 0002:00003764       ??_C@_1M@HPKGCFGN@?$AAe?$AAn?$AA?9?$AAB?$AAZ?$AA?$AA@ 10043764     LIBCMT:winapinls.obj
 0002:00003770       ??_C@_1M@OLJCMLGM@?$AAe?$AAs?$AA?9?$AAP?$AAE?$AA?$AA@ 10043770     LIBCMT:winapinls.obj
 0002:0000377c       ??_C@_1M@MKKGFKLE@?$AAa?$AAr?$AA?9?$AAJ?$AAO?$AA?$AA@ 1004377c     LIBCMT:winapinls.obj
 0002:00003788       ??_C@_1M@EKPGLDNI@?$AAe?$AAn?$AA?9?$AAT?$AAT?$AA?$AA@ 10043788     LIBCMT:winapinls.obj
 0002:00003794       ??_C@_1M@OONGHFHE@?$AAe?$AAs?$AA?9?$AAA?$AAR?$AA?$AA@ 10043794     LIBCMT:winapinls.obj
 0002:000037a0       ??_C@_1M@OOJFGBHE@?$AAa?$AAr?$AA?9?$AAL?$AAB?$AA?$AA@ 100437a0     LIBCMT:winapinls.obj
 0002:000037ac       ??_C@_1M@GCEJHNEG@?$AAe?$AAn?$AA?9?$AAZ?$AAW?$AA?$AA@ 100437ac     LIBCMT:winapinls.obj
 0002:000037b8       ??_C@_1M@JNOCAHJI@?$AAe?$AAs?$AA?9?$AAE?$AAC?$AA?$AA@ 100437b8     LIBCMT:winapinls.obj
 0002:000037c4       ??_C@_1M@JEFHPGGB@?$AAa?$AAr?$AA?9?$AAK?$AAW?$AA?$AA@ 100437c4     LIBCMT:winapinls.obj
 0002:000037d0       ??_C@_1M@MLKIBJOJ@?$AAe?$AAn?$AA?9?$AAP?$AAH?$AA?$AA@ 100437d0     LIBCMT:winapinls.obj
 0002:000037dc       ??_C@_1M@BDNIPEND@?$AAe?$AAs?$AA?9?$AAC?$AAL?$AA?$AA@ 100437dc     LIBCMT:winapinls.obj
 0002:000037e8       ??_C@_1M@MPNMEKBD@?$AAa?$AAr?$AA?9?$AAA?$AAE?$AA?$AA@ 100437e8     LIBCMT:winapinls.obj
 0002:000037f4       ??_C@_1M@KBJALCPI@?$AAe?$AAs?$AA?9?$AAU?$AAY?$AA?$AA@ 100437f4     LIBCMT:winapinls.obj
 0002:00003800       ??_C@_1M@LLCCOAGA@?$AAa?$AAr?$AA?9?$AAB?$AAH?$AA?$AA@ 10043800     LIBCMT:winapinls.obj
 0002:0000380c       ??_C@_1M@PBFNCDEL@?$AAe?$AAs?$AA?9?$AAP?$AAY?$AA?$AA@ 1004380c     LIBCMT:winapinls.obj
 0002:00003818       ??_C@_1M@EDGINPNP@?$AAa?$AAr?$AA?9?$AAQ?$AAA?$AA?$AA@ 10043818     LIBCMT:winapinls.obj
 0002:00003824       ??_C@_1M@MKDBIIJI@?$AAe?$AAs?$AA?9?$AAB?$AAO?$AA?$AA@ 10043824     LIBCMT:winapinls.obj
 0002:00003830       ??_C@_1M@CPKKEBLD@?$AAe?$AAs?$AA?9?$AAS?$AAV?$AA?$AA@ 10043830     LIBCMT:winapinls.obj
 0002:0000383c       ??_C@_1M@NDBGMMJL@?$AAe?$AAs?$AA?9?$AAH?$AAN?$AA?$AA@ 1004383c     LIBCMT:winapinls.obj
 0002:00003848       ??_C@_1M@JIJIBHDP@?$AAe?$AAs?$AA?9?$AAN?$AAI?$AA?$AA@ 10043848     LIBCMT:winapinls.obj
 0002:00003854       ??_C@_1M@CGFMKEEK@?$AAe?$AAs?$AA?9?$AAP?$AAR?$AA?$AA@ 10043854     LIBCMT:winapinls.obj
 0002:00003860       ??_C@_1O@ICJHKIIK@?$AAz?$AAh?$AA?9?$AAC?$AAH?$AAT?$AA?$AA@ 10043860     LIBCMT:winapinls.obj
 0002:00003870       ??_C@_15CLNEJCE@?$AAs?$AAr?$AA?$AA@ 10043870     LIBCMT:winapinls.obj
 0002:00003878       ??_C@_1M@KAHEKEIG@?$AAa?$AAf?$AA?9?$AAz?$AAa?$AA?$AA@ 10043878     LIBCMT:winapinls.obj
 0002:00003884       ??_C@_1M@GIECOABL@?$AAa?$AAr?$AA?9?$AAa?$AAe?$AA?$AA@ 10043884     LIBCMT:winapinls.obj
 0002:00003890       ??_C@_1M@BMLMEKGI@?$AAa?$AAr?$AA?9?$AAb?$AAh?$AA?$AA@ 10043890     LIBCMT:winapinls.obj
 0002:0000389c       ??_C@_1M@DAPFDGGB@?$AAa?$AAr?$AA?9?$AAd?$AAz?$AA?$AA@ 1004389c     LIBCMT:winapinls.obj
 0002:000038a8       ??_C@_1M@FJNKGKIG@?$AAa?$AAr?$AA?9?$AAe?$AAg?$AA?$AA@ 100438a8     LIBCMT:winapinls.obj
 0002:000038b4       ??_C@_1M@FLGKKCLO@?$AAa?$AAr?$AA?9?$AAi?$AAq?$AA?$AA@ 100438b4     LIBCMT:winapinls.obj
 0002:000038c0       ??_C@_1M@GNDIPALM@?$AAa?$AAr?$AA?9?$AAj?$AAo?$AA?$AA@ 100438c0     LIBCMT:winapinls.obj
 0002:000038cc       ??_C@_1M@DDMJFMGJ@?$AAa?$AAr?$AA?9?$AAk?$AAw?$AA?$AA@ 100438cc     LIBCMT:winapinls.obj
 0002:000038d8       ??_C@_1M@EJALMLHM@?$AAa?$AAr?$AA?9?$AAl?$AAb?$AA?$AA@ 100438d8     LIBCMT:winapinls.obj
 0002:000038e4       ??_C@_1M@MOBDBLOC@?$AAa?$AAr?$AA?9?$AAl?$AAy?$AA?$AA@ 100438e4     LIBCMT:winapinls.obj
 0002:000038f0       ??_C@_1M@JAOCLHDH@?$AAa?$AAr?$AA?9?$AAm?$AAa?$AA?$AA@ 100438f0     LIBCMT:winapinls.obj
 0002:000038fc       ??_C@_1M@JHPMKJIE@?$AAa?$AAr?$AA?9?$AAo?$AAm?$AA?$AA@ 100438fc     LIBCMT:winapinls.obj
 0002:00003908       ??_C@_1M@OEPGHFNH@?$AAa?$AAr?$AA?9?$AAq?$AAa?$AA?$AA@ 10043908     LIBCMT:winapinls.obj
 0002:00003914       ??_C@_1M@KJDONENM@?$AAa?$AAr?$AA?9?$AAs?$AAa?$AA?$AA@ 10043914     LIBCMT:winapinls.obj
 0002:00003920       ??_C@_1M@DMJDKLKM@?$AAa?$AAr?$AA?9?$AAs?$AAy?$AA?$AA@ 10043920     LIBCMT:winapinls.obj
 0002:0000392c       ??_C@_1M@OMFIPEDC@?$AAa?$AAr?$AA?9?$AAt?$AAn?$AA?$AA@ 1004392c     LIBCMT:winapinls.obj
 0002:00003938       ??_C@_1M@IHMHGAON@?$AAa?$AAr?$AA?9?$AAy?$AAe?$AA?$AA@ 10043938     LIBCMT:winapinls.obj
 0002:00003944       ??_C@_1BG@KDCPGJGB@?$AAa?$AAz?$AA?9?$AAa?$AAz?$AA?9?$AAc?$AAy?$AAr?$AAl?$AA?$AA@ 10043944     LIBCMT:winapinls.obj
 0002:0000395c       ??_C@_1BG@IBCKDDOE@?$AAa?$AAz?$AA?9?$AAa?$AAz?$AA?9?$AAl?$AAa?$AAt?$AAn?$AA?$AA@ 1004395c     LIBCMT:winapinls.obj
 0002:00003974       ??_C@_1M@EGPFDCPD@?$AAb?$AAe?$AA?9?$AAb?$AAy?$AA?$AA@ 10043974     LIBCMT:winapinls.obj
 0002:00003980       ??_C@_1M@PCMGMCGC@?$AAb?$AAg?$AA?9?$AAb?$AAg?$AA?$AA@ 10043980     LIBCMT:winapinls.obj
 0002:0000398c       ??_C@_1M@BJBMFGOB@?$AAb?$AAn?$AA?9?$AAi?$AAn?$AA?$AA@ 1004398c     LIBCMT:winapinls.obj
 0002:00003998       ??_C@_1BG@EAKMMACD@?$AAb?$AAs?$AA?9?$AAb?$AAa?$AA?9?$AAl?$AAa?$AAt?$AAn?$AA?$AA@ 10043998     LIBCMT:winapinls.obj
 0002:000039b0       ??_C@_1M@KGADAODK@?$AAc?$AAa?$AA?9?$AAe?$AAs?$AA?$AA@ 100439b0     LIBCMT:winapinls.obj
 0002:000039bc       ??_C@_1M@COAJPDHI@?$AAc?$AAs?$AA?9?$AAc?$AAz?$AA?$AA@ 100439bc     LIBCMT:winapinls.obj
 0002:000039c8       ??_C@_1M@DHBHFONH@?$AAc?$AAy?$AA?9?$AAg?$AAb?$AA?$AA@ 100439c8     LIBCMT:winapinls.obj
 0002:000039d4       ??_C@_1M@IMGKELGA@?$AAd?$AAa?$AA?9?$AAd?$AAk?$AA?$AA@ 100439d4     LIBCMT:winapinls.obj
 0002:000039e0       ??_C@_1M@NNDGDNGA@?$AAd?$AAe?$AA?9?$AAa?$AAt?$AA?$AA@ 100439e0     LIBCMT:winapinls.obj
 0002:000039ec       ??_C@_1M@IKDBHEEM@?$AAd?$AAe?$AA?9?$AAc?$AAh?$AA?$AA@ 100439ec     LIBCMT:winapinls.obj
 0002:000039f8       ??_C@_1M@GFFOJMCJ@?$AAd?$AAe?$AA?9?$AAd?$AAe?$AA?$AA@ 100439f8     LIBCMT:winapinls.obj
 0002:00003a04       ??_C@_1M@MDNLKBPM@?$AAd?$AAe?$AA?9?$AAl?$AAi?$AA?$AA@ 10043a04     LIBCMT:winapinls.obj
 0002:00003a10       ??_C@_1M@NJBEEJNL@?$AAd?$AAe?$AA?9?$AAl?$AAu?$AA?$AA@ 10043a10     LIBCMT:winapinls.obj
 0002:00003a1c       ??_C@_1O@GNNELBAP@?$AAd?$AAi?$AAv?$AA?9?$AAm?$AAv?$AA?$AA@ 10043a1c     LIBCMT:winapinls.obj
 0002:00003a2c       ??_C@_1M@EJLEOGAE@?$AAe?$AAl?$AA?9?$AAg?$AAr?$AA?$AA@ 10043a2c     LIBCMT:winapinls.obj
 0002:00003a38       ??_C@_1M@GMPONJN@?$AAe?$AAn?$AA?9?$AAa?$AAu?$AA?$AA@ 10043a38     LIBCMT:winapinls.obj
 0002:00003a44       ??_C@_1M@NIDIIPGF@?$AAe?$AAn?$AA?9?$AAb?$AAz?$AA?$AA@ 10043a44     LIBCMT:winapinls.obj
 0002:00003a50       ??_C@_1M@JEHMIMFO@?$AAe?$AAn?$AA?9?$AAc?$AAa?$AA?$AA@ 10043a50     LIBCMT:winapinls.obj
 0002:00003a5c       ??_C@_1M@IGMJCDLA@?$AAe?$AAn?$AA?9?$AAc?$AAb?$AA?$AA@ 10043a5c     LIBCMT:winapinls.obj
 0002:00003a68       ??_C@_1M@BNFIGBKG@?$AAe?$AAn?$AA?9?$AAg?$AAb?$AA?$AA@ 10043a68     LIBCMT:winapinls.obj
 0002:00003a74       ??_C@_1M@LKIFDIGP@?$AAe?$AAn?$AA?9?$AAi?$AAe?$AA?$AA@ 10043a74     LIBCMT:winapinls.obj
 0002:00003a80       ??_C@_1M@PJKFGCCO@?$AAe?$AAn?$AA?9?$AAj?$AAm?$AA?$AA@ 10043a80     LIBCMT:winapinls.obj
 0002:00003a8c       ??_C@_1M@KPPKEPBO@?$AAe?$AAn?$AA?9?$AAn?$AAz?$AA?$AA@ 10043a8c     LIBCMT:winapinls.obj
 0002:00003a98       ??_C@_1M@GMDGLDOB@?$AAe?$AAn?$AA?9?$AAp?$AAh?$AA?$AA@ 10043a98     LIBCMT:winapinls.obj
 0002:00003aa4       ??_C@_1M@ONGIBJNA@?$AAe?$AAn?$AA?9?$AAt?$AAt?$AA?$AA@ 10043aa4     LIBCMT:winapinls.obj
 0002:00003ab0       ??_C@_1M@LLODPCMM@?$AAe?$AAn?$AA?9?$AAu?$AAs?$AA?$AA@ 10043ab0     LIBCMT:winapinls.obj
 0002:00003abc       ??_C@_1M@LAKFNPAN@?$AAe?$AAn?$AA?9?$AAz?$AAa?$AA?$AA@ 10043abc     LIBCMT:winapinls.obj
 0002:00003ac8       ??_C@_1M@MFNHNHEO@?$AAe?$AAn?$AA?9?$AAz?$AAw?$AA?$AA@ 10043ac8     LIBCMT:winapinls.obj
 0002:00003ad4       ??_C@_1M@EJEINPHM@?$AAe?$AAs?$AA?9?$AAa?$AAr?$AA?$AA@ 10043ad4     LIBCMT:winapinls.obj
 0002:00003ae0       ??_C@_1M@GNKPCCJA@?$AAe?$AAs?$AA?9?$AAb?$AAo?$AA?$AA@ 10043ae0     LIBCMT:winapinls.obj
 0002:00003aec       ??_C@_1M@LEEGFONL@?$AAe?$AAs?$AA?9?$AAc?$AAl?$AA?$AA@ 10043aec     LIBCMT:winapinls.obj
 0002:00003af8       ??_C@_1M@KGPDPBDF@?$AAe?$AAs?$AA?9?$AAc?$AAo?$AA?$AA@ 10043af8     LIBCMT:winapinls.obj
 0002:00003b04       ??_C@_1M@EIAHOHH@?$AAe?$AAs?$AA?9?$AAc?$AAr?$AA?$AA@ 10043b04     LIBCMT:winapinls.obj
 0002:00003b10       ??_C@_1M@LLPGMBIN@?$AAe?$AAs?$AA?9?$AAd?$AAo?$AA?$AA@ 10043b10     LIBCMT:winapinls.obj
 0002:00003b1c       ??_C@_1M@DKHMKNJA@?$AAe?$AAs?$AA?9?$AAe?$AAc?$AA?$AA@ 10043b1c     LIBCMT:winapinls.obj
 0002:00003b28       ??_C@_1M@GKGFPKAP@?$AAe?$AAs?$AA?9?$AAe?$AAs?$AA?$AA@ 10043b28     LIBCMT:winapinls.obj
 0002:00003b34       ??_C@_1M@LKHKGDLN@?$AAe?$AAs?$AA?9?$AAg?$AAt?$AA?$AA@ 10043b34     LIBCMT:winapinls.obj
 0002:00003b40       ??_C@_1M@HEIIGGJD@?$AAe?$AAs?$AA?9?$AAh?$AAn?$AA?$AA@ 10043b40     LIBCMT:winapinls.obj
 0002:00003b4c       ??_C@_1M@FBDHPPGD@?$AAe?$AAs?$AA?9?$AAm?$AAx?$AA?$AA@ 10043b4c     LIBCMT:winapinls.obj
 0002:00003b58       ??_C@_1M@DPAGLNDH@?$AAe?$AAs?$AA?9?$AAn?$AAi?$AA?$AA@ 10043b58     LIBCMT:winapinls.obj
 0002:00003b64       ??_C@_1M@MDGOPGDD@?$AAe?$AAs?$AA?9?$AAp?$AAa?$AA?$AA@ 10043b64     LIBCMT:winapinls.obj
 0002:00003b70       ??_C@_1M@EMAMGBGE@?$AAe?$AAs?$AA?9?$AAp?$AAe?$AA?$AA@ 10043b70     LIBCMT:winapinls.obj
 0002:00003b7c       ??_C@_1M@IBMCAOEC@?$AAe?$AAs?$AA?9?$AAp?$AAr?$AA?$AA@ 10043b7c     LIBCMT:winapinls.obj
 0002:00003b88       ??_C@_1M@FGMDIJED@?$AAe?$AAs?$AA?9?$AAp?$AAy?$AA?$AA@ 10043b88     LIBCMT:winapinls.obj
 0002:00003b94       ??_C@_1M@IIDEOLLL@?$AAe?$AAs?$AA?9?$AAs?$AAv?$AA?$AA@ 10043b94     LIBCMT:winapinls.obj
 0002:00003ba0       ??_C@_1M@GAOBIPA@?$AAe?$AAs?$AA?9?$AAu?$AAy?$AA?$AA@ 10043ba0     LIBCMT:winapinls.obj
 0002:00003bac       ??_C@_1M@JKFFICHJ@?$AAe?$AAs?$AA?9?$AAv?$AAe?$AA?$AA@ 10043bac     LIBCMT:winapinls.obj
 0002:00003bb8       ??_C@_1M@PNMLOJDF@?$AAe?$AAt?$AA?9?$AAe?$AAe?$AA?$AA@ 10043bb8     LIBCMT:winapinls.obj
 0002:00003bc4       ??_C@_1M@GHHLIKEI@?$AAe?$AAu?$AA?9?$AAe?$AAs?$AA?$AA@ 10043bc4     LIBCMT:winapinls.obj
 0002:00003bd0       ??_C@_1M@PBNONODE@?$AAf?$AAa?$AA?9?$AAi?$AAr?$AA?$AA@ 10043bd0     LIBCMT:winapinls.obj
 0002:00003bdc       ??_C@_1M@JEEHPMIL@?$AAf?$AAi?$AA?9?$AAf?$AAi?$AA?$AA@ 10043bdc     LIBCMT:winapinls.obj
 0002:00003be8       ??_C@_1M@LMDCNDBA@?$AAf?$AAo?$AA?9?$AAf?$AAo?$AA?$AA@ 10043be8     LIBCMT:winapinls.obj
 0002:00003bf4       ??_C@_1M@JKEOHLDK@?$AAf?$AAr?$AA?9?$AAb?$AAe?$AA?$AA@ 10043bf4     LIBCMT:winapinls.obj
 0002:00003c00       ??_C@_1M@NOHADPMI@?$AAf?$AAr?$AA?9?$AAc?$AAa?$AA?$AA@ 10043c00     LIBCMT:winapinls.obj
 0002:00003c0c       ??_C@_1M@KDHIHAEC@?$AAf?$AAr?$AA?9?$AAc?$AAh?$AA?$AA@ 10043c0c     LIBCMT:winapinls.obj
 0002:00003c18       ??_C@_1M@MMBBFGAK@?$AAf?$AAr?$AA?9?$AAf?$AAr?$AA?$AA@ 10043c18     LIBCMT:winapinls.obj
 0002:00003c24       ??_C@_1M@PAFNENNF@?$AAf?$AAr?$AA?9?$AAl?$AAu?$AA?$AA@ 10043c24     LIBCMT:winapinls.obj
 0002:00003c30       ??_C@_1M@EOHDJGDD@?$AAf?$AAr?$AA?9?$AAm?$AAc?$AA?$AA@ 10043c30     LIBCMT:winapinls.obj
 0002:00003c3c       ??_C@_1M@FAPLLOPF@?$AAg?$AAl?$AA?9?$AAe?$AAs?$AA?$AA@ 10043c3c     LIBCMT:winapinls.obj
 0002:00003c48       ??_C@_1M@FOPBFLOO@?$AAg?$AAu?$AA?9?$AAi?$AAn?$AA?$AA@ 10043c48     LIBCMT:winapinls.obj
 0002:00003c54       ??_C@_1M@KBMCINPM@?$AAh?$AAe?$AA?9?$AAi?$AAl?$AA?$AA@ 10043c54     LIBCMT:winapinls.obj
 0002:00003c60       ??_C@_1M@BBPHKFPJ@?$AAh?$AAi?$AA?9?$AAi?$AAn?$AA?$AA@ 10043c60     LIBCMT:winapinls.obj
 0002:00003c6c       ??_C@_1M@PMBNDPHD@?$AAh?$AAr?$AA?9?$AAb?$AAa?$AA?$AA@ 10043c6c     LIBCMT:winapinls.obj
 0002:00003c78       ??_C@_1M@BPCKOEGE@?$AAh?$AAr?$AA?9?$AAh?$AAr?$AA?$AA@ 10043c78     LIBCMT:winapinls.obj
 0002:00003c84       ??_C@_1M@GACBMHKE@?$AAh?$AAu?$AA?9?$AAh?$AAu?$AA?$AA@ 10043c84     LIBCMT:winapinls.obj
 0002:00003c90       ??_C@_1M@MILPAJJC@?$AAh?$AAy?$AA?9?$AAa?$AAm?$AA?$AA@ 10043c90     LIBCMT:winapinls.obj
 0002:00003c9c       ??_C@_1M@BABBICEC@?$AAi?$AAd?$AA?9?$AAi?$AAd?$AA?$AA@ 10043c9c     LIBCMT:winapinls.obj
 0002:00003ca8       ??_C@_1M@BIKNHHPF@?$AAi?$AAs?$AA?9?$AAi?$AAs?$AA?$AA@ 10043ca8     LIBCMT:winapinls.obj
 0002:00003cb4       ??_C@_1M@NMPCJPHE@?$AAi?$AAt?$AA?9?$AAc?$AAh?$AA?$AA@ 10043cb4     LIBCMT:winapinls.obj
 0002:00003cc0       ??_C@_1M@GHKGFEDF@?$AAi?$AAt?$AA?9?$AAi?$AAt?$AA?$AA@ 10043cc0     LIBCMT:winapinls.obj
 0002:00003ccc       ??_C@_1M@NIEJCJJA@?$AAj?$AAa?$AA?9?$AAj?$AAp?$AA?$AA@ 10043ccc     LIBCMT:winapinls.obj
 0002:00003cd8       ??_C@_1M@JILFNBIM@?$AAk?$AAa?$AA?9?$AAg?$AAe?$AA?$AA@ 10043cd8     LIBCMT:winapinls.obj
 0002:00003ce4       ??_C@_1M@PACPMGPH@?$AAk?$AAk?$AA?9?$AAk?$AAz?$AA?$AA@ 10043ce4     LIBCMT:winapinls.obj
 0002:00003cf0       ??_C@_1M@IELFGMHA@?$AAk?$AAn?$AA?9?$AAi?$AAn?$AA?$AA@ 10043cf0     LIBCMT:winapinls.obj
 0002:00003cfc       ??_C@_1O@IBBJHCH@?$AAk?$AAo?$AAk?$AA?9?$AAi?$AAn?$AA?$AA@ 10043cfc     LIBCMT:winapinls.obj
 0002:00003d0c       ??_C@_1M@DMHAEOGC@?$AAk?$AAo?$AA?9?$AAk?$AAr?$AA?$AA@ 10043d0c     LIBCMT:winapinls.obj
 0002:00003d18       ??_C@_1M@HBAHBIGA@?$AAk?$AAy?$AA?9?$AAk?$AAg?$AA?$AA@ 10043d18     LIBCMT:winapinls.obj
 0002:00003d24       ??_C@_1M@KPMILCJG@?$AAl?$AAt?$AA?9?$AAl?$AAt?$AA?$AA@ 10043d24     LIBCMT:winapinls.obj
 0002:00003d30       ??_C@_1M@BDEKKCA@?$AAl?$AAv?$AA?9?$AAl?$AAv?$AA?$AA@ 10043d30     LIBCMT:winapinls.obj
 0002:00003d3c       ??_C@_1M@ELCKCCJJ@?$AAm?$AAi?$AA?9?$AAn?$AAz?$AA?$AA@ 10043d3c     LIBCMT:winapinls.obj
 0002:00003d48       ??_C@_1M@CBOOLAPA@?$AAm?$AAk?$AA?9?$AAm?$AAk?$AA?$AA@ 10043d48     LIBCMT:winapinls.obj
 0002:00003d54       ??_C@_1M@GPHNBJKN@?$AAm?$AAl?$AA?9?$AAi?$AAn?$AA?$AA@ 10043d54     LIBCMT:winapinls.obj
 0002:00003d60       ??_C@_1M@PABJILIG@?$AAm?$AAn?$AA?9?$AAm?$AAn?$AA?$AA@ 10043d60     LIBCMT:winapinls.obj
 0002:00003d6c       ??_C@_1M@FGBKKIPG@?$AAm?$AAr?$AA?9?$AAi?$AAn?$AA?$AA@ 10043d6c     LIBCMT:winapinls.obj
 0002:00003d78       ??_C@_1M@NDBPDDAL@?$AAm?$AAs?$AA?9?$AAb?$AAn?$AA?$AA@ 10043d78     LIBCMT:winapinls.obj
 0002:00003d84       ??_C@_1M@OPIHOOPI@?$AAm?$AAs?$AA?9?$AAm?$AAy?$AA?$AA@ 10043d84     LIBCMT:winapinls.obj
 0002:00003d90       ??_C@_1M@PPDBCNFM@?$AAm?$AAt?$AA?9?$AAm?$AAt?$AA?$AA@ 10043d90     LIBCMT:winapinls.obj
 0002:00003d9c       ??_C@_1M@KDJDKMDD@?$AAn?$AAb?$AA?9?$AAn?$AAo?$AA?$AA@ 10043d9c     LIBCMT:winapinls.obj
 0002:00003da8       ??_C@_1M@KFCFLMJP@?$AAn?$AAl?$AA?9?$AAb?$AAe?$AA?$AA@ 10043da8     LIBCMT:winapinls.obj
 0002:00003db4       ??_C@_1M@KPOPDDGO@?$AAn?$AAl?$AA?9?$AAn?$AAl?$AA?$AA@ 10043db4     LIBCMT:winapinls.obj
 0002:00003dc0       ??_C@_1M@LJKPEMLN@?$AAn?$AAn?$AA?9?$AAn?$AAo?$AA?$AA@ 10043dc0     LIBCMT:winapinls.obj
 0002:00003dcc       ??_C@_1M@BDGHHBFL@?$AAn?$AAs?$AA?9?$AAz?$AAa?$AA?$AA@ 10043dcc     LIBCMT:winapinls.obj
 0002:00003dd8       ??_C@_1M@IDEHOAP@?$AAp?$AAa?$AA?9?$AAi?$AAn?$AA?$AA@ 10043dd8     LIBCMT:winapinls.obj
 0002:00003de4       ??_C@_1M@HDBKGOGH@?$AAp?$AAl?$AA?9?$AAp?$AAl?$AA?$AA@ 10043de4     LIBCMT:winapinls.obj
 0002:00003df0       ??_C@_1M@LJLLCMEH@?$AAp?$AAt?$AA?9?$AAb?$AAr?$AA?$AA@ 10043df0     LIBCMT:winapinls.obj
 0002:00003dfc       ??_C@_1M@NCMONAAL@?$AAp?$AAt?$AA?9?$AAp?$AAt?$AA?$AA@ 10043dfc     LIBCMT:winapinls.obj
 0002:00003e08       ??_C@_1O@EAKMAJDN@?$AAq?$AAu?$AAz?$AA?9?$AAb?$AAo?$AA?$AA@ 10043e08     LIBCMT:winapinls.obj
 0002:00003e18       ??_C@_1O@BHHPIGDN@?$AAq?$AAu?$AAz?$AA?9?$AAe?$AAc?$AA?$AA@ 10043e18     LIBCMT:winapinls.obj
 0002:00003e28       ??_C@_1O@GBAPEKMJ@?$AAq?$AAu?$AAz?$AA?9?$AAp?$AAe?$AA?$AA@ 10043e28     LIBCMT:winapinls.obj
 0002:00003e38       ??_C@_1M@CLGLEFBO@?$AAr?$AAo?$AA?9?$AAr?$AAo?$AA?$AA@ 10043e38     LIBCMT:winapinls.obj
 0002:00003e44       ??_C@_1M@CEEDODME@?$AAr?$AAu?$AA?9?$AAr?$AAu?$AA?$AA@ 10043e44     LIBCMT:winapinls.obj
 0002:00003e50       ??_C@_1M@HPKKKMPP@?$AAs?$AAa?$AA?9?$AAi?$AAn?$AA?$AA@ 10043e50     LIBCMT:winapinls.obj
 0002:00003e5c       ??_C@_1M@BKMAIGOJ@?$AAs?$AAe?$AA?9?$AAf?$AAi?$AA?$AA@ 10043e5c     LIBCMT:winapinls.obj
 0002:00003e68       ??_C@_1M@NDPIFLFI@?$AAs?$AAe?$AA?9?$AAn?$AAo?$AA?$AA@ 10043e68     LIBCMT:winapinls.obj
 0002:00003e74       ??_C@_1M@DANKKHJ@?$AAs?$AAe?$AA?9?$AAs?$AAe?$AA?$AA@ 10043e74     LIBCMT:winapinls.obj
 0002:00003e80       ??_C@_1M@PNBLONPJ@?$AAs?$AAk?$AA?9?$AAs?$AAk?$AA?$AA@ 10043e80     LIBCMT:winapinls.obj
 0002:00003e8c       ??_C@_1M@LFMODOAL@?$AAs?$AAl?$AA?9?$AAs?$AAi?$AA?$AA@ 10043e8c     LIBCMT:winapinls.obj
 0002:00003e98       ??_C@_1O@DFKOMPG@?$AAs?$AAm?$AAa?$AA?9?$AAn?$AAo?$AA?$AA@ 10043e98     LIBCMT:winapinls.obj
 0002:00003ea8       ??_C@_1O@NDKPBNNH@?$AAs?$AAm?$AAa?$AA?9?$AAs?$AAe?$AA?$AA@ 10043ea8     LIBCMT:winapinls.obj
 0002:00003eb8       ??_C@_1O@PLLKBHAB@?$AAs?$AAm?$AAj?$AA?9?$AAn?$AAo?$AA?$AA@ 10043eb8     LIBCMT:winapinls.obj
 0002:00003ec8       ??_C@_1O@CLEPOGCA@?$AAs?$AAm?$AAj?$AA?9?$AAs?$AAe?$AA?$AA@ 10043ec8     LIBCMT:winapinls.obj
 0002:00003ed8       ??_C@_1O@DLGJGKMK@?$AAs?$AAm?$AAn?$AA?9?$AAf?$AAi?$AA?$AA@ 10043ed8     LIBCMT:winapinls.obj
 0002:00003ee8       ??_C@_1O@OJDJGAJC@?$AAs?$AAm?$AAs?$AA?9?$AAf?$AAi?$AA?$AA@ 10043ee8     LIBCMT:winapinls.obj
 0002:00003ef8       ??_C@_1M@BOFOGHPB@?$AAs?$AAq?$AA?9?$AAa?$AAl?$AA?$AA@ 10043ef8     LIBCMT:winapinls.obj
 0002:00003f04       ??_C@_1BG@LJBBIPGB@?$AAs?$AAr?$AA?9?$AAb?$AAa?$AA?9?$AAc?$AAy?$AAr?$AAl?$AA?$AA@ 10043f04     LIBCMT:winapinls.obj
 0002:00003f1c       ??_C@_1BG@JLBENFOE@?$AAs?$AAr?$AA?9?$AAb?$AAa?$AA?9?$AAl?$AAa?$AAt?$AAn?$AA?$AA@ 10043f1c     LIBCMT:winapinls.obj
 0002:00003f34       ??_C@_1BG@KODPNHE@?$AAs?$AAr?$AA?9?$AAs?$AAp?$AA?9?$AAc?$AAy?$AAr?$AAl?$AA?$AA@ 10043f34     LIBCMT:winapinls.obj
 0002:00003f4c       ??_C@_1BG@CIOGKHPB@?$AAs?$AAr?$AA?9?$AAs?$AAp?$AA?9?$AAl?$AAa?$AAt?$AAn?$AA?$AA@ 10043f4c     LIBCMT:winapinls.obj
 0002:00003f64       ??_C@_1M@NGFJLMAC@?$AAs?$AAv?$AA?9?$AAf?$AAi?$AA?$AA@ 10043f64     LIBCMT:winapinls.obj
 0002:00003f70       ??_C@_1M@MPJEJAJC@?$AAs?$AAv?$AA?9?$AAs?$AAe?$AA?$AA@ 10043f70     LIBCMT:winapinls.obj
 0002:00003f7c       ??_C@_1M@MPNDHLFK@?$AAs?$AAw?$AA?9?$AAk?$AAe?$AA?$AA@ 10043f7c     LIBCMT:winapinls.obj
 0002:00003f88       ??_C@_1O@KOHBJJI@?$AAs?$AAy?$AAr?$AA?9?$AAs?$AAy?$AA?$AA@ 10043f88     LIBCMT:winapinls.obj
 0002:00003f98       ??_C@_1M@LDCEFHA@?$AAt?$AAa?$AA?9?$AAi?$AAn?$AA?$AA@ 10043f98     LIBCMT:winapinls.obj
 0002:00003fa4       ??_C@_1M@CNJOFAK@?$AAt?$AAe?$AA?9?$AAi?$AAn?$AA?$AA@ 10043fa4     LIBCMT:winapinls.obj
 0002:00003fb0       ??_C@_1M@GNAECACD@?$AAt?$AAh?$AA?9?$AAt?$AAh?$AA?$AA@ 10043fb0     LIBCMT:winapinls.obj
 0002:00003fbc       ??_C@_1M@CHBIHOJO@?$AAt?$AAn?$AA?9?$AAz?$AAa?$AA?$AA@ 10043fbc     LIBCMT:winapinls.obj
 0002:00003fc8       ??_C@_1M@GCCMIGPJ@?$AAt?$AAr?$AA?9?$AAt?$AAr?$AA?$AA@ 10043fc8     LIBCMT:winapinls.obj
 0002:00003fd4       ??_C@_1M@CELMCNBK@?$AAt?$AAt?$AA?9?$AAr?$AAu?$AA?$AA@ 10043fd4     LIBCMT:winapinls.obj
 0002:00003fe0       ??_C@_1M@KLMCELGA@?$AAu?$AAk?$AA?9?$AAu?$AAa?$AA?$AA@ 10043fe0     LIBCMT:winapinls.obj
 0002:00003fec       ??_C@_1M@EPAJJAJF@?$AAu?$AAr?$AA?9?$AAp?$AAk?$AA?$AA@ 10043fec     LIBCMT:winapinls.obj
 0002:00003ff8       ??_C@_1BG@GEGPMCDJ@?$AAu?$AAz?$AA?9?$AAu?$AAz?$AA?9?$AAc?$AAy?$AAr?$AAl?$AA?$AA@ 10043ff8     LIBCMT:winapinls.obj
 0002:00004010       ??_C@_1BG@EGGKJILM@?$AAu?$AAz?$AA?9?$AAu?$AAz?$AA?9?$AAl?$AAa?$AAt?$AAn?$AA?$AA@ 10044010     LIBCMT:winapinls.obj
 0002:00004028       ??_C@_1M@GFOCLFF@?$AAv?$AAi?$AA?9?$AAv?$AAn?$AA?$AA@ 10044028     LIBCMT:winapinls.obj
 0002:00004034       ??_C@_1M@CPAMEDFI@?$AAx?$AAh?$AA?9?$AAz?$AAa?$AA?$AA@ 10044034     LIBCMT:winapinls.obj
 0002:00004040       ??_C@_1O@EBKIFIGN@?$AAz?$AAh?$AA?9?$AAc?$AAh?$AAs?$AA?$AA@ 10044040     LIBCMT:winapinls.obj
 0002:00004050       ??_C@_1O@NMHPGANE@?$AAz?$AAh?$AA?9?$AAc?$AAh?$AAt?$AA?$AA@ 10044050     LIBCMT:winapinls.obj
 0002:00004060       ??_C@_1M@LPINJOMC@?$AAz?$AAh?$AA?9?$AAc?$AAn?$AA?$AA@ 10044060     LIBCMT:winapinls.obj
 0002:0000406c       ??_C@_1M@OCJEJODD@?$AAz?$AAh?$AA?9?$AAh?$AAk?$AA?$AA@ 1004406c     LIBCMT:winapinls.obj
 0002:00004078       ??_C@_1M@DNDLJINH@?$AAz?$AAh?$AA?9?$AAm?$AAo?$AA?$AA@ 10044078     LIBCMT:winapinls.obj
 0002:00004084       ??_C@_1M@MBFDNDND@?$AAz?$AAh?$AA?9?$AAs?$AAg?$AA?$AA@ 10044084     LIBCMT:winapinls.obj
 0002:00004090       ??_C@_1M@IMEPLEPE@?$AAz?$AAh?$AA?9?$AAt?$AAw?$AA?$AA@ 10044090     LIBCMT:winapinls.obj
 0002:0000409c       ??_C@_1M@BBGHNHJP@?$AAz?$AAu?$AA?9?$AAz?$AAa?$AA?$AA@ 1004409c     LIBCMT:winapinls.obj
 0002:000040a8       ??_C@_1BI@BGOHAHKC@?$AAm?$AAs?$AAc?$AAo?$AAr?$AAe?$AAe?$AA?4?$AAd?$AAl?$AAl?$AA?$AA@ 100440a8     LIBCMT:crt0dat.obj
 0002:000040c0       ??_C@_0P@MIGLKIOC@CorExitProcess?$AA@ 100440c0     LIBCMT:crt0dat.obj
 0002:000040d0       ??_C@_06OJHGLDPL@?$CInull?$CJ?$AA@ 100440d0     LIBCMT:output.obj
 0002:000040d8       ??_C@_1O@CEDCILHN@?$AA?$CI?$AAn?$AAu?$AAl?$AAl?$AA?$CJ?$AA?$AA@ 100440d8     LIBCMT:output.obj
 0002:000040e8       ___lookuptable             100440e8     LIBCMT:output.obj
 0002:00004200       ??_C@_1FK@PGACCAFB@?$AAR?$AA6?$AA0?$AA0?$AA2?$AA?$AN?$AA?6?$AA?9?$AA?5?$AAf?$AAl?$AAo?$AAa?$AAt?$AAi?$AAn?$AAg?$AA?5?$AAp?$AAo?$AAi?$AAn?$AAt?$AA?5?$AAs?$AAu?$AAp?$AAp?$AAo?$AAr?$AAt?$AA?5@ 10044200     LIBCMT:crt0msg.obj
 0002:00004260       ??_C@_1FE@LLNEDJMD@?$AAR?$AA6?$AA0?$AA0?$AA8?$AA?$AN?$AA?6?$AA?9?$AA?5?$AAn?$AAo?$AAt?$AA?5?$AAe?$AAn?$AAo?$AAu?$AAg?$AAh?$AA?5?$AAs?$AAp?$AAa?$AAc?$AAe?$AA?5?$AAf?$AAo?$AAr?$AA?5?$AAa?$AAr@ 10044260     LIBCMT:crt0msg.obj
 0002:000042b8       ??_C@_1FI@HONFMGBI@?$AAR?$AA6?$AA0?$AA0?$AA9?$AA?$AN?$AA?6?$AA?9?$AA?5?$AAn?$AAo?$AAt?$AA?5?$AAe?$AAn?$AAo?$AAu?$AAg?$AAh?$AA?5?$AAs?$AAp?$AAa?$AAc?$AAe?$AA?5?$AAf?$AAo?$AAr?$AA?5?$AAe?$AAn@ 100442b8     LIBCMT:crt0msg.obj
 0002:00004310       ??_C@_1EG@BEHAGFJD@?$AAR?$AA6?$AA0?$AA1?$AA0?$AA?$AN?$AA?6?$AA?9?$AA?5?$AAa?$AAb?$AAo?$AAr?$AAt?$AA?$CI?$AA?$CJ?$AA?5?$AAh?$AAa?$AAs?$AA?5?$AAb?$AAe?$AAe?$AAn?$AA?5?$AAc?$AAa?$AAl?$AAl?$AAe?$AAd@ 10044310     LIBCMT:crt0msg.obj
 0002:00004358       ??_C@_1FI@LOGNIKDM@?$AAR?$AA6?$AA0?$AA1?$AA6?$AA?$AN?$AA?6?$AA?9?$AA?5?$AAn?$AAo?$AAt?$AA?5?$AAe?$AAn?$AAo?$AAu?$AAg?$AAh?$AA?5?$AAs?$AAp?$AAa?$AAc?$AAe?$AA?5?$AAf?$AAo?$AAr?$AA?5?$AAt?$AAh@ 10044358     LIBCMT:crt0msg.obj
 0002:000043b0       ??_C@_1FK@BEOGODMC@?$AAR?$AA6?$AA0?$AA1?$AA7?$AA?$AN?$AA?6?$AA?9?$AA?5?$AAu?$AAn?$AAe?$AAx?$AAp?$AAe?$AAc?$AAt?$AAe?$AAd?$AA?5?$AAm?$AAu?$AAl?$AAt?$AAi?$AAt?$AAh?$AAr?$AAe?$AAa?$AAd?$AA?5@ 100443b0     LIBCMT:crt0msg.obj
 0002:00004410       ??_C@_1EC@JIBHAOPH@?$AAR?$AA6?$AA0?$AA1?$AA8?$AA?$AN?$AA?6?$AA?9?$AA?5?$AAu?$AAn?$AAe?$AAx?$AAp?$AAe?$AAc?$AAt?$AAe?$AAd?$AA?5?$AAh?$AAe?$AAa?$AAp?$AA?5?$AAe?$AAr?$AAr?$AAo?$AAr?$AA?$AN?$AA?6@ 10044410     LIBCMT:crt0msg.obj
 0002:00004458       ??_C@_1FC@ECHBIFBC@?$AAR?$AA6?$AA0?$AA1?$AA9?$AA?$AN?$AA?6?$AA?9?$AA?5?$AAu?$AAn?$AAa?$AAb?$AAl?$AAe?$AA?5?$AAt?$AAo?$AA?5?$AAo?$AAp?$AAe?$AAn?$AA?5?$AAc?$AAo?$AAn?$AAs?$AAo?$AAl?$AAe?$AA?5@ 10044458     LIBCMT:crt0msg.obj
 0002:000044b0       ??_C@_1GK@FHCKBEFA@?$AAR?$AA6?$AA0?$AA2?$AA4?$AA?$AN?$AA?6?$AA?9?$AA?5?$AAn?$AAo?$AAt?$AA?5?$AAe?$AAn?$AAo?$AAu?$AAg?$AAh?$AA?5?$AAs?$AAp?$AAa?$AAc?$AAe?$AA?5?$AAf?$AAo?$AAr?$AA?5?$AA_?$AAo@ 100444b0     LIBCMT:crt0msg.obj
 0002:00004520       ??_C@_1EM@MAADIHMB@?$AAR?$AA6?$AA0?$AA2?$AA5?$AA?$AN?$AA?6?$AA?9?$AA?5?$AAp?$AAu?$AAr?$AAe?$AA?5?$AAv?$AAi?$AAr?$AAt?$AAu?$AAa?$AAl?$AA?5?$AAf?$AAu?$AAn?$AAc?$AAt?$AAi?$AAo?$AAn?$AA?5?$AAc@ 10044520     LIBCMT:crt0msg.obj
 0002:00004570       ??_C@_1GK@MCAAGJMO@?$AAR?$AA6?$AA0?$AA2?$AA6?$AA?$AN?$AA?6?$AA?9?$AA?5?$AAn?$AAo?$AAt?$AA?5?$AAe?$AAn?$AAo?$AAu?$AAg?$AAh?$AA?5?$AAs?$AAp?$AAa?$AAc?$AAe?$AA?5?$AAf?$AAo?$AAr?$AA?5?$AAs?$AAt@ 10044570     LIBCMT:crt0msg.obj
 0002:000045e0       ??_C@_1GK@MFGOKLAG@?$AAR?$AA6?$AA0?$AA2?$AA7?$AA?$AN?$AA?6?$AA?9?$AA?5?$AAn?$AAo?$AAt?$AA?5?$AAe?$AAn?$AAo?$AAu?$AAg?$AAh?$AA?5?$AAs?$AAp?$AAa?$AAc?$AAe?$AA?5?$AAf?$AAo?$AAr?$AA?5?$AAl?$AAo@ 100445e0     LIBCMT:crt0msg.obj
 0002:00004650       ??_C@_1EK@HHFLMAOL@?$AAR?$AA6?$AA0?$AA2?$AA8?$AA?$AN?$AA?6?$AA?9?$AA?5?$AAu?$AAn?$AAa?$AAb?$AAl?$AAe?$AA?5?$AAt?$AAo?$AA?5?$AAi?$AAn?$AAi?$AAt?$AAi?$AAa?$AAl?$AAi?$AAz?$AAe?$AA?5?$AAh?$AAe@ 10044650     LIBCMT:crt0msg.obj
 0002:0000469c       ??_C@_1DO@BMFCDCD@?$AAR?$AA6?$AA0?$AA3?$AA0?$AA?$AN?$AA?6?$AA?9?$AA?5?$AAC?$AAR?$AAT?$AA?5?$AAn?$AAo?$AAt?$AA?5?$AAi?$AAn?$AAi?$AAt?$AAi?$AAa?$AAl?$AAi?$AAz?$AAe?$AAd?$AA?$AN?$AA?6?$AA?$AA@ 1004469c     LIBCMT:crt0msg.obj
 0002:000046e0       ??_C@_1MG@ENCOOIDF@?$AAR?$AA6?$AA0?$AA3?$AA1?$AA?$AN?$AA?6?$AA?9?$AA?5?$AAA?$AAt?$AAt?$AAe?$AAm?$AAp?$AAt?$AA?5?$AAt?$AAo?$AA?5?$AAi?$AAn?$AAi?$AAt?$AAi?$AAa?$AAl?$AAi?$AAz?$AAe?$AA?5?$AAt@ 100446e0     LIBCMT:crt0msg.obj
 0002:000047a8       ??_C@_1GG@GOPILAJP@?$AAR?$AA6?$AA0?$AA3?$AA2?$AA?$AN?$AA?6?$AA?9?$AA?5?$AAn?$AAo?$AAt?$AA?5?$AAe?$AAn?$AAo?$AAu?$AAg?$AAh?$AA?5?$AAs?$AAp?$AAa?$AAc?$AAe?$AA?5?$AAf?$AAo?$AAr?$AA?5?$AAl?$AAo@ 100447a8     LIBCMT:crt0msg.obj
 0002:00004810       ??_C@_1BOO@KGEDBGAJ@?$AAR?$AA6?$AA0?$AA3?$AA3?$AA?$AN?$AA?6?$AA?9?$AA?5?$AAA?$AAt?$AAt?$AAe?$AAm?$AAp?$AAt?$AA?5?$AAt?$AAo?$AA?5?$AAu?$AAs?$AAe?$AA?5?$AAM?$AAS?$AAI?$AAL?$AA?5?$AAc?$AAo?$AAd@ 10044810     LIBCMT:crt0msg.obj
 0002:00004a00       ??_C@_1GG@MKFPEKFO@?$AAR?$AA6?$AA0?$AA3?$AA4?$AA?$AN?$AA?6?$AA?9?$AA?5?$AAi?$AAn?$AAc?$AAo?$AAn?$AAs?$AAi?$AAs?$AAt?$AAe?$AAn?$AAt?$AA?5?$AAo?$AAn?$AAe?$AAx?$AAi?$AAt?$AA?5?$AAb?$AAe?$AAg@ 10044a00     LIBCMT:crt0msg.obj
 0002:00004a68       ??_C@_1BO@BFCDCGC@?$AAD?$AAO?$AAM?$AAA?$AAI?$AAN?$AA?5?$AAe?$AAr?$AAr?$AAo?$AAr?$AA?$AN?$AA?6?$AA?$AA@ 10044a68     LIBCMT:crt0msg.obj
 0002:00004a88       ??_C@_1BK@KMOMNAAI@?$AAS?$AAI?$AAN?$AAG?$AA?5?$AAe?$AAr?$AAr?$AAo?$AAr?$AA?$AN?$AA?6?$AA?$AA@ 10044a88     LIBCMT:crt0msg.obj
 0002:00004aa4       ??_C@_1BM@JBBEPPHI@?$AAT?$AAL?$AAO?$AAS?$AAS?$AA?5?$AAe?$AAr?$AAr?$AAo?$AAr?$AA?$AN?$AA?6?$AA?$AA@ 10044aa4     LIBCMT:crt0msg.obj
 0002:00004ac0       ??_C@_15JNBOKNOG@?$AA?$AN?$AA?6?$AA?$AA@ 10044ac0     LIBCMT:crt0msg.obj
 0002:00004ac8       ??_C@_1BO@BKOMIGKJ@?$AAr?$AAu?$AAn?$AAt?$AAi?$AAm?$AAe?$AA?5?$AAe?$AAr?$AAr?$AAo?$AAr?$AA?5?$AA?$AA@ 10044ac8     LIBCMT:crt0msg.obj
 0002:00004ae8       ??_C@_1DE@JNGNBFGO@?$AAR?$AAu?$AAn?$AAt?$AAi?$AAm?$AAe?$AA?5?$AAE?$AAr?$AAr?$AAo?$AAr?$AA?$CB?$AA?6?$AA?6?$AAP?$AAr?$AAo?$AAg?$AAr?$AAa?$AAm?$AA?3?$AA?5?$AA?$AA@ 10044ae8     LIBCMT:crt0msg.obj
 0002:00004b1c       ??_C@_03KOEHGMDN@Sun?$AA@  10044b1c     LIBCMT:nlsdata.obj
 0002:00004b20       ??_C@_03PDAGKDH@Mon?$AA@   10044b20     LIBCMT:nlsdata.obj
 0002:00004b24       ??_C@_03NAGEINEP@Tue?$AA@  10044b24     LIBCMT:nlsdata.obj
 0002:00004b28       ??_C@_03MHOMLAJA@Wed?$AA@  10044b28     LIBCMT:nlsdata.obj
 0002:00004b2c       ??_C@_03IOFIKPDN@Thu?$AA@  10044b2c     LIBCMT:nlsdata.obj
 0002:00004b30       ??_C@_03IDIOELNC@Fri?$AA@  10044b30     LIBCMT:nlsdata.obj
 0002:00004b34       ??_C@_03FEFJNEK@Sat?$AA@   10044b34     LIBCMT:nlsdata.obj
 0002:00004b38       ??_C@_06OOPIFAJ@Sunday?$AA@ 10044b38     LIBCMT:nlsdata.obj
 0002:00004b40       ??_C@_06JLEDEDGH@Monday?$AA@ 10044b40     LIBCMT:nlsdata.obj
 0002:00004b48       ??_C@_07BAAGCFCM@Tuesday?$AA@ 10044b48     LIBCMT:nlsdata.obj
 0002:00004b50       ??_C@_09DLIGFAKA@Wednesday?$AA@ 10044b50     LIBCMT:nlsdata.obj
 0002:00004b5c       ??_C@_08HACCIKIA@Thursday?$AA@ 10044b5c     LIBCMT:nlsdata.obj
 0002:00004b68       ??_C@_06JECMNKMI@Friday?$AA@ 10044b68     LIBCMT:nlsdata.obj
 0002:00004b70       ??_C@_08INBOOONO@Saturday?$AA@ 10044b70     LIBCMT:nlsdata.obj
 0002:00004b7c       ??_C@_03JIHJHPIE@Jan?$AA@  10044b7c     LIBCMT:nlsdata.obj
 0002:00004b80       ??_C@_03HJBDCHOM@Feb?$AA@  10044b80     LIBCMT:nlsdata.obj
 0002:00004b84       ??_C@_03ODNJBKGA@Mar?$AA@  10044b84     LIBCMT:nlsdata.obj
 0002:00004b88       ??_C@_03LEOLGMJP@Apr?$AA@  10044b88     LIBCMT:nlsdata.obj
 0002:00004b8c       ??_C@_03CNMDKL@May?$AA@    10044b8c     LIBCMT:nlsdata.obj
 0002:00004b90       ??_C@_03IDFGHECI@Jun?$AA@  10044b90     LIBCMT:nlsdata.obj
 0002:00004b94       ??_C@_03LBGABGKK@Jul?$AA@  10044b94     LIBCMT:nlsdata.obj
 0002:00004b98       ??_C@_03IFJFEIGA@Aug?$AA@  10044b98     LIBCMT:nlsdata.obj
 0002:00004b9c       ??_C@_03GGCAPAJC@Sep?$AA@  10044b9c     LIBCMT:nlsdata.obj
 0002:00004ba0       ??_C@_03BMAOKBAD@Oct?$AA@  10044ba0     LIBCMT:nlsdata.obj
 0002:00004ba4       ??_C@_03JPJOFNIA@Nov?$AA@  10044ba4     LIBCMT:nlsdata.obj
 0002:00004ba8       ??_C@_03MKABNOCG@Dec?$AA@  10044ba8     LIBCMT:nlsdata.obj
 0002:00004bac       ??_C@_07CGJPFGJA@January?$AA@ 10044bac     LIBCMT:nlsdata.obj
 0002:00004bb4       ??_C@_08GNJGEPFN@February?$AA@ 10044bb4     LIBCMT:nlsdata.obj
 0002:00004bc0       ??_C@_05HPCKOFNC@March?$AA@ 10044bc0     LIBCMT:nlsdata.obj
 0002:00004bc8       ??_C@_05DMJDNLEJ@April?$AA@ 10044bc8     LIBCMT:nlsdata.obj
 0002:00004bd0       ??_C@_04CNLMGBGM@June?$AA@ 10044bd0     LIBCMT:nlsdata.obj
 0002:00004bd8       ??_C@_04MIEPOIFP@July?$AA@ 10044bd8     LIBCMT:nlsdata.obj
 0002:00004be0       ??_C@_06LBBHFDDG@August?$AA@ 10044be0     LIBCMT:nlsdata.obj
 0002:00004be8       ??_C@_09BHHEALKD@September?$AA@ 10044be8     LIBCMT:nlsdata.obj
 0002:00004bf4       ??_C@_07JJNFCEND@October?$AA@ 10044bf4     LIBCMT:nlsdata.obj
 0002:00004bfc       ??_C@_08HCHEGEOA@November?$AA@ 10044bfc     LIBCMT:nlsdata.obj
 0002:00004c08       ??_C@_08EDHMEBNP@December?$AA@ 10044c08     LIBCMT:nlsdata.obj
 0002:00004c14       ??_C@_02DEDBPAFC@AM?$AA@   10044c14     LIBCMT:nlsdata.obj
 0002:00004c18       ??_C@_02CJNFDJBF@PM?$AA@   10044c18     LIBCMT:nlsdata.obj
 0002:00004c1c       ??_C@_08BPBNCDIB@MM?1dd?1yy?$AA@ 10044c1c     LIBCMT:nlsdata.obj
 0002:00004c28       ??_C@_0BE@CKGJFCPC@dddd?0?5MMMM?5dd?0?5yyyy?$AA@ 10044c28     LIBCMT:nlsdata.obj
 0002:00004c3c       ??_C@_08JCCMCCIL@HH?3mm?3ss?$AA@ 10044c3c     LIBCMT:nlsdata.obj
 0002:00004c48       ??_C@_17MBGCMIPB@?$AAS?$AAu?$AAn?$AA?$AA@ 10044c48     LIBCMT:nlsdata.obj
 0002:00004c50       ??_C@_17KBOMKBF@?$AAM?$AAo?$AAn?$AA?$AA@ 10044c50     LIBCMT:nlsdata.obj
 0002:00004c58       ??_C@_17BMKGEGOJ@?$AAT?$AAu?$AAe?$AA?$AA@ 10044c58     LIBCMT:nlsdata.obj
 0002:00004c60       ??_C@_17CJEDCEPE@?$AAW?$AAe?$AAd?$AA?$AA@ 10044c60     LIBCMT:nlsdata.obj
 0002:00004c68       ??_C@_17PDPHAADD@?$AAT?$AAh?$AAu?$AA?$AA@ 10044c68     LIBCMT:nlsdata.obj
 0002:00004c70       ??_C@_17HFOLPPLP@?$AAF?$AAr?$AAi?$AA?$AA@ 10044c70     LIBCMT:nlsdata.obj
 0002:00004c78       ??_C@_17GGIBDPIH@?$AAS?$AAa?$AAt?$AA?$AA@ 10044c78     LIBCMT:nlsdata.obj
 0002:00004c80       ??_C@_1O@IHNHDHPB@?$AAS?$AAu?$AAn?$AAd?$AAa?$AAy?$AA?$AA@ 10044c80     LIBCMT:nlsdata.obj
 0002:00004c90       ??_C@_1O@MMNBFLIA@?$AAM?$AAo?$AAn?$AAd?$AAa?$AAy?$AA?$AA@ 10044c90     LIBCMT:nlsdata.obj
 0002:00004ca0       ??_C@_1BA@ENFBFFEK@?$AAT?$AAu?$AAe?$AAs?$AAd?$AAa?$AAy?$AA?$AA@ 10044ca0     LIBCMT:nlsdata.obj
 0002:00004cb0       ??_C@_1BE@EBOGMDOH@?$AAW?$AAe?$AAd?$AAn?$AAe?$AAs?$AAd?$AAa?$AAy?$AA?$AA@ 10044cb0     LIBCMT:nlsdata.obj
 0002:00004cc4       ??_C@_1BC@HHMNLIHE@?$AAT?$AAh?$AAu?$AAr?$AAs?$AAd?$AAa?$AAy?$AA?$AA@ 10044cc4     LIBCMT:nlsdata.obj
 0002:00004cd8       ??_C@_1O@PDICJHAG@?$AAF?$AAr?$AAi?$AAd?$AAa?$AAy?$AA?$AA@ 10044cd8     LIBCMT:nlsdata.obj
 0002:00004ce8       ??_C@_1BC@ENMNNPAJ@?$AAS?$AAa?$AAt?$AAu?$AAr?$AAd?$AAa?$AAy?$AA?$AA@ 10044ce8     LIBCMT:nlsdata.obj
 0002:00004cfc       ??_C@_17DKNBKCHM@?$AAJ?$AAa?$AAn?$AA?$AA@ 10044cfc     LIBCMT:nlsdata.obj
 0002:00004d04       ??_C@_17LMDJEKJN@?$AAF?$AAe?$AAb?$AA?$AA@ 10044d04     LIBCMT:nlsdata.obj
 0002:00004d0c       ??_C@_17CKNLEDEC@?$AAM?$AAa?$AAr?$AA?$AA@ 10044d0c     LIBCMT:nlsdata.obj
 0002:00004d14       ??_C@_17LFPOIHDD@?$AAA?$AAp?$AAr?$AA?$AA@ 10044d14     LIBCMT:nlsdata.obj
 0002:00004d1c       ??_C@_17PNNKMEED@?$AAM?$AAa?$AAy?$AA?$AA@ 10044d1c     LIBCMT:nlsdata.obj
 0002:00004d24       ??_C@_17KCJGOCPB@?$AAJ?$AAu?$AAn?$AA?$AA@ 10044d24     LIBCMT:nlsdata.obj
 0002:00004d2c       ??_C@_17IJPCKHK@?$AAJ?$AAu?$AAl?$AA?$AA@ 10044d2c     LIBCMT:nlsdata.obj
 0002:00004d34       ??_C@_17ICPELBCN@?$AAA?$AAu?$AAg?$AA?$AA@ 10044d34     LIBCMT:nlsdata.obj
 0002:00004d3c       ??_C@_17HCHCOKMG@?$AAS?$AAe?$AAp?$AA?$AA@ 10044d3c     LIBCMT:nlsdata.obj
 0002:00004d44       ??_C@_17FNLKOI@?$AAO?$AAc?$AAt?$AA?$AA@ 10044d44     LIBCMT:nlsdata.obj
 0002:00004d4c       ??_C@_17BBDMLCIG@?$AAN?$AAo?$AAv?$AA?$AA@ 10044d4c     LIBCMT:nlsdata.obj
 0002:00004d54       ??_C@_17EGKACKIF@?$AAD?$AAe?$AAc?$AA?$AA@ 10044d54     LIBCMT:nlsdata.obj
 0002:00004d5c       ??_C@_1BA@EFMEIEBA@?$AAJ?$AAa?$AAn?$AAu?$AAa?$AAr?$AAy?$AA?$AA@ 10044d5c     LIBCMT:nlsdata.obj
 0002:00004d6c       ??_C@_1BC@JGDDFFAM@?$AAF?$AAe?$AAb?$AAr?$AAu?$AAa?$AAr?$AAy?$AA?$AA@ 10044d6c     LIBCMT:nlsdata.obj
 0002:00004d80       ??_C@_1M@IKEENEDF@?$AAM?$AAa?$AAr?$AAc?$AAh?$AA?$AA@ 10044d80     LIBCMT:nlsdata.obj
 0002:00004d8c       ??_C@_1M@GJNLMHFD@?$AAA?$AAp?$AAr?$AAi?$AAl?$AA?$AA@ 10044d8c     LIBCMT:nlsdata.obj
 0002:00004d98       ??_C@_19EPFLPGAP@?$AAJ?$AAu?$AAn?$AAe?$AA?$AA@ 10044d98     LIBCMT:nlsdata.obj
 0002:00004da4       ??_C@_19BIFMLPCD@?$AAJ?$AAu?$AAl?$AAy?$AA?$AA@ 10044da4     LIBCMT:nlsdata.obj
 0002:00004db0       ??_C@_1O@PAHLKOAC@?$AAA?$AAu?$AAg?$AAu?$AAs?$AAt?$AA?$AA@ 10044db0     LIBCMT:nlsdata.obj
 0002:00004dc0       ??_C@_1BE@DKAAMBJL@?$AAS?$AAe?$AAp?$AAt?$AAe?$AAm?$AAb?$AAe?$AAr?$AA?$AA@ 10044dc0     LIBCMT:nlsdata.obj
 0002:00004dd4       ??_C@_1BA@EPANDLNG@?$AAO?$AAc?$AAt?$AAo?$AAb?$AAe?$AAr?$AA?$AA@ 10044dd4     LIBCMT:nlsdata.obj
 0002:00004de4       ??_C@_1BC@BGLIFPF@?$AAN?$AAo?$AAv?$AAe?$AAm?$AAb?$AAe?$AAr?$AA?$AA@ 10044de4     LIBCMT:nlsdata.obj
 0002:00004df8       ??_C@_1BC@FEMKIFH@?$AAD?$AAe?$AAc?$AAe?$AAm?$AAb?$AAe?$AAr?$AA?$AA@ 10044df8     LIBCMT:nlsdata.obj
 0002:00004e0c       ??_C@_15ODEHAHHF@?$AAA?$AAM?$AA?$AA@ 10044e0c     LIBCMT:nlsdata.obj
 0002:00004e14       ??_C@_15CLMNNGEL@?$AAP?$AAM?$AA?$AA@ 10044e14     LIBCMT:nlsdata.obj
 0002:00004e1c       ??_C@_1BC@IEBCMHCM@?$AAM?$AAM?$AA?1?$AAd?$AAd?$AA?1?$AAy?$AAy?$AA?$AA@ 10044e1c     LIBCMT:nlsdata.obj
 0002:00004e30       ??_C@_1CI@KNAKOEBC@?$AAd?$AAd?$AAd?$AAd?$AA?0?$AA?5?$AAM?$AAM?$AAM?$AAM?$AA?5?$AAd?$AAd?$AA?0?$AA?5?$AAy?$AAy?$AAy?$AAy?$AA?$AA@ 10044e30     LIBCMT:nlsdata.obj
 0002:00004e58       ??_C@_1BC@GDGBMEMK@?$AAH?$AAH?$AA?3?$AAm?$AAm?$AA?3?$AAs?$AAs?$AA?$AA@ 10044e58     LIBCMT:nlsdata.obj
 0002:00004e6c       ??_C@_1BG@GOEBHBDC@?$AAU?$AAS?$AAE?$AAR?$AA3?$AA2?$AA?4?$AAD?$AAL?$AAL?$AA?$AA@ 10044e6c     LIBCMT:crtmboxw.obj
 0002:00004e84       ??_C@_0M@DLDCCGNP@MessageBoxW?$AA@ 10044e84     LIBCMT:crtmboxw.obj
 0002:00004e90       ??_C@_0BA@HNOPNCHB@GetActiveWindow?$AA@ 10044e90     LIBCMT:crtmboxw.obj
 0002:00004ea0       ??_C@_0BD@HHGDFDBJ@GetLastActivePopup?$AA@ 10044ea0     LIBCMT:crtmboxw.obj
 0002:00004eb4       ??_C@_0BK@DEKFELLI@GetUserObjectInformationW?$AA@ 10044eb4     LIBCMT:crtmboxw.obj
 0002:00004ed0       ??_C@_0BI@DFKBFLJE@GetProcessWindowStation?$AA@ 10044ed0     LIBCMT:crtmboxw.obj
 0002:00004ee8       ??_C@_03KHJOGHMM@exp?$AA@  10044ee8     LIBCMT:fpexcept.obj
 0002:00004eec       ??_C@_03JGHBODFD@pow?$AA@  10044eec     LIBCMT:fpexcept.obj
 0002:00004ef0       ??_C@_03MGHMBJCF@log?$AA@  10044ef0     LIBCMT:fpexcept.obj
 0002:00004ef4       ??_C@_05HGHHAHAP@log10?$AA@ 10044ef4     LIBCMT:fpexcept.obj
 0002:00004efc       ??_C@_04COOMCNPB@sinh?$AA@ 10044efc     LIBCMT:fpexcept.obj
 0002:00004f04       ??_C@_04HPJJNFIM@cosh?$AA@ 10044f04     LIBCMT:fpexcept.obj
 0002:00004f0c       ??_C@_04FJHINJAO@tanh?$AA@ 10044f0c     LIBCMT:fpexcept.obj
 0002:00004f14       ??_C@_04FIHNOPOL@asin?$AA@ 10044f14     LIBCMT:fpexcept.obj
 0002:00004f1c       ??_C@_04PDIFKINK@acos?$AA@ 10044f1c     LIBCMT:fpexcept.obj
 0002:00004f24       ??_C@_04MLLJIGOK@atan?$AA@ 10044f24     LIBCMT:fpexcept.obj
 0002:00004f2c       ??_C@_05KNGEOGJB@atan2?$AA@ 10044f2c     LIBCMT:fpexcept.obj
 0002:00004f34       ??_C@_04EIAKFFMI@sqrt?$AA@ 10044f34     LIBCMT:fpexcept.obj
 0002:00004f3c       ??_C@_03BLEJJJBH@sin?$AA@  10044f3c     LIBCMT:fpexcept.obj
 0002:00004f40       ??_C@_03LALBNOCG@cos?$AA@  10044f40     LIBCMT:fpexcept.obj
 0002:00004f44       ??_C@_03IIINPABG@tan?$AA@  10044f44     LIBCMT:fpexcept.obj
 0002:00004f48       ??_C@_04GFPJNGEK@ceil?$AA@ 10044f48     LIBCMT:fpexcept.obj
 0002:00004f50       ??_C@_05PBJFFIGL@floor?$AA@ 10044f50     LIBCMT:fpexcept.obj
 0002:00004f58       ??_C@_04ODHECPBC@fabs?$AA@ 10044f58     LIBCMT:fpexcept.obj
 0002:00004f60       ??_C@_04EHEDPDJG@modf?$AA@ 10044f60     LIBCMT:fpexcept.obj
 0002:00004f68       ??_C@_05CEJMAHNP@ldexp?$AA@ 10044f68     LIBCMT:fpexcept.obj
 0002:00004f70       ??_C@_05KBKMEMPO@_cabs?$AA@ 10044f70     LIBCMT:fpexcept.obj
 0002:00004f78       ??_C@_06MEIMCGCF@_hypot?$AA@ 10044f78     LIBCMT:fpexcept.obj
 0002:00004f80       ??_C@_04KEPJIHGP@fmod?$AA@ 10044f80     LIBCMT:fpexcept.obj
 0002:00004f88       ??_C@_05GKKHEGJL@frexp?$AA@ 10044f88     LIBCMT:fpexcept.obj
 0002:00004f90       ??_C@_03MJLDFKDL@_y0?$AA@  10044f90     LIBCMT:fpexcept.obj
 0002:00004f94       ??_C@_03NAKIGLHK@_y1?$AA@  10044f94     LIBCMT:fpexcept.obj
 0002:00004f98       ??_C@_03ONILCKOB@_yn?$AA@  10044f98     LIBCMT:fpexcept.obj
 0002:00004f9c       ??_C@_05JGDBENOH@_logb?$AA@ 10044f9c     LIBCMT:fpexcept.obj
 0002:00004fa4       ??_C@_0L@KDOEJCKC@_nextafter?$AA@ 10044fa4     LIBCMT:fpexcept.obj
 0002:00004fc0       ___lc_category             10044fc0     LIBCMT:wsetloca.obj
 0002:00005008       ??_C@_1O@GIFLHMA@?$AAL?$AAC?$AA_?$AAA?$AAL?$AAL?$AA?$AA@ 10045008     LIBCMT:wsetloca.obj
 0002:00005018       ??_C@_1BG@PPOMIBNJ@?$AAL?$AAC?$AA_?$AAC?$AAO?$AAL?$AAL?$AAA?$AAT?$AAE?$AA?$AA@ 10045018     LIBCMT:wsetloca.obj
 0002:00005030       ??_C@_1BC@FFJGAPJM@?$AAL?$AAC?$AA_?$AAC?$AAT?$AAY?$AAP?$AAE?$AA?$AA@ 10045030     LIBCMT:wsetloca.obj
 0002:00005044       ??_C@_1BI@PCKFNJFB@?$AAL?$AAC?$AA_?$AAM?$AAO?$AAN?$AAE?$AAT?$AAA?$AAR?$AAY?$AA?$AA@ 10045044     LIBCMT:wsetloca.obj
 0002:0000505c       ??_C@_1BG@ENIEDKID@?$AAL?$AAC?$AA_?$AAN?$AAU?$AAM?$AAE?$AAR?$AAI?$AAC?$AA?$AA@ 1004505c     LIBCMT:wsetloca.obj
 0002:00005074       ??_C@_1BA@HAAOMIIG@?$AAL?$AAC?$AA_?$AAT?$AAI?$AAM?$AAE?$AA?$AA@ 10045074     LIBCMT:wsetloca.obj
 0002:00005108       ??_C@_15NBPDDFIP@?$AA?$DN?$AA?$DL?$AA?$AA@ 10045108     LIBCMT:wsetloca.obj
 0002:00005110       ??_C@_13PJJBFPED@?$AA?$DL?$AA?$AA@ 10045110     LIBCMT:wsetloca.obj
 0002:00005114       ??_C@_13NMPKAAJP@?$AA?$DN?$AA?$AA@ 10045114     LIBCMT:wsetloca.obj
 0002:00005118       ??_C@_13FHBKNHDA@?$AAC?$AA?$AA@ 10045118     LIBCMT:wsetloca.obj
 0002:0000511c       ??_C@_17MBJJLFDM@?$AA_?$AA?4?$AA?0?$AA?$AA@ 1004511c     LIBCMT:wsetloca.obj
 0002:00005124       ??_C@_13ENNFDPBH@?$AA_?$AA?$AA@ 10045124     LIBCMT:wsetloca.obj
 0002:00005128       ??_C@_13JOFGPIOO@?$AA?4?$AA?$AA@ 10045128     LIBCMT:wsetloca.obj
 0002:00005130       __XcptActTab               10045130     LIBCMT:winxfltr.obj
 0002:000051c0       __XcptActTabCount          100451c0     LIBCMT:winxfltr.obj
 0002:000051c4       __XcptActTabSize           100451c4     LIBCMT:winxfltr.obj
 0002:000051c8       __First_FPE_Indx           100451c8     LIBCMT:winxfltr.obj
 0002:000051cc       __Num_FPE                  100451cc     LIBCMT:winxfltr.obj
 0002:000051d0       __pDestructExceptionObject 100451d0     LIBCMT:frame.obj
 0002:000051d8       ??_7bad_exception@std@@6B@ 100451d8     LIBCMT:frame.obj
 0002:000051e0       ??_C@_0O@DPKOEFFH@bad?5exception?$AA@ 100451e0     LIBCMT:frame.obj
 0002:000051f0       ??_C@_05KLBDPFGC@e?$CL000?$AA@ 100451f0     LIBCMT:cvt.obj
 0002:000051f8       ___dnames                  100451f8     LIBCMT:timeset.obj
 0002:00005210       ___mnames                  10045210     LIBCMT:timeset.obj
 0002:00005240       __indefinite               10045240     LIBCMT:87disp.obj
 0002:0000524a       __piby2                    1004524a     LIBCMT:87disp.obj
 0002:00005278       __DEFAULT_CW_in_mem        10045278     LIBCMT:common.obj
 0002:0000527a       __pi_by_2_to_61            1004527a     LIBCMT:common.obj
 0002:000052b8       ___lookuptable_s           100452b8     LIBCMT:outputs.obj
 0002:000054a4       ??_C@_08EHJDFFNH@__based?$CI?$AA@ 100454a4     LIBCMT:undname.obj
 0002:000054b0       ??_C@_07KOLFKCDI@__cdecl?$AA@ 100454b0     LIBCMT:undname.obj
 0002:000054b8       ??_C@_08GHMPAG@__pascal?$AA@ 100454b8     LIBCMT:undname.obj
 0002:000054c4       ??_C@_09IFJBGAPI@__stdcall?$AA@ 100454c4     LIBCMT:undname.obj
 0002:000054d0       ??_C@_0L@NPHFGOKO@__thiscall?$AA@ 100454d0     LIBCMT:undname.obj
 0002:000054dc       ??_C@_0L@JMKHOMEK@__fastcall?$AA@ 100454dc     LIBCMT:undname.obj
 0002:000054e8       ??_C@_0N@BCKKPABJ@__vectorcall?$AA@ 100454e8     LIBCMT:undname.obj
 0002:000054f8       ??_C@_09HIJEGCPM@__clrcall?$AA@ 100454f8     LIBCMT:undname.obj
 0002:00005504       ??_C@_06GHPCKEAG@__eabi?$AA@ 10045504     LIBCMT:undname.obj
 0002:0000550c       ??_C@_07JOMMBBKO@__ptr64?$AA@ 1004550c     LIBCMT:undname.obj
 0002:00005514       ??_C@_0L@PILCLIHE@__restrict?$AA@ 10045514     LIBCMT:undname.obj
 0002:00005520       ??_C@_0M@GFIIJFMG@__unaligned?$AA@ 10045520     LIBCMT:undname.obj
 0002:0000552c       ??_C@_09DHDLOLLB@restrict?$CI?$AA@ 1004552c     LIBCMT:undname.obj
 0002:00005538       ??_C@_04NIHEBCM@?5new?$AA@ 10045538     LIBCMT:undname.obj
 0002:00005540       ??_C@_07FPCDHGMM@?5delete?$AA@ 10045540     LIBCMT:undname.obj
 0002:00005548       ??_C@_01NEMOKFLO@?$DN?$AA@ 10045548     LIBCMT:undname.obj
 0002:0000554c       ??_C@_02GPIOPFAK@?$DO?$DO?$AA@ 1004554c     LIBCMT:undname.obj
 0002:00005550       ??_C@_02FODMEDOG@?$DM?$DM?$AA@ 10045550     LIBCMT:undname.obj
 0002:00005554       ??_C@_01DCLJPIOD@?$CB?$AA@ 10045554     LIBCMT:undname.obj
 0002:00005558       ??_C@_02EGOFBIJA@?$DN?$DN?$AA@ 10045558     LIBCMT:undname.obj
 0002:0000555c       ??_C@_02FDNJECIE@?$CB?$DN?$AA@ 1004555c     LIBCMT:undname.obj
 0002:00005560       ??_C@_02GPECMEKF@?$FL?$FN?$AA@ 10045560     LIBCMT:undname.obj
 0002:00005564       ??_C@_08LHJFAFGD@operator?$AA@ 10045564     LIBCMT:undname.obj
 0002:00005570       ??_C@_02HBOOOICD@?9?$DO?$AA@ 10045570     LIBCMT:undname.obj
 0002:00005574       ??_C@_02ECNGHCIF@?$CL?$CL?$AA@ 10045574     LIBCMT:undname.obj
 0002:00005578       ??_C@_02BAABKJLB@?9?9?$AA@ 10045578     LIBCMT:undname.obj
 0002:0000557c       ??_C@_01MIFGBAGJ@?$CL?$AA@ 1004557c     LIBCMT:undname.obj
 0002:00005580       ??_C@_01HNPIGOCE@?$CG?$AA@ 10045580     LIBCMT:undname.obj
 0002:00005584       ??_C@_03MNHNFDLC@?9?$DO?$CK?$AA@ 10045584     LIBCMT:undname.obj
 0002:00005588       ??_C@_01KMDKNFGN@?1?$AA@   10045588     LIBCMT:undname.obj
 0002:0000558c       ??_C@_01FGNFDNOH@?$CF?$AA@ 1004558c     LIBCMT:undname.obj
 0002:00005590       ??_C@_01MNNFJEPP@?$DM?$AA@ 10045590     LIBCMT:undname.obj
 0002:00005594       ??_C@_02EHCHHCKH@?$DM?$DN?$AA@ 10045594     LIBCMT:undname.obj
 0002:00005598       ??_C@_01PPODPGHN@?$DO?$AA@ 10045598     LIBCMT:undname.obj
 0002:0000559c       ??_C@_02EEKDKGMJ@?$DO?$DN?$AA@ 1004559c     LIBCMT:undname.obj
 0002:000055a0       ??_C@_01IHBHIGKO@?0?$AA@   100455a0     LIBCMT:undname.obj
 0002:000055a4       ??_C@_02HCKGKOFO@?$CI?$CJ?$AA@ 100455a4     LIBCMT:undname.obj
 0002:000055a8       ??_C@_01PJKLJHI@?$HO?$AA@  100455a8     LIBCMT:undname.obj
 0002:000055ac       ??_C@_01JKBOJNNK@?$FO?$AA@ 100455ac     LIBCMT:undname.obj
 0002:000055b0       ??_C@_01DNKMNLPK@?$HM?$AA@ 100455b0     LIBCMT:undname.obj
 0002:000055b4       ??_C@_02PPKAJPJL@?$CG?$CG?$AA@ 100455b4     LIBCMT:undname.obj
 0002:000055b8       ??_C@_02NONPIBCD@?$HM?$HM?$AA@ 100455b8     LIBCMT:undname.obj
 0002:000055bc       ??_C@_02FPIMKNGF@?$CK?$DN?$AA@ 100455bc     LIBCMT:undname.obj
 0002:000055c0       ??_C@_02FOEOMHFC@?$CL?$DN?$AA@ 100455c0     LIBCMT:undname.obj
 0002:000055c4       ??_C@_02FKMDLLOA@?9?$DN?$AA@ 100455c4     LIBCMT:undname.obj
 0002:000055c8       ??_C@_02FJEHGPIO@?1?$DN?$AA@ 100455c8     LIBCMT:undname.obj
 0002:000055cc       ??_C@_02FENAOKFI@?$CF?$DN?$AA@ 100455cc     LIBCMT:undname.obj
 0002:000055d0       ??_C@_03IKFCCPFF@?$DO?$DO?$DN?$AA@ 100455d0     LIBCMT:undname.obj
 0002:000055d4       ??_C@_03CDNPDDLA@?$DM?$DM?$DN?$AA@ 100455d4     LIBCMT:undname.obj
 0002:000055d8       ??_C@_02FGJGFEAB@?$CG?$DN?$AA@ 100455d8     LIBCMT:undname.obj
 0002:000055dc       ??_C@_02DHLNPPGH@?$HM?$DN?$AA@ 100455dc     LIBCMT:undname.obj
 0002:000055e0       ??_C@_02MHEGNOJ@?$FO?$DN?$AA@ 100455e0     LIBCMT:undname.obj
 0002:000055e4       ??_C@_09IFPLHPGF@?$GAvftable?8?$AA@ 100455e4     LIBCMT:undname.obj
 0002:000055f0       ??_C@_09BLBHBJP@?$GAvbtable?8?$AA@ 100455f0     LIBCMT:undname.obj
 0002:000055fc       ??_C@_07FEEIOKP@?$GAvcall?8?$AA@ 100455fc     LIBCMT:undname.obj
 0002:00005604       ??_C@_08LLFFHHDJ@?$GAtypeof?8?$AA@ 10045604     LIBCMT:undname.obj
 0002:00005610       ??_C@_0BF@KDPPACIK@?$GAlocal?5static?5guard?8?$AA@ 10045610     LIBCMT:undname.obj
 0002:00005628       ??_C@_08OBABFOLI@?$GAstring?8?$AA@ 10045628     LIBCMT:undname.obj
 0002:00005634       ??_C@_0BD@JDLKDPAB@?$GAvbase?5destructor?8?$AA@ 10045634     LIBCMT:undname.obj
 0002:00005648       ??_C@_0BN@DEGPLNFK@?$GAvector?5deleting?5destructor?8?$AA@ 10045648     LIBCMT:undname.obj
 0002:00005668       ??_C@_0BO@OBMKPJIG@?$GAdefault?5constructor?5closure?8?$AA@ 10045668     LIBCMT:undname.obj
 0002:00005688       ??_C@_0BN@IMDCHIKM@?$GAscalar?5deleting?5destructor?8?$AA@ 10045688     LIBCMT:undname.obj
 0002:000056a8       ??_C@_0BO@PFGOCPJJ@?$GAvector?5constructor?5iterator?8?$AA@ 100456a8     LIBCMT:undname.obj
 0002:000056c8       ??_C@_0BN@LFPFMEDL@?$GAvector?5destructor?5iterator?8?$AA@ 100456c8     LIBCMT:undname.obj
 0002:000056e8       ??_C@_0CE@IKBNEHA@?$GAvector?5vbase?5constructor?5iterat@ 100456e8     LIBCMT:undname.obj
 0002:0000570c       ??_C@_0BL@NILFHHPC@?$GAvirtual?5displacement?5map?8?$AA@ 1004570c     LIBCMT:undname.obj
 0002:00005728       ??_C@_0CB@JONCMFFK@?$GAeh?5vector?5constructor?5iterator?8@ 10045728     LIBCMT:undname.obj
 0002:0000574c       ??_C@_0CA@GCEOPDGL@?$GAeh?5vector?5destructor?5iterator?8?$AA@ 1004574c     LIBCMT:undname.obj
 0002:0000576c       ??_C@_0CH@OOJPLCPH@?$GAeh?5vector?5vbase?5constructor?5ite@ 1004576c     LIBCMT:undname.obj
 0002:00005794       ??_C@_0BL@LLKPOHJI@?$GAcopy?5constructor?5closure?8?$AA@ 10045794     LIBCMT:undname.obj
 0002:000057b0       ??_C@_0BA@KBCDOMBN@?$GAudt?5returning?8?$AA@ 100457b0     LIBCMT:undname.obj
 0002:000057c0       ??_C@_03KLGMFNMG@?$GAEH?$AA@ 100457c0     LIBCMT:undname.obj
 0002:000057c4       ??_C@_05KHLCHHI@?$GARTTI?$AA@ 100457c4     LIBCMT:undname.obj
 0002:000057cc       ??_C@_0BA@KKLDJDLB@?$GAlocal?5vftable?8?$AA@ 100457cc     LIBCMT:undname.obj
 0002:000057dc       ??_C@_0CE@IIHCMGGL@?$GAlocal?5vftable?5constructor?5closu@ 100457dc     LIBCMT:undname.obj
 0002:00005800       ??_C@_06FHBGPFGH@?5new?$FL?$FN?$AA@ 10045800     LIBCMT:undname.obj
 0002:00005808       ??_C@_09LBNFPBCA@?5delete?$FL?$FN?$AA@ 10045808     LIBCMT:undname.obj
 0002:00005814       ??_C@_0P@HJKNJFNN@?$GAomni?5callsig?8?$AA@ 10045814     LIBCMT:undname.obj
 0002:00005824       ??_C@_0BL@CNOONJFP@?$GAplacement?5delete?5closure?8?$AA@ 10045824     LIBCMT:undname.obj
 0002:00005840       ??_C@_0BN@CKNJLHMB@?$GAplacement?5delete?$FL?$FN?5closure?8?$AA@ 10045840     LIBCMT:undname.obj
 0002:00005860       ??_C@_0CG@CFDHKGGD@?$GAmanaged?5vector?5constructor?5iter@ 10045860     LIBCMT:undname.obj
 0002:00005888       ??_C@_0CF@IMGKMJNO@?$GAmanaged?5vector?5destructor?5itera@ 10045888     LIBCMT:undname.obj
 0002:000058b0       ??_C@_0CG@HLDDJMAG@?$GAeh?5vector?5copy?5constructor?5iter@ 100458b0     LIBCMT:undname.obj
 0002:000058d8       ??_C@_0CM@FCBBDIGB@?$GAeh?5vector?5vbase?5copy?5constructo@ 100458d8     LIBCMT:undname.obj
 0002:00005904       ??_C@_0BL@CLIPGLGB@?$GAdynamic?5initializer?5for?5?8?$AA@ 10045904     LIBCMT:undname.obj
 0002:00005920       ??_C@_0CB@PDBIFEP@?$GAdynamic?5atexit?5destructor?5for?5?8@ 10045920     LIBCMT:undname.obj
 0002:00005944       ??_C@_0CD@CGAJBKEJ@?$GAvector?5copy?5constructor?5iterato@ 10045944     LIBCMT:undname.obj
 0002:00005968       ??_C@_0CJ@GJELGAMM@?$GAvector?5vbase?5copy?5constructor?5i@ 10045968     LIBCMT:undname.obj
 0002:00005994       ??_C@_0CL@FGIJHLCE@?$GAmanaged?5vector?5copy?5constructor@ 10045994     LIBCMT:undname.obj
 0002:000059c0       ??_C@_0BM@PMGGMLDN@?$GAlocal?5static?5thread?5guard?8?$AA@ 100459c0     LIBCMT:undname.obj
 0002:000059dc       ??_C@_0BC@DAFEJGAK@?5Type?5Descriptor?8?$AA@ 100459dc     LIBCMT:undname.obj
 0002:000059f0       ??_C@_0BM@LDKODKLH@?5Base?5Class?5Descriptor?5at?5?$CI?$AA@ 100459f0     LIBCMT:undname.obj
 0002:00005a0c       ??_C@_0BD@LGICGFMM@?5Base?5Class?5Array?8?$AA@ 10045a0c     LIBCMT:undname.obj
 0002:00005a20       ??_C@_0BN@MECKDCOJ@?5Class?5Hierarchy?5Descriptor?8?$AA@ 10045a20     LIBCMT:undname.obj
 0002:00005a40       ??_C@_0BK@CFCOFLF@?5Complete?5Object?5Locator?8?$AA@ 10045a40     LIBCMT:undname.obj
 0002:00005a60       ___rg_language             10045a60     LIBCMT:getqloc.obj
 0002:00005d6c       ??_C@_1BC@LLOKLNP@?$AAa?$AAm?$AAe?$AAr?$AAi?$AAc?$AAa?$AAn?$AA?$AA@ 10045d6c     LIBCMT:getqloc.obj
 0002:00005d80       ??_C@_1CC@HEIGCDGG@?$AAa?$AAm?$AAe?$AAr?$AAi?$AAc?$AAa?$AAn?$AA?5?$AAe?$AAn?$AAg?$AAl?$AAi?$AAs?$AAh?$AA?$AA@ 10045d80     LIBCMT:getqloc.obj
 0002:00005da4       ??_C@_1CC@IHCNOMIN@?$AAa?$AAm?$AAe?$AAr?$AAi?$AAc?$AAa?$AAn?$AA?9?$AAe?$AAn?$AAg?$AAl?$AAi?$AAs?$AAh?$AA?$AA@ 10045da4     LIBCMT:getqloc.obj
 0002:00005dc8       ??_C@_1BG@GKAGPCGG@?$AAa?$AAu?$AAs?$AAt?$AAr?$AAa?$AAl?$AAi?$AAa?$AAn?$AA?$AA@ 10045dc8     LIBCMT:getqloc.obj
 0002:00005de0       ??_C@_1BA@GMENCENF@?$AAb?$AAe?$AAl?$AAg?$AAi?$AAa?$AAn?$AA?$AA@ 10045de0     LIBCMT:getqloc.obj
 0002:00005df0       ??_C@_1BC@PJMIIAAN@?$AAc?$AAa?$AAn?$AAa?$AAd?$AAi?$AAa?$AAn?$AA?$AA@ 10045df0     LIBCMT:getqloc.obj
 0002:00005e04       ??_C@_17NOIMNFBF@?$AAc?$AAh?$AAh?$AA?$AA@ 10045e04     LIBCMT:getqloc.obj
 0002:00005e0c       ??_C@_17GGDALCHA@?$AAc?$AAh?$AAi?$AA?$AA@ 10045e0c     LIBCMT:getqloc.obj
 0002:00005e14       ??_C@_1BA@NPNJKIBL@?$AAc?$AAh?$AAi?$AAn?$AAe?$AAs?$AAe?$AA?$AA@ 10045e14     LIBCMT:getqloc.obj
 0002:00005e24       ??_C@_1CC@DINBAMMJ@?$AAc?$AAh?$AAi?$AAn?$AAe?$AAs?$AAe?$AA?9?$AAh?$AAo?$AAn?$AAg?$AAk?$AAo?$AAn?$AAg?$AA?$AA@ 10045e24     LIBCMT:getqloc.obj
 0002:00005e48       ??_C@_1CG@IOBJPACO@?$AAc?$AAh?$AAi?$AAn?$AAe?$AAs?$AAe?$AA?9?$AAs?$AAi?$AAm?$AAp?$AAl?$AAi?$AAf?$AAi?$AAe?$AAd?$AA?$AA@ 10045e48     LIBCMT:getqloc.obj
 0002:00005e70       ??_C@_1CE@GAJNDCKG@?$AAc?$AAh?$AAi?$AAn?$AAe?$AAs?$AAe?$AA?9?$AAs?$AAi?$AAn?$AAg?$AAa?$AAp?$AAo?$AAr?$AAe?$AA?$AA@ 10045e70     LIBCMT:getqloc.obj
 0002:00005e94       ??_C@_1CI@PAJPIOOD@?$AAc?$AAh?$AAi?$AAn?$AAe?$AAs?$AAe?$AA?9?$AAt?$AAr?$AAa?$AAd?$AAi?$AAt?$AAi?$AAo?$AAn?$AAa?$AAl?$AA?$AA@ 10045e94     LIBCMT:getqloc.obj
 0002:00005ebc       ??_C@_1BM@NILJBMMD@?$AAd?$AAu?$AAt?$AAc?$AAh?$AA?9?$AAb?$AAe?$AAl?$AAg?$AAi?$AAa?$AAn?$AA?$AA@ 10045ebc     LIBCMT:getqloc.obj
 0002:00005ed8       ??_C@_1CC@OOJPJNEJ@?$AAe?$AAn?$AAg?$AAl?$AAi?$AAs?$AAh?$AA?9?$AAa?$AAm?$AAe?$AAr?$AAi?$AAc?$AAa?$AAn?$AA?$AA@ 10045ed8     LIBCMT:getqloc.obj
 0002:00005efc       ??_C@_1BI@IOLFEEM@?$AAe?$AAn?$AAg?$AAl?$AAi?$AAs?$AAh?$AA?9?$AAa?$AAu?$AAs?$AA?$AA@ 10045efc     LIBCMT:getqloc.obj
 0002:00005f14       ??_C@_1BO@HFFNLENJ@?$AAe?$AAn?$AAg?$AAl?$AAi?$AAs?$AAh?$AA?9?$AAb?$AAe?$AAl?$AAi?$AAz?$AAe?$AA?$AA@ 10045f14     LIBCMT:getqloc.obj
 0002:00005f34       ??_C@_1BI@HAPKJMPO@?$AAe?$AAn?$AAg?$AAl?$AAi?$AAs?$AAh?$AA?9?$AAc?$AAa?$AAn?$AA?$AA@ 10045f34     LIBCMT:getqloc.obj
 0002:00005f4c       ??_C@_1CE@HLNDMIOJ@?$AAe?$AAn?$AAg?$AAl?$AAi?$AAs?$AAh?$AA?9?$AAc?$AAa?$AAr?$AAi?$AAb?$AAb?$AAe?$AAa?$AAn?$AA?$AA@ 10045f4c     LIBCMT:getqloc.obj
 0002:00005f70       ??_C@_1BI@LDHJHHAC@?$AAe?$AAn?$AAg?$AAl?$AAi?$AAs?$AAh?$AA?9?$AAi?$AAr?$AAe?$AA?$AA@ 10045f70     LIBCMT:getqloc.obj
 0002:00005f88       ??_C@_1CA@NJMMCFOC@?$AAe?$AAn?$AAg?$AAl?$AAi?$AAs?$AAh?$AA?9?$AAj?$AAa?$AAm?$AAa?$AAi?$AAc?$AAa?$AA?$AA@ 10045f88     LIBCMT:getqloc.obj
 0002:00005fa8       ??_C@_1BG@BHJEBBGG@?$AAe?$AAn?$AAg?$AAl?$AAi?$AAs?$AAh?$AA?9?$AAn?$AAz?$AA?$AA@ 10045fa8     LIBCMT:getqloc.obj
 0002:00005fc0       ??_C@_1CK@FGOEJJCO@?$AAe?$AAn?$AAg?$AAl?$AAi?$AAs?$AAh?$AA?9?$AAs?$AAo?$AAu?$AAt?$AAh?$AA?5?$AAa?$AAf?$AAr?$AAi?$AAc?$AAa?$AA?$AA@ 10045fc0     LIBCMT:getqloc.obj
 0002:00005fec       ??_C@_1DE@PDBJPCJ@?$AAe?$AAn?$AAg?$AAl?$AAi?$AAs?$AAh?$AA?9?$AAt?$AAr?$AAi?$AAn?$AAi?$AAd?$AAa?$AAd?$AA?5?$AAy?$AA?5?$AAt?$AAo?$AAb?$AAa?$AAg?$AAo?$AA?$AA@ 10045fec     LIBCMT:getqloc.obj
 0002:00006020       ??_C@_1BG@JGCANDME@?$AAe?$AAn?$AAg?$AAl?$AAi?$AAs?$AAh?$AA?9?$AAu?$AAk?$AA?$AA@ 10046020     LIBCMT:getqloc.obj
 0002:00006038       ??_C@_1BG@DINKMLE@?$AAe?$AAn?$AAg?$AAl?$AAi?$AAs?$AAh?$AA?9?$AAu?$AAs?$AA?$AA@ 10046038     LIBCMT:getqloc.obj
 0002:00006050       ??_C@_1BI@NMFDBHJE@?$AAe?$AAn?$AAg?$AAl?$AAi?$AAs?$AAh?$AA?9?$AAu?$AAs?$AAa?$AA?$AA@ 10046050     LIBCMT:getqloc.obj
 0002:00006068       ??_C@_1BO@OIHKJKII@?$AAf?$AAr?$AAe?$AAn?$AAc?$AAh?$AA?9?$AAb?$AAe?$AAl?$AAg?$AAi?$AAa?$AAn?$AA?$AA@ 10046068     LIBCMT:getqloc.obj
 0002:00006088       ??_C@_1CA@NKAELJKI@?$AAf?$AAr?$AAe?$AAn?$AAc?$AAh?$AA?9?$AAc?$AAa?$AAn?$AAa?$AAd?$AAi?$AAa?$AAn?$AA?$AA@ 10046088     LIBCMT:getqloc.obj
 0002:000060a8       ??_C@_1CE@MGKCNLGN@?$AAf?$AAr?$AAe?$AAn?$AAc?$AAh?$AA?9?$AAl?$AAu?$AAx?$AAe?$AAm?$AAb?$AAo?$AAu?$AAr?$AAg?$AA?$AA@ 100460a8     LIBCMT:getqloc.obj
 0002:000060cc       ??_C@_1BK@CEGEAILM@?$AAf?$AAr?$AAe?$AAn?$AAc?$AAh?$AA?9?$AAs?$AAw?$AAi?$AAs?$AAs?$AA?$AA@ 100460cc     LIBCMT:getqloc.obj
 0002:000060e8       ??_C@_1CA@PAFKEOCC@?$AAg?$AAe?$AAr?$AAm?$AAa?$AAn?$AA?9?$AAa?$AAu?$AAs?$AAt?$AAr?$AAi?$AAa?$AAn?$AA?$AA@ 100460e8     LIBCMT:getqloc.obj
 0002:00006108       ??_C@_1CI@HCFHGOFD@?$AAg?$AAe?$AAr?$AAm?$AAa?$AAn?$AA?9?$AAl?$AAi?$AAc?$AAh?$AAt?$AAe?$AAn?$AAs?$AAt?$AAe?$AAi?$AAn?$AA?$AA@ 10046108     LIBCMT:getqloc.obj
 0002:00006130       ??_C@_1CE@FEDDNPDG@?$AAg?$AAe?$AAr?$AAm?$AAa?$AAn?$AA?9?$AAl?$AAu?$AAx?$AAe?$AAm?$AAb?$AAo?$AAu?$AAr?$AAg?$AA?$AA@ 10046130     LIBCMT:getqloc.obj
 0002:00006154       ??_C@_1BK@LIMINNMN@?$AAg?$AAe?$AAr?$AAm?$AAa?$AAn?$AA?9?$AAs?$AAw?$AAi?$AAs?$AAs?$AA?$AA@ 10046154     LIBCMT:getqloc.obj
 0002:00006170       ??_C@_1BM@LGMDBEPD@?$AAi?$AAr?$AAi?$AAs?$AAh?$AA?9?$AAe?$AAn?$AAg?$AAl?$AAi?$AAs?$AAh?$AA?$AA@ 10046170     LIBCMT:getqloc.obj
 0002:0000618c       ??_C@_1BM@NNCFBAEE@?$AAi?$AAt?$AAa?$AAl?$AAi?$AAa?$AAn?$AA?9?$AAs?$AAw?$AAi?$AAs?$AAs?$AA?$AA@ 1004618c     LIBCMT:getqloc.obj
 0002:000061a8       ??_C@_1BE@FEDJNPIB@?$AAn?$AAo?$AAr?$AAw?$AAe?$AAg?$AAi?$AAa?$AAn?$AA?$AA@ 100461a8     LIBCMT:getqloc.obj
 0002:000061bc       ??_C@_1CC@CILKDEIE@?$AAn?$AAo?$AAr?$AAw?$AAe?$AAg?$AAi?$AAa?$AAn?$AA?9?$AAb?$AAo?$AAk?$AAm?$AAa?$AAl?$AA?$AA@ 100461bc     LIBCMT:getqloc.obj
 0002:000061e0       ??_C@_1CE@DHMMHEPL@?$AAn?$AAo?$AAr?$AAw?$AAe?$AAg?$AAi?$AAa?$AAn?$AA?9?$AAn?$AAy?$AAn?$AAo?$AAr?$AAs?$AAk?$AA?$AA@ 100461e0     LIBCMT:getqloc.obj
 0002:00006204       ??_C@_1CK@OPNMHECD@?$AAp?$AAo?$AAr?$AAt?$AAu?$AAg?$AAu?$AAe?$AAs?$AAe?$AA?9?$AAb?$AAr?$AAa?$AAz?$AAi?$AAl?$AAi?$AAa?$AAn?$AA?$AA@ 10046204     LIBCMT:getqloc.obj
 0002:00006230       ??_C@_1CE@KEEHCDB@?$AAs?$AAp?$AAa?$AAn?$AAi?$AAs?$AAh?$AA?9?$AAa?$AAr?$AAg?$AAe?$AAn?$AAt?$AAi?$AAn?$AAa?$AA?$AA@ 10046230     LIBCMT:getqloc.obj
 0002:00006254       ??_C@_1CA@GIAOLHJD@?$AAs?$AAp?$AAa?$AAn?$AAi?$AAs?$AAh?$AA?9?$AAb?$AAo?$AAl?$AAi?$AAv?$AAi?$AAa?$AA?$AA@ 10046254     LIBCMT:getqloc.obj
 0002:00006274       ??_C@_1BM@OJNDFNPD@?$AAs?$AAp?$AAa?$AAn?$AAi?$AAs?$AAh?$AA?9?$AAc?$AAh?$AAi?$AAl?$AAe?$AA?$AA@ 10046274     LIBCMT:getqloc.obj
 0002:00006290       ??_C@_1CC@OCOLPALL@?$AAs?$AAp?$AAa?$AAn?$AAi?$AAs?$AAh?$AA?9?$AAc?$AAo?$AAl?$AAo?$AAm?$AAb?$AAi?$AAa?$AA?$AA@ 10046290     LIBCMT:getqloc.obj
 0002:000062b4       ??_C@_1CG@BPOFMKBB@?$AAs?$AAp?$AAa?$AAn?$AAi?$AAs?$AAh?$AA?9?$AAc?$AAo?$AAs?$AAt?$AAa?$AA?5?$AAr?$AAi?$AAc?$AAa?$AA?$AA@ 100462b4     LIBCMT:getqloc.obj
 0002:000062dc       ??_C@_1DG@IGOBAPBB@?$AAs?$AAp?$AAa?$AAn?$AAi?$AAs?$AAh?$AA?9?$AAd?$AAo?$AAm?$AAi?$AAn?$AAi?$AAc?$AAa?$AAn?$AA?5?$AAr?$AAe?$AAp?$AAu?$AAb?$AAl?$AAi?$AAc?$AA?$AA@ 100462dc     LIBCMT:getqloc.obj
 0002:00006314       ??_C@_1CA@JHAPGEGI@?$AAs?$AAp?$AAa?$AAn?$AAi?$AAs?$AAh?$AA?9?$AAe?$AAc?$AAu?$AAa?$AAd?$AAo?$AAr?$AA?$AA@ 10046314     LIBCMT:getqloc.obj
 0002:00006334       ??_C@_1CI@LAPALJPP@?$AAs?$AAp?$AAa?$AAn?$AAi?$AAs?$AAh?$AA?9?$AAe?$AAl?$AA?5?$AAs?$AAa?$AAl?$AAv?$AAa?$AAd?$AAo?$AAr?$AA?$AA@ 10046334     LIBCMT:getqloc.obj
 0002:0000635c       ??_C@_1CE@PDGBOFOM@?$AAs?$AAp?$AAa?$AAn?$AAi?$AAs?$AAh?$AA?9?$AAg?$AAu?$AAa?$AAt?$AAe?$AAm?$AAa?$AAl?$AAa?$AA?$AA@ 1004635c     LIBCMT:getqloc.obj
 0002:00006380       ??_C@_1CC@NBEBAODI@?$AAs?$AAp?$AAa?$AAn?$AAi?$AAs?$AAh?$AA?9?$AAh?$AAo?$AAn?$AAd?$AAu?$AAr?$AAa?$AAs?$AA?$AA@ 10046380     LIBCMT:getqloc.obj
 0002:000063a4       ??_C@_1CA@LLKGHBMF@?$AAs?$AAp?$AAa?$AAn?$AAi?$AAs?$AAh?$AA?9?$AAm?$AAe?$AAx?$AAi?$AAc?$AAa?$AAn?$AA?$AA@ 100463a4     LIBCMT:getqloc.obj
 0002:000063c4       ??_C@_1BO@LKNDOIGD@?$AAs?$AAp?$AAa?$AAn?$AAi?$AAs?$AAh?$AA?9?$AAm?$AAo?$AAd?$AAe?$AAr?$AAn?$AA?$AA@ 100463c4     LIBCMT:getqloc.obj
 0002:000063e4       ??_C@_1CE@NMDMOEEB@?$AAs?$AAp?$AAa?$AAn?$AAi?$AAs?$AAh?$AA?9?$AAn?$AAi?$AAc?$AAa?$AAr?$AAa?$AAg?$AAu?$AAa?$AA?$AA@ 100463e4     LIBCMT:getqloc.obj
 0002:00006408       ??_C@_1BO@LLCBEJGB@?$AAs?$AAp?$AAa?$AAn?$AAi?$AAs?$AAh?$AA?9?$AAp?$AAa?$AAn?$AAa?$AAm?$AAa?$AA?$AA@ 10046408     LIBCMT:getqloc.obj
 0002:00006428       ??_C@_1CC@FKPGGIHO@?$AAs?$AAp?$AAa?$AAn?$AAi?$AAs?$AAh?$AA?9?$AAp?$AAa?$AAr?$AAa?$AAg?$AAu?$AAa?$AAy?$AA?$AA@ 10046428     LIBCMT:getqloc.obj
 0002:0000644c       ??_C@_1BK@CDEIHOOP@?$AAs?$AAp?$AAa?$AAn?$AAi?$AAs?$AAh?$AA?9?$AAp?$AAe?$AAr?$AAu?$AA?$AA@ 1004644c     LIBCMT:getqloc.obj
 0002:00006468       ??_C@_1CI@GAHAKKGP@?$AAs?$AAp?$AAa?$AAn?$AAi?$AAs?$AAh?$AA?9?$AAp?$AAu?$AAe?$AAr?$AAt?$AAo?$AA?5?$AAr?$AAi?$AAc?$AAo?$AA?$AA@ 10046468     LIBCMT:getqloc.obj
 0002:00006490       ??_C@_1CA@NKJBCAGP@?$AAs?$AAp?$AAa?$AAn?$AAi?$AAs?$AAh?$AA?9?$AAu?$AAr?$AAu?$AAg?$AAu?$AAa?$AAy?$AA?$AA@ 10046490     LIBCMT:getqloc.obj
 0002:000064b0       ??_C@_1CE@ODILCONM@?$AAs?$AAp?$AAa?$AAn?$AAi?$AAs?$AAh?$AA?9?$AAv?$AAe?$AAn?$AAe?$AAz?$AAu?$AAe?$AAl?$AAa?$AA?$AA@ 100464b0     LIBCMT:getqloc.obj
 0002:000064d4       ??_C@_1CA@OBNMCGFO@?$AAs?$AAw?$AAe?$AAd?$AAi?$AAs?$AAh?$AA?9?$AAf?$AAi?$AAn?$AAl?$AAa?$AAn?$AAd?$AA?$AA@ 100464d4     LIBCMT:getqloc.obj
 0002:000064f4       ??_C@_1M@PIPDDPPI@?$AAs?$AAw?$AAi?$AAs?$AAs?$AA?$AA@ 100464f4     LIBCMT:getqloc.obj
 0002:00006500       ??_C@_15GMFIMNFM@?$AAu?$AAs?$AA?$AA@ 10046500     LIBCMT:getqloc.obj
 0002:00006508       ??_C@_17HAEBFAGL@?$AAu?$AAs?$AAa?$AA?$AA@ 10046508     LIBCMT:getqloc.obj
 0002:00006510       ___rg_country              10046510     LIBCMT:getqloc.obj
 0002:00006624       ??_C@_1BA@DPFJEPHB@?$AAa?$AAm?$AAe?$AAr?$AAi?$AAc?$AAa?$AA?$AA@ 10046624     LIBCMT:getqloc.obj
 0002:00006634       ??_C@_1BA@ELOGGFK@?$AAb?$AAr?$AAi?$AAt?$AAa?$AAi?$AAn?$AA?$AA@ 10046634     LIBCMT:getqloc.obj
 0002:00006644       ??_C@_1M@GHBGIGDA@?$AAc?$AAh?$AAi?$AAn?$AAa?$AA?$AA@ 10046644     LIBCMT:getqloc.obj
 0002:00006650       ??_C@_1M@NCHEJOPO@?$AAc?$AAz?$AAe?$AAc?$AAh?$AA?$AA@ 10046650     LIBCMT:getqloc.obj
 0002:0000665c       ??_C@_1BA@BKPAPBLA@?$AAe?$AAn?$AAg?$AAl?$AAa?$AAn?$AAd?$AA?$AA@ 1004665c     LIBCMT:getqloc.obj
 0002:0000666c       ??_C@_1BM@HKBCKIPC@?$AAg?$AAr?$AAe?$AAa?$AAt?$AA?5?$AAb?$AAr?$AAi?$AAt?$AAa?$AAi?$AAn?$AA?$AA@ 1004666c     LIBCMT:getqloc.obj
 0002:00006688       ??_C@_1BA@PPCHPGJB@?$AAh?$AAo?$AAl?$AAl?$AAa?$AAn?$AAd?$AA?$AA@ 10046688     LIBCMT:getqloc.obj
 0002:00006698       ??_C@_1BE@JBMPEGDG@?$AAh?$AAo?$AAn?$AAg?$AA?9?$AAk?$AAo?$AAn?$AAg?$AA?$AA@ 10046698     LIBCMT:getqloc.obj
 0002:000066ac       ??_C@_1BI@KOELBBPJ@?$AAn?$AAe?$AAw?$AA?9?$AAz?$AAe?$AAa?$AAl?$AAa?$AAn?$AAd?$AA?$AA@ 100466ac     LIBCMT:getqloc.obj
 0002:000066c4       ??_C@_15HIEBHAIO@?$AAn?$AAz?$AA?$AA@ 100466c4     LIBCMT:getqloc.obj
 0002:000066cc       ??_C@_1BC@CHBCPFPI@?$AAp?$AAr?$AA?5?$AAc?$AAh?$AAi?$AAn?$AAa?$AA?$AA@ 100466cc     LIBCMT:getqloc.obj
 0002:000066e0       ??_C@_1BC@JAOIIFKD@?$AAp?$AAr?$AA?9?$AAc?$AAh?$AAi?$AAn?$AAa?$AA?$AA@ 100466e0     LIBCMT:getqloc.obj
 0002:000066f4       ??_C@_1BI@BEHPPHKC@?$AAp?$AAu?$AAe?$AAr?$AAt?$AAo?$AA?9?$AAr?$AAi?$AAc?$AAo?$AA?$AA@ 100466f4     LIBCMT:getqloc.obj
 0002:0000670c       ??_C@_1O@PAEOFKDI@?$AAs?$AAl?$AAo?$AAv?$AAa?$AAk?$AA?$AA@ 1004670c     LIBCMT:getqloc.obj
 0002:0000671c       ??_C@_1BK@FIHMCKAM@?$AAs?$AAo?$AAu?$AAt?$AAh?$AA?5?$AAa?$AAf?$AAr?$AAi?$AAc?$AAa?$AA?$AA@ 1004671c     LIBCMT:getqloc.obj
 0002:00006738       ??_C@_1BI@NAEOODKB@?$AAs?$AAo?$AAu?$AAt?$AAh?$AA?5?$AAk?$AAo?$AAr?$AAe?$AAa?$AA?$AA@ 10046738     LIBCMT:getqloc.obj
 0002:00006750       ??_C@_1BK@FBDGGIFF@?$AAs?$AAo?$AAu?$AAt?$AAh?$AA?9?$AAa?$AAf?$AAr?$AAi?$AAc?$AAa?$AA?$AA@ 10046750     LIBCMT:getqloc.obj
 0002:0000676c       ??_C@_1BI@GHLEJDPK@?$AAs?$AAo?$AAu?$AAt?$AAh?$AA?9?$AAk?$AAo?$AAr?$AAe?$AAa?$AA?$AA@ 1004676c     LIBCMT:getqloc.obj
 0002:00006784       ??_C@_1CE@PLHLOMJF@?$AAt?$AAr?$AAi?$AAn?$AAi?$AAd?$AAa?$AAd?$AA?5?$AA?$CG?$AA?5?$AAt?$AAo?$AAb?$AAa?$AAg?$AAo?$AA?$AA@ 10046784     LIBCMT:getqloc.obj
 0002:000067a8       ??_C@_1BO@MODIMHHI@?$AAu?$AAn?$AAi?$AAt?$AAe?$AAd?$AA?9?$AAk?$AAi?$AAn?$AAg?$AAd?$AAo?$AAm?$AA?$AA@ 100467a8     LIBCMT:getqloc.obj
 0002:000067c8       ??_C@_1BM@FFHJONBJ@?$AAu?$AAn?$AAi?$AAt?$AAe?$AAd?$AA?9?$AAs?$AAt?$AAa?$AAt?$AAe?$AAs?$AA?$AA@ 100467c8     LIBCMT:getqloc.obj
 0002:000067e4       ___rg_language_count       100467e4     LIBCMT:getqloc.obj
 0002:000067e8       ___rg_country_count        100467e8     LIBCMT:getqloc.obj
 0002:000067ec       ??_C@_17DNCLJFIF@?$AAA?$AAC?$AAP?$AA?$AA@ 100467ec     LIBCMT:getqloc.obj
 0002:000067f4       ??_C@_17CIKBIHLH@?$AAO?$AAC?$AAP?$AA?$AA@ 100467f4     LIBCMT:getqloc.obj
 0002:000067fc       ___rglangidNotDefault      100467fc     LIBCMT:getqloc_downlevel.obj
 0002:00006810       ??_C@_06PGGFOGJG@1?$CDSNAN?$AA@ 10046810     LIBCMT:x10fout.obj
 0002:00006818       ??_C@_05PHHOCPM@1?$CDIND?$AA@ 10046818     LIBCMT:x10fout.obj
 0002:00006820       ??_C@_05DNEBIAHO@1?$CDINF?$AA@ 10046820     LIBCMT:x10fout.obj
 0002:00006828       ??_C@_06IMKFLFPG@1?$CDQNAN?$AA@ 10046828     LIBCMT:x10fout.obj
 0002:00006830       ??_C@_1BA@BALFACEM@?$AAC?$AAO?$AAN?$AAO?$AAU?$AAT?$AA$?$AA?$AA@ 10046830     LIBCMT:initcon.obj
 0002:00006840       ??_C@_0BC@BDKFLDHL@unknown?5exception?$AA@ 10046840     njsOracle.obj
 0002:00006854       ??_C@_1DG@OKCGPKIB@?$AAp?$AAe?$AAr?$AAs?$AAi?$AAs?$AAt?$AAe?$AAn?$AAt?$AA?$CI?$AA?$CJ?$AA?4?$AAI?$AAs?$AAN?$AAe?$AAa?$AAr?$AAD?$AAe?$AAa?$AAt?$AAh?$AA?$CI?$AA?$CJ?$AA?$AA@ 10046854     njsOracle.obj
 0002:0000688c       ??_C@_1CO@EGNPJLKI@?$AAp?$AAe?$AAr?$AAs?$AAi?$AAs?$AAt?$AAe?$AAn?$AAt?$AA?$CI?$AA?$CJ?$AA?4?$AAI?$AAs?$AAE?$AAm?$AAp?$AAt?$AAy?$AA?$CI?$AA?$CJ?$AA?$AA@ 1004688c     njsOracle.obj
 0002:000068bc       ??_C@_1DA@FBGAEOIO@?$AA?$CB?$AAp?$AAe?$AAr?$AAs?$AAi?$AAs?$AAt?$AAe?$AAn?$AAt?$AA?$CI?$AA?$CJ?$AA?4?$AAI?$AAs?$AAE?$AAm?$AAp?$AAt?$AAy?$AA?$CI?$AA?$CJ?$AA?$AA@ 100468bc     njsOracle.obj
 0002:000068ec       ??_C@_1CO@JCKLEFMA@?$AA?$CB?$AAp?$AAe?$AAr?$AAs?$AAi?$AAs?$AAt?$AAe?$AAn?$AAt?$AA?$CI?$AA?$CJ?$AA?4?$AAI?$AAs?$AAW?$AAe?$AAa?$AAk?$AA?$CI?$AA?$CJ?$AA?$AA@ 100468ec     njsOracle.obj
 0002:0000691c       ??_C@_1BE@GMLLOIPJ@?$AAr?$AAe?$AAf?$AAs?$AA_?$AA?5?$AA?$DO?$AA?5?$AA0?$AA?$AA@ 1004691c     njsOracle.obj
 0002:00006930       ??_C@_1CC@GBFLAAPF@?$AAw?$AAr?$AAa?$AAp?$AA?9?$AA?$DO?$AAr?$AAe?$AAf?$AAs?$AA_?$AA?5?$AA?$DN?$AA?$DN?$AA?5?$AA0?$AA?$AA@ 10046930     njsOracle.obj
 0002:00006954       ??_C@_0BA@ELKIONDK@bad?5locale?5name?$AA@ 10046954     njsOracle.obj
 0002:00006964       ??_C@_05LAPONLG@false?$AA@ 10046964     njsOracle.obj
 0002:0000696c       ??_C@_04LOAJBDKD@true?$AA@ 1004696c     njsOracle.obj
 0002:00006971       ??_C@_00CNPNBAHC@?$AA@     10046971     njsOracle.obj
 0002:00006974       ??_C@_02LMMGGCAJ@?3?5?$AA@ 10046974     njsOracle.obj
 0002:00006978       ??_C@_0BF@PHHKMMFD@ios_base?3?3badbit?5set?$AA@ 10046978     njsOracle.obj
 0002:00006990       ??_C@_0BG@FMKFHCIL@ios_base?3?3failbit?5set?$AA@ 10046990     njsOracle.obj
 0002:000069a8       ??_C@_0BF@OOHOMBOF@ios_base?3?3eofbit?5set?$AA@ 100469a8     njsOracle.obj
 0002:000069c0       ??_C@_0BA@JFNIOLAK@string?5too?5long?$AA@ 100469c0     njsOracle.obj
 0002:000069d0       ??_C@_1HE@EMHOLKKP@?$AAd?$AA?3?$AA?2?$AAd?$AAa?$AAs?$AAh?$AAb?$AAo?$AAa?$AAr?$AAd?$AA?2?$AAn?$AAo?$AAd?$AAe?$AA_?$AAm?$AAo?$AAd?$AAu?$AAl?$AAe?$AAs?$AA?2?$AAn?$AAa?$AAn?$AA?2?$AAn?$AAa@ 100469d0     njsOracle.obj
 0002:00006a48       ??_C@_1FK@CBGIJHDF@?$AAv?$AAa?$AAl?$AAu?$AAe?$AA?4?$AAs?$AAi?$AAz?$AAe?$AA?$CI?$AA?$CJ?$AA?5?$AA?$DM?$AA?$DN?$AA?5?$AAI?$AAN?$AAT?$AA_?$AAM?$AAA?$AAX?$AA?5?$AA?$CG?$AA?$CG?$AA?5?$AA?$CC?$AAs?$AAt?$AAr?$AAi@ 10046a48     njsOracle.obj
 0002:00006aa8       ??_C@_1GA@ECHAOPJK@?$AAd?$AA?3?$AA?2?$AAd?$AAa?$AAs?$AAh?$AAb?$AAo?$AAa?$AAr?$AAd?$AA?2?$AAn?$AAo?$AAd?$AAe?$AA_?$AAm?$AAo?$AAd?$AAu?$AAl?$AAe?$AAs?$AA?2?$AAn?$AAa?$AAn?$AA?2?$AAn?$AAa@ 10046aa8     njsOracle.obj
 0002:00006b08       ??_C@_1EC@MGGLMBLC@?$AAo?$AAb?$AAj?$AAe?$AAc?$AAt?$AA?9?$AA?$DO?$AAI?$AAn?$AAt?$AAe?$AAr?$AAn?$AAa?$AAl?$AAF?$AAi?$AAe?$AAl?$AAd?$AAC?$AAo?$AAu?$AAn?$AAt?$AA?$CI?$AA?$CJ?$AA?5?$AA?$DO?$AA?5?$AA0@ 10046b08     njsOracle.obj
 0002:00006b4c       ??_C@_1DI@ELDBKNAK@?$AAw?$AAr?$AAa?$AAp?$AA?9?$AA?$DO?$AAh?$AAa?$AAn?$AAd?$AAl?$AAe?$AA_?$AA?4?$AAI?$AAs?$AAN?$AAe?$AAa?$AAr?$AAD?$AAe?$AAa?$AAt?$AAh?$AA?$CI?$AA?$CJ?$AA?$AA@ 10046b4c     njsOracle.obj
 0002:00006b84       ??_C@_03MCPBMLDJ@?5?3?5?$AA@ 10046b84     njsOracle.obj
 0002:00006b88       ??_C@_0O@HGNEKDAO@node?9oracledb?$AA@ 10046b88     njsOracle.obj
 0002:00006b98       ??_C@_01LFCBOECM@?4?$AA@   10046b98     njsOracle.obj
 0002:00006b9c       ??_C@_08BNCGHMGL@Oracledb?$AA@ 10046b9c     njsOracle.obj
 0002:00006ba8       ??_C@_0O@GICFJCLP@getConnection?$AA@ 10046ba8     njsOracle.obj
 0002:00006bb8       ??_C@_0L@DEMMGFLI@createPool?$AA@ 10046bb8     njsOracle.obj
 0002:00006bc4       ??_C@_07CJJOHIMA@poolMax?$AA@ 10046bc4     njsOracle.obj
 0002:00006bcc       ??_C@_07DLBFJMKP@poolMin?$AA@ 10046bcc     njsOracle.obj
 0002:00006bd4       ??_C@_0O@CEEKNGK@poolIncrement?$AA@ 10046bd4     njsOracle.obj
 0002:00006be4       ??_C@_0M@KJCBBGHI@poolTimeout?$AA@ 10046be4     njsOracle.obj
 0002:00006bf0       ??_C@_0O@MCOBCHKC@stmtCacheSize?$AA@ 10046bf0     njsOracle.obj
 0002:00006c00       ??_C@_0N@GLFJDLAP@prefetchRows?$AA@ 10046c00     njsOracle.obj
 0002:00006c10       ??_C@_0L@JJDMGLON@autoCommit?$AA@ 10046c10     njsOracle.obj
 0002:00006c1c       ??_C@_0BB@NCBAEODJ@extendedMetaData?$AA@ 10046c1c     njsOracle.obj
 0002:00006c30       ??_C@_07GPLJHCBP@maxRows?$AA@ 10046c30     njsOracle.obj
 0002:00006c38       ??_C@_09DINGKNNM@outFormat?$AA@ 10046c38     njsOracle.obj
 0002:00006c44       ??_C@_07CPCPJPKL@version?$AA@ 10046c44     njsOracle.obj
 0002:00006c4c       ??_C@_0BA@GPOPFKB@connectionClass?$AA@ 10046c4c     njsOracle.obj
 0002:00006c5c       ??_C@_0N@DGEJBIKB@externalAuth?$AA@ 10046c5c     njsOracle.obj
 0002:00006c6c       ??_C@_0O@KBLMAIHK@fetchAsString?$AA@ 10046c6c     njsOracle.obj
 0002:00006c7c       ??_C@_0O@FNKKGEEE@fetchAsBuffer?$AA@ 10046c7c     njsOracle.obj
 0002:00006c8c       ??_C@_0BA@NCMFLOHA@lobPrefetchSize?$AA@ 10046c8c     njsOracle.obj
 0002:00006c9c       ??_C@_0BE@HLPLDCII@oracleClientVersion?$AA@ 10046c9c     njsOracle.obj
 0002:00006cb0       ??_C@_0BB@GCCMNFHO@poolPingInterval?$AA@ 10046cb0     njsOracle.obj
 0002:00006cc4       ??_C@_0BB@BBCNNNEI@pingPoolInterval?$AA@ 10046cc4     njsOracle.obj
 0002:00006cd8       ??_C@_04CCHAHKJA@user?$AA@ 10046cd8     njsOracle.obj
 0002:00006ce0       ??_C@_08NLHBPEGP@password?$AA@ 10046ce0     njsOracle.obj
 0002:00006cec       ??_C@_0O@GBMHGACH@connectString?$AA@ 10046cec     njsOracle.obj
 0002:00006cfc       ??_C@_0O@KFEBOKGH@GetConnection?$AA@ 10046cfc     njsOracle.obj
 0002:00006d0c       ??_C@_0O@BEGDKJHM@uv_queue_work?$AA@ 10046d0c     njsOracle.obj
 0002:00006d1c       ??_C@_0L@LCFAOKGP@CreatePool?$AA@ 10046d1c     njsOracle.obj
 0002:00006d28       ??_C@_0BN@CPKFGOJG@?4?4?2src?2njs?2src?2njsOracle?4cpp?$AA@ 10046d28     njsOracle.obj
 0002:00006d48       ??_C@_08JPNHPOMI@oracledb?$AA@ 10046d48     njsOracle.obj
 0002:00006d54       ??_C@_02EAOCLKAK@ld?$AA@   10046d54     njsOracle.obj
 0002:00006d58       ??_C@_02BDDLJJBK@lu?$AA@   10046d58     njsOracle.obj
 0002:00006d5c       ??_C@_02HIKPPMOK@Ld?$AA@   10046d5c     njsOracle.obj
 0002:00006d60       ??_C@_02CLHGNPPK@Lu?$AA@   10046d60     njsOracle.obj
 0002:00006d64       ??_C@_02BBAHNLBA@?$CFp?$AA@ 10046d64     njsOracle.obj
 0002:00006d68       ??_C@_02MDKMJEGG@eE?$AA@   10046d68     njsOracle.obj
 0002:00006d6c       ??_C@_02OOPEBDOJ@pP?$AA@   10046d6c     njsOracle.obj
 0002:00006d70       ??_C@_0BI@CFPLBAOH@invalid?5string?5position?$AA@ 10046d70     njsOracle.obj
 0002:00006d88       ??_C@_1CE@LNAGEONJ@?$AA?$CB?$AAo?$AAb?$AAj?$AAe?$AAc?$AAt?$AA?4?$AAI?$AAs?$AAE?$AAm?$AAp?$AAt?$AAy?$AA?$CI?$AA?$CJ?$AA?$AA@ 10046d88     njsOracle.obj
 0002:00006dac       ??_7?$basic_streambuf@DU?$char_traits@D@std@@@std@@6B@ 10046dac     njsOracle.obj
 0002:00006de8       ??_7?$basic_stringbuf@DU?$char_traits@D@std@@V?$allocator@D@2@@std@@6B@ 10046de8     njsOracle.obj
 0002:00006e24       ??_7ObjectWrap@Nan@@6B@    10046e24     njsOracle.obj
 0002:00006e30       ??_7Oracledb@@6B@          10046e30     njsOracle.obj
 0002:00006e3c       ??_7exception@stdext@@6B@  10046e3c     njsOracle.obj
 0002:00006e48       ??_7?$basic_stringstream@DU?$char_traits@D@std@@V?$allocator@D@2@@std@@6B@ 10046e48     njsOracle.obj
 0002:00006e4c       ??_7?$basic_iostream@DU?$char_traits@D@std@@@std@@6B@ 10046e4c     njsOracle.obj
 0002:00006e50       ??_7?$basic_istream@DU?$char_traits@D@std@@@std@@6B@ 10046e50     njsOracle.obj
 0002:00006e54       ??_8?$basic_stringstream@DU?$char_traits@D@std@@V?$allocator@D@2@@std@@7B?$basic_istream@DU?$char_traits@D@std@@@1@@ 10046e54     njsOracle.obj
 0002:00006e5c       ??_7ios_base@std@@6B@      10046e5c     njsOracle.obj
 0002:00006e5c       ??_7?$basic_ios@DU?$char_traits@D@std@@@std@@6B@ 10046e5c     njsOracle.obj
 0002:00006e60       ??_8?$basic_stringstream@DU?$char_traits@D@std@@V?$allocator@D@2@@std@@7B?$basic_ostream@DU?$char_traits@D@std@@@1@@ 10046e60     njsOracle.obj
 0002:00006e68       ??_7_System_error@std@@6B@ 10046e68     njsOracle.obj
 0002:00006e68       ??_7system_error@std@@6B@  10046e68     njsOracle.obj
 0002:00006e68       ??_7failure@ios_base@std@@6B@ 10046e68     njsOracle.obj
 0002:00006e74       ??_7?$basic_ostream@DU?$char_traits@D@std@@@std@@6B@ 10046e74     njsOracle.obj
 0002:00006e78       ??_C@_04OIEIIIMK@Pool?$AA@ 10046e78     njsPool.obj
 0002:00006e80       ??_C@_09DACGJFPO@terminate?$AA@ 10046e80     njsPool.obj
 0002:00006e8c       ??_C@_0BA@ILIHCEPM@connectionsOpen?$AA@ 10046e8c     njsPool.obj
 0002:00006e9c       ??_C@_0BB@EBFGKEIN@connectionsInUse?$AA@ 10046e9c     njsPool.obj
 0002:00006eb0       ??_C@_09HPHLJGCO@Terminate?$AA@ 10046eb0     njsPool.obj
 0002:00006ebc       ??_7Pool@@6B@              10046ebc     njsPool.obj
 0002:00006ebc       ??_7Connection@@6B@        10046ebc     njsConnection.obj
 0002:00006ec8       ??_C@_1EI@CDALAGMO@?$AAD?$AA?3?$AA?2?$AAD?$AAa?$AAs?$AAh?$AAb?$AAo?$AAa?$AAr?$AAd?$AA?2?$AAn?$AAo?$AAd?$AAe?$AA_?$AAm?$AAo?$AAd?$AAu?$AAl?$AAe?$AAs?$AA?2?$AAn?$AAa?$AAn?$AA?2?$AAn?$AAa@ 10046ec8     njsConnection.obj
 0002:00006f10       ??_C@_1FM@LOELJOFK@?$AAs?$AAi?$AAz?$AAe?$AA?5?$AA?$DM?$AA?$DN?$AA?5?$AAi?$AAm?$AAp?$AA?3?$AA?3?$AAk?$AAM?$AAa?$AAx?$AAL?$AAe?$AAn?$AAg?$AAt?$AAh?$AA?5?$AA?$CG?$AA?$CG?$AA?5?$AA?$CC?$AAt?$AAo?$AAo?$AA?5@ 10046f10     njsConnection.obj
 0002:00006f6c       ??_C@_0L@PJJKMLL@Connection?$AA@ 10046f6c     njsConnection.obj
 0002:00006f78       ??_C@_07EMGJIMLB@execute?$AA@ 10046f78     njsConnection.obj
 0002:00006f80       ??_C@_07EOGFDLKI@release?$AA@ 10046f80     njsConnection.obj
 0002:00006f88       ??_C@_06IFNEBLAJ@commit?$AA@ 10046f88     njsConnection.obj
 0002:00006f90       ??_C@_08FBLICIPL@rollback?$AA@ 10046f90     njsConnection.obj
 0002:00006f9c       ??_C@_05ELPHFHOI@break?$AA@ 10046f9c     njsConnection.obj
 0002:00006fa4       ??_C@_09EJNJPPHA@createLob?$AA@ 10046fa4     njsConnection.obj
 0002:00006fb0       ??_C@_08BMOJCBA@clientId?$AA@ 10046fb0     njsConnection.obj
 0002:00006fbc       ??_C@_06BIEEJMKO@module?$AA@ 10046fbc     njsConnection.obj
 0002:00006fc4       ??_C@_06DDLLCOJG@action?$AA@ 10046fc4     njsConnection.obj
 0002:00006fcc       ??_C@_0BE@FLLIGNEJ@oracleServerVersion?$AA@ 10046fcc     njsConnection.obj
 0002:00006fe0       ??_C@_07LFBPOOOH@Execute?$AA@ 10046fe0     njsConnection.obj
 0002:00006fe8       ??_C@_09MLCBPDGD@resultSet?$AA@ 10046fe8     njsConnection.obj
 0002:00006ff4       ??_C@_09IALOBJIC@fetchInfo?$AA@ 10046ff4     njsConnection.obj
 0002:00007000       ??_C@_04GPMDFGEJ@type?$AA@ 10047000     njsConnection.obj
 0002:00007008       ??_C@_01JLIPDDHJ@?3?$AA@   10047008     njsConnection.obj
 0002:0000700c       ??_C@_03DAPAKLGM@dir?$AA@  1004700c     njsConnection.obj
 0002:00007010       ??_C@_07GDPCCCPH@maxSize?$AA@ 10047010     njsConnection.obj
 0002:00007018       ??_C@_03BALCFKBP@val?$AA@  10047018     njsConnection.obj
 0002:0000701c       ??_C@_0N@HGIHOFAC@maxArraySize?$AA@ 1004701c     njsConnection.obj
 0002:0000702c       ??_C@_04GIHNHPGD@iLob?$AA@ 1004702c     njsConnection.obj
 0002:00007034       ??_C@_09KHNPILMG@DoDefines?$AA@ 10047034     njsConnection.obj
 0002:00007040       ??_C@_08JNCPAJPH@default?3?$AA@ 10047040     njsConnection.obj
 0002:0000704c       ??_C@_04IMCGAIPI@rows?$AA@ 1004704c     njsConnection.obj
 0002:00007054       ??_C@_08CADMLJEK@outBinds?$AA@ 10047054     njsConnection.obj
 0002:00007060       ??_C@_0N@KAPCDOFA@rowsAffected?$AA@ 10047060     njsConnection.obj
 0002:00007070       ??_C@_08PGKJPPDP@metaData?$AA@ 10047070     njsConnection.obj
 0002:0000707c       ??_C@_04MEMAJGDJ@name?$AA@ 1004707c     njsConnection.obj
 0002:00007084       ??_C@_09DHEEBCNP@fetchType?$AA@ 10047084     njsConnection.obj
 0002:00007090       ??_C@_06MPIJJHIJ@dbType?$AA@ 10047090     njsConnection.obj
 0002:00007098       ??_C@_08OABDNNOP@byteSize?$AA@ 10047098     njsConnection.obj
 0002:000070a4       ??_C@_09HJGOLHNF@precision?$AA@ 100470a4     njsConnection.obj
 0002:000070b0       ??_C@_05MHMEBBGO@scale?$AA@ 100470b0     njsConnection.obj
 0002:000070b8       ??_C@_08DGPNALPA@nullable?$AA@ 100470b8     njsConnection.obj
 0002:000070c4       ??_C@_07LHBDFJPO@Release?$AA@ 100470c4     njsConnection.obj
 0002:000070cc       ??_C@_06EKGJCCJF@Commit?$AA@ 100470cc     njsConnection.obj
 0002:000070d4       ??_C@_08NDEJKKFI@Rollback?$AA@ 100470d4     njsConnection.obj
 0002:000070e0       ??_C@_05EMFLFCNO@Break?$AA@ 100470e0     njsConnection.obj
 0002:000070e8       ??_C@_09GIEPMKA@CreateLob?$AA@ 100470e8     njsConnection.obj
 0002:000070f4       ??_C@_06GPFDNHLC@newLob?$AA@ 100470f4     njsConnection.obj
 0002:000070fc       ??_C@_0BD@OLBABOEK@vector?$DMT?$DO?5too?5long?$AA@ 100470fc     njsConnection.obj
 0002:00007110       ??_C@_09IEHMPALD@ResultSet?$AA@ 10047110     njsResultSet.obj
 0002:0000711c       ??_C@_05LBOHBHFK@close?$AA@ 1004711c     njsResultSet.obj
 0002:00007124       ??_C@_06DKBICOAJ@getRow?$AA@ 10047124     njsResultSet.obj
 0002:0000712c       ??_C@_07HNPEIKLP@getRows?$AA@ 1004712c     njsResultSet.obj
 0002:00007134       ??_C@_0O@BENJIPMF@GetRowsCommon?$AA@ 10047134     njsResultSet.obj
 0002:00007144       ??_C@_0P@CLHDOECI@ResultSetClose?$AA@ 10047144     njsResultSet.obj
 0002:00007154       ??_7ResultSet@@6B@         10047154     njsResultSet.obj
 0002:0000725c       ??_C@_0BB@EBPPLLMA@NJS?9000?3?5success?$AA@ 1004725c     njsMessages.obj
 0002:00007270       ??_C@_0CN@EAPPLFIE@NJS?9001?3?5expected?5callback?5as?5la@ 10047270     njsMessages.obj
 0002:000072a0       ??_C@_0BG@CPODOMNC@NJS?9002?3?5invalid?5pool?$AA@ 100472a0     njsMessages.obj
 0002:000072b8       ??_C@_0BM@JFAMIHMB@NJS?9003?3?5invalid?5connection?$AA@ 100472b8     njsMessages.obj
 0002:000072d4       ??_C@_0CH@LDFPEIAC@NJS?9004?3?5invalid?5value?5for?5prope@ 100472d4     njsMessages.obj
 0002:000072fc       ??_C@_0CI@LJKIPLLG@NJS?9005?3?5invalid?5value?5for?5param@ 100472fc     njsMessages.obj
 0002:00007324       ??_C@_0CH@LNEBGLBI@NJS?9006?3?5invalid?5type?5for?5parame@ 10047324     njsMessages.obj
 0002:0000734c       ??_C@_0DA@LLNCMIBF@NJS?9007?3?5invalid?5value?5for?5?$CC?$CFs?$CC?5@ 1004734c     njsMessages.obj
 0002:0000737c       ??_C@_0CP@IGIOFNIJ@NJS?9008?3?5invalid?5type?5for?5?$CC?$CFs?$CC?5i@ 1004737c     njsMessages.obj
 0002:000073ac       ??_C@_0CG@NEDBOLL@NJS?9009?3?5invalid?5number?5of?5param@ 100473ac     njsMessages.obj
 0002:000073d4       ??_C@_0CO@NPMIEIEG@NJS?9010?3?5unsupported?5data?5type?5i@ 100473d4     njsMessages.obj
 0002:00007408       ??_C@_0EC@NNFBKLIL@NJS?9011?3?5encountered?5bind?5value?5@ 10047408     njsMessages.obj
 0002:0000744c       ??_C@_0DM@ODFBBPME@NJS?9012?3?5encountered?5invalid?5bin@ 1004744c     njsMessages.obj
 0002:00007488       ??_C@_0CA@BACDJBHC@NJS?9013?3?5invalid?5bind?5direction?$AA@ 10047488     njsMessages.obj
 0002:000074a8       ??_C@_0CE@JHOFBEHB@NJS?9014?3?5?$CFs?5is?5a?5read?9only?5prope@ 100474a8     njsMessages.obj
 0002:000074cc       ??_C@_0CP@JOOECMDP@NJS?9015?3?5type?5was?5not?5specified?5@ 100474cc     njsMessages.obj
 0002:000074fc       ??_C@_0CL@LPGLEDEI@NJS?9016?3?5buffer?5is?5too?5small?5for@ 100474fc     njsMessages.obj
 0002:00007528       ??_C@_0DM@BJIOPMLG@NJS?9017?3?5concurrent?5operations?5o@ 10047528     njsMessages.obj
 0002:00007564       ??_C@_0BL@KIHNNALH@NJS?9018?3?5invalid?5ResultSet?$AA@ 10047564     njsMessages.obj
 0002:00007580       ??_C@_0DP@HMGLKLNL@NJS?9019?3?5ResultSet?5cannot?5be?5ret@ 10047580     njsMessages.obj
 0002:000075c0       ??_C@_0DN@GENKDPOG@NJS?9020?3?5empty?5array?5was?5specifi@ 100475c0     njsMessages.obj
 0002:00007600       ??_C@_0CP@EDPFAMJK@NJS?9021?3?5invalid?5type?5for?5conver@ 10047600     njsMessages.obj
 0002:00007630       ??_C@_0BF@EAGHGEHI@NJS?9022?3?5invalid?5Lob?$AA@ 10047630     njsMessages.obj
 0002:00007648       ??_C@_0DI@FLAMFHCO@NJS?9023?3?5concurrent?5operations?5o@ 10047648     njsMessages.obj
 0002:00007680       ??_C@_0CC@HFOJMIAK@NJS?9024?3?5memory?5allocation?5faile@ 10047680     njsMessages.obj
 0002:000076a4       ??_C@_0DI@IOFJHOEH@NJS?9025?3?5overflow?5when?5calculati@ 100476a4     njsMessages.obj
 0002:000076dc       ??_C@_0CL@CJKMEINN@NJS?9026?3?5maxRows?5must?5be?5greater@ 100476dc     njsMessages.obj
 0002:00007708       ??_C@_0CG@GKLPAPFN@NJS?9027?3?5unexpected?5SQL?5parsing?5@ 10047708     njsMessages.obj
 0002:00007730       ??_C@_0EK@HKOEANNA@NJS?9028?3?5RAW?5database?5type?5is?5no@ 10047730     njsMessages.obj
 0002:0000777c       ??_C@_0CI@GNLLBCJN@NJS?9029?3?5invalid?5object?5from?5Jav@ 1004777c     njsMessages.obj
 0002:000077a8       ??_C@_0EO@LBKHOOCH@NJS?9030?3?5connection?5cannot?5be?5re@ 100477a8     njsMessages.obj
 0002:000077f8       ??_C@_0FE@IIHCGNKK@NJS?9031?3?5connection?5cannot?5be?5re@ 100477f8     njsMessages.obj
 0002:00007850       ??_C@_0EO@IIBEDJAF@NJS?9032?3?5connection?5cannot?5be?5re@ 10047850     njsMessages.obj
 0002:000078a0       ??_C@_0CO@BBIFBNCF@NJS?9033?3?5an?5internal?5error?5occur@ 100478a0     njsMessages.obj
 0002:000078d0       ??_C@_0DB@LPMKGDAI@NJS?9034?3?5data?5type?5is?5unsupporte@ 100478d0     njsMessages.obj
 0002:00007904       ??_C@_0DI@GIABIGIA@NJS?9035?3?5maxArraySize?5is?5require@ 10047904     njsMessages.obj
 0002:0000793c       ??_C@_0DK@CJKKNDFP@NJS?9036?3?5given?5array?5is?5of?5size?5@ 1004793c     njsMessages.obj
 0002:00007978       ??_C@_0DL@OEKBIKCP@NJS?9037?3?5invalid?5data?5type?5at?5ar@ 10047978     njsMessages.obj
 0002:000079b4       ??_C@_0DI@IPDIHFKI@NJS?9038?3?5maxArraySize?5value?5shou@ 100479b4     njsMessages.obj
 0002:000079ec       ??_C@_0DA@MGPCJFHJ@NJS?9039?3?5empty?5array?5is?5not?5allo@ 100479ec     njsMessages.obj
 0002:00007a1c       ??_C@_0CE@LNNNGBGB@NJS?9040?3?5connection?5request?5time@ 10047a1c     njsMessages.obj
 0002:00007a40       ??_C@_0EI@HKOKPOIO@NJS?9041?3?5cannot?5convert?5ResultSe@ 10047a40     njsMessages.obj
 0002:00007a88       ??_C@_0EJ@EGFNABEI@NJS?9042?3?5cannot?5invoke?5ResultSet@ 10047a88     njsMessages.obj
 0002:00007ad4       ??_C@_0DE@NMIFCHOP@NJS?9043?3?5ResultSet?5already?5conve@ 10047ad4     njsMessages.obj
 0002:00007b08       ??_C@_0DL@HIIGKHG@NJS?9044?3?5named?5JSON?5object?5is?5no@ 10047b08     njsMessages.obj
 0002:00007b44       ??_C@_0DA@OIEKOIC@NJS?9045?3?5cannot?5load?5the?5oracled@ 10047b44     njsMessages.obj
 0002:00007b78       ??_C@_0EF@ICDLGKFG@NJS?9046?3?5pool?5alias?5?$CC?$CFs?$CC?5already@ 10047b78     njsMessages.obj
 0002:00007bc0       ??_C@_0EA@DLMJKHLN@NJS?9047?3?5pool?5alias?5?$CC?$CFs?$CC?5not?5fou@ 10047bc0     njsMessages.obj
 0002:00007c00       ??_C@_0FA@FJJJFLHM@NJS?9048?3?5operation?5not?5permitted@ 10047c00     njsMessages.obj
 0002:00007c50       ??_C@_0EB@NEBCGMKM@NJS?9049?3?5Temporary?5LOBs?5were?5ope@ 10047c50     njsMessages.obj
 0002:00007c94       ??_C@_0CG@LOIBHGAO@NJS?9050?3?5data?5must?5be?5shorter?5th@ 10047c94     njsMessages.obj
 0002:00007cbc       ??_C@_0CD@OHMJLAHD@NJS?9051?3?5?$CC?$CFs?$CC?5must?5be?5less?5than?5@ 10047cbc     njsMessages.obj
 0002:00007ce0       ??_C@_0EC@NMPEHBDL@NJS?9052?3?5invalid?5data?5type?5at?5ar@ 10047ce0     njsMessages.obj
 0002:00007d24       ??_C@_04KJLMFAGH@ILob?$AA@ 10047d24     njsIntLob.obj
 0002:00007d2c       ??_C@_04POLDLDMI@read?$AA@ 10047d2c     njsIntLob.obj
 0002:00007d34       ??_C@_05NGFEDHGN@write?$AA@ 10047d34     njsIntLob.obj
 0002:00007d3c       ??_C@_09OEGFCDGF@chunkSize?$AA@ 10047d3c     njsIntLob.obj
 0002:00007d48       ??_C@_06IJDLPEM@length?$AA@ 10047d48     njsIntLob.obj
 0002:00007d50       ??_C@_09BIOBDMFG@pieceSize?$AA@ 10047d50     njsIntLob.obj
 0002:00007d5c       ??_C@_06KLHHMIGM@offset?$AA@ 10047d5c     njsIntLob.obj
 0002:00007d64       ??_C@_0N@PFFDGBBL@autoCloseLob?$AA@ 10047d64     njsIntLob.obj
 0002:00007d74       ??_C@_05HDPIMK@valid?$AA@  10047d74     njsIntLob.obj
 0002:00007d7c       ??_C@_08MMMELIKJ@LobClose?$AA@ 10047d7c     njsIntLob.obj
 0002:00007d88       ??_C@_07NKICPBEH@LobRead?$AA@ 10047d88     njsIntLob.obj
 0002:00007d90       ??_C@_08KLHHJIJO@LobWrite?$AA@ 10047d90     njsIntLob.obj
 0002:00007d9c       ??_7ILob@@6B@              10047d9c     njsIntLob.obj
 0002:00007da8       ??_7Env@dpi@@6B@           10047da8     dpiEnv.obj
 0002:00007e00       ??_7Exception@dpi@@6B@     10047e00     dpiEnvImpl.obj
 0002:00007e14       ??_7EnvImpl@@6B@           10047e14     dpiEnvImpl.obj
 0002:00007e80       ??_7ExceptionImpl@@6B@     10047e80     dpiEnvImpl.obj
 0002:00007e94       ??_C@_07CIFAGBMG@unknown?$AA@ 10047e94     dpiExceptionImpl.obj
 0002:00007e9c       ??_C@_0N@FKKFHCIB@not?5an?5error?$AA@ 10047e9c     dpiExceptionImpl.obj
 0002:00007eac       ??_C@_0P@LPIEGNHB@internal?5error?$AA@ 10047eac     dpiExceptionImpl.obj
 0002:00007ebc       ??_C@_0CA@EGKFLPDP@could?5not?5get?5OCI?5error?5message?$AA@ 10047ebc     dpiExceptionImpl.obj
 0002:00007edc       ??_C@_0CC@DONOAHM@no?5OCI?5environment?5handle?5create@ 10047edc     dpiExceptionImpl.obj
 0002:00007f00       ??_C@_0CL@NBAEMACC@invalid?5state?5while?5working?5with@ 10047f00     dpiExceptionImpl.obj
 0002:00007f2c       ??_C@_0DB@DLEOEFBD@uninitialized?5state?5while?5workin@ 10047f2c     dpiExceptionImpl.obj
 0002:00007f60       ??_C@_0EH@IBENPCCD@user?5and?5password?5should?5not?5be?5@ 10047f60     dpiExceptionImpl.obj
 0002:00007fa8       ??_C@_0CB@DEGMBPIK@invalid?5OCI?5handle?5or?5descriptor@ 10047fa8     dpiExceptionImpl.obj
 0002:00007fcc       ??_C@_0BJ@FDBIHNP@memory?5allocation?5failed?$AA@ 10047fcc     dpiExceptionImpl.obj
 0002:00007fe8       ??_C@_0BG@COLCDFLN@unexpected?5NULL?5value?$AA@ 10047fe8     dpiExceptionImpl.obj
 0002:00008000       ??_C@_03IHMKDFHF@DPI?$AA@  10048000     dpiExceptionImpl.obj
 0002:00008004       ??_C@_01JOAMLHOP@?9?$AA@   10048004     dpiExceptionImpl.obj
 0002:00008008       ??_C@_0M@LMACPLJG@TIME_2_PING?$AA@ 10048008     dpiConnImpl.obj
 0002:00008014       ??_7Conn@dpi@@6B@          10048014     dpiConnImpl.obj
 0002:00008068       ??_7ConnImpl@@6B@          10048068     dpiConnImpl.obj
 0002:000080c0       ??_C@_06GOMJDJGK@?$CL00?300?$AA@ 100480c0     dpiDateTimeArrayImpl.obj
 0002:000080c8       ??_7DateTimeArray@dpi@@6B@ 100480c8     dpiDateTimeArrayImpl.obj
 0002:000080dc       ??_7DateTimeArrayImpl@dpi@@6B@ 100480dc     dpiDateTimeArrayImpl.obj
 0002:000080f0       ??_7PoolImpl@@6B@          100480f0     dpiPoolImpl.obj
 0002:00008114       ??_7SPool@dpi@@6B@         10048114     dpiPoolImpl.obj
 0002:0000812c       ??_7StmtImpl@@6B@          1004812c     dpiStmtImpl.obj
 0002:0000816c       ??_7Stmt@dpi@@6B@          1004816c     dpiStmtImpl.obj
 0002:000081ac       ??_C@_03JLJGOMBC@ORA?$AA@  100481ac     dpiUtils.obj
 0002:000081b0       ??_C@_08HCOMDCCD@iojs?4exe?$AA@ 100481b0     win_delay_load_hook.obj
 0002:000081bc       ??_C@_08JDDNMFDB@node?4exe?$AA@ 100481bc     win_delay_load_hook.obj
 0002:000081c8       __real@38aa95a5b7f87a0f    100481c8     njsOracle.obj
 0002:000081d0       __real@3fe0000000000000    100481d0     njsOracle.obj
 0002:000081d8       __real@3ff0000000000000    100481d8     njsIntLob.obj
 0002:000081e0       __real@408f400000000000    100481e0     dpiDateTimeArrayImpl.obj
 0002:000081e8       __real@40ed4c0000000000    100481e8     dpiDateTimeArrayImpl.obj
 0002:000081f0       __real@412e848000000000    100481f0     dpiDateTimeArrayImpl.obj
 0002:000081f8       __real@414b774000000000    100481f8     dpiDateTimeArrayImpl.obj
 0002:00008200       __real@4194997000000000    10048200     dpiDateTimeArrayImpl.obj
 0002:00008208       __real@4202a05f20000000    10048208     njsOracle.obj
 0002:00008210       __real@4733426172c74d82    10048210     njsOracle.obj
 0002:00008220       __xmm@41f00000000000000000000000000000 10048220     njsIntLob.obj
 0002:00008230       __xmm@80000000000000008000000000000000 10048230     njsOracle.obj
 0002:000082c8       __load_config_used         100482c8     LIBCMT:loadcfg.obj
 0002:0000837c       ??_R4_Facet_base@std@@6B@  1004837c     libcpmt:locale0.obj
 0002:00008390       ??_R3_Facet_base@std@@8    10048390     libcpmt:locale0.obj
 0002:000083a0       ??_R2_Facet_base@std@@8    100483a0     libcpmt:locale0.obj
 0002:000083a8       ??_R1A@?0A@EA@_Facet_base@std@@8 100483a8     libcpmt:locale0.obj
 0002:000083c4       ??_R4_Locimp@locale@std@@6B@ 100483c4     libcpmt:locale0.obj
 0002:000083d8       ??_R3_Locimp@locale@std@@8 100483d8     libcpmt:locale0.obj
 0002:000083e8       ??_R2_Locimp@locale@std@@8 100483e8     libcpmt:locale0.obj
 0002:000083f8       ??_R1A@?0A@EA@_Locimp@locale@std@@8 100483f8     libcpmt:locale0.obj
 0002:00008414       ??_R1A@?0A@EA@facet@locale@std@@8 10048414     libcpmt:locale0.obj
 0002:00008430       ??_R3facet@locale@std@@8   10048430     libcpmt:locale0.obj
 0002:00008440       ??_R2facet@locale@std@@8   10048440     libcpmt:locale0.obj
 0002:0000844c       ??_R1A@?0A@EA@exception@std@@8 1004844c     libcpmt:xthrow.obj
 0002:00008468       ??_R3exception@std@@8      10048468     libcpmt:xthrow.obj
 0002:00008478       ??_R2exception@std@@8      10048478     libcpmt:xthrow.obj
 0002:00008480       ??_R4bad_alloc@std@@6B@    10048480     libcpmt:xthrow.obj
 0002:00008494       ??_R3bad_alloc@std@@8      10048494     libcpmt:xthrow.obj
 0002:000084a4       ??_R2bad_alloc@std@@8      100484a4     libcpmt:xthrow.obj
 0002:000084b0       ??_R1A@?0A@EA@bad_alloc@std@@8 100484b0     libcpmt:xthrow.obj
 0002:000084cc       ??_R4logic_error@std@@6B@  100484cc     libcpmt:xthrow.obj
 0002:000084e0       ??_R3logic_error@std@@8    100484e0     libcpmt:xthrow.obj
 0002:000084f0       ??_R2logic_error@std@@8    100484f0     libcpmt:xthrow.obj
 0002:000084fc       ??_R1A@?0A@EA@logic_error@std@@8 100484fc     libcpmt:xthrow.obj
 0002:00008518       ??_R4length_error@std@@6B@ 10048518     libcpmt:xthrow.obj
 0002:0000852c       ??_R3length_error@std@@8   1004852c     libcpmt:xthrow.obj
 0002:0000853c       ??_R2length_error@std@@8   1004853c     libcpmt:xthrow.obj
 0002:0000854c       ??_R1A@?0A@EA@length_error@std@@8 1004854c     libcpmt:xthrow.obj
 0002:00008568       ??_R4out_of_range@std@@6B@ 10048568     libcpmt:xthrow.obj
 0002:0000857c       ??_R3out_of_range@std@@8   1004857c     libcpmt:xthrow.obj
 0002:0000858c       ??_R2out_of_range@std@@8   1004858c     libcpmt:xthrow.obj
 0002:0000859c       ??_R1A@?0A@EA@out_of_range@std@@8 1004859c     libcpmt:xthrow.obj
 0002:000085b8       ??_R4runtime_error@std@@6B@ 100485b8     libcpmt:xthrow.obj
 0002:000085cc       ??_R3runtime_error@std@@8  100485cc     libcpmt:xthrow.obj
 0002:000085dc       ??_R2runtime_error@std@@8  100485dc     libcpmt:xthrow.obj
 0002:000085e8       ??_R1A@?0A@EA@runtime_error@std@@8 100485e8     libcpmt:xthrow.obj
 0002:00008604       ??_R3ctype_base@std@@8     10048604     libcpmt:locale.obj
 0002:00008614       ??_R2ctype_base@std@@8     10048614     libcpmt:locale.obj
 0002:00008624       ??_R1A@?0A@EA@ctype_base@std@@8 10048624     libcpmt:locale.obj
 0002:00008640       ??_R4?$ctype@D@std@@6B@    10048640     libcpmt:locale.obj
 0002:00008654       ??_R3?$ctype@D@std@@8      10048654     libcpmt:locale.obj
 0002:00008664       ??_R2?$ctype@D@std@@8      10048664     libcpmt:locale.obj
 0002:00008678       ??_R1A@?0A@EA@?$ctype@D@std@@8 10048678     libcpmt:locale.obj
 0002:00008694       ??_R4?$num_put@DV?$ostreambuf_iterator@DU?$char_traits@D@std@@@std@@@std@@6B@ 10048694     libcpmt:locale.obj
 0002:000086a8       ??_R3?$num_put@DV?$ostreambuf_iterator@DU?$char_traits@D@std@@@std@@@std@@8 100486a8     libcpmt:locale.obj
 0002:000086b8       ??_R2?$num_put@DV?$ostreambuf_iterator@DU?$char_traits@D@std@@@std@@@std@@8 100486b8     libcpmt:locale.obj
 0002:000086c8       ??_R1A@?0A@EA@?$num_put@DV?$ostreambuf_iterator@DU?$char_traits@D@std@@@std@@@std@@8 100486c8     libcpmt:locale.obj
 0002:000086e4       ??_R4?$numpunct@D@std@@6B@ 100486e4     libcpmt:locale.obj
 0002:000086f8       ??_R3?$numpunct@D@std@@8   100486f8     libcpmt:locale.obj
 0002:00008708       ??_R2?$numpunct@D@std@@8   10048708     libcpmt:locale.obj
 0002:00008718       ??_R1A@?0A@EA@?$numpunct@D@std@@8 10048718     libcpmt:locale.obj
 0002:00008734       ??_R4type_info@@6B@        10048734     LIBCMT:typinfo.obj
 0002:00008748       ??_R3type_info@@8          10048748     LIBCMT:typinfo.obj
 0002:00008758       ??_R2type_info@@8          10048758     LIBCMT:typinfo.obj
 0002:00008760       ??_R1A@?0A@EA@type_info@@8 10048760     LIBCMT:typinfo.obj
 0002:0000877c       ??_R4exception@std@@6B@    1004877c     LIBCMT:stdexcpt.obj
 0002:00008790       ??_R4bad_exception@std@@6B@ 10048790     LIBCMT:frame.obj
 0002:000087a4       ??_R3bad_exception@std@@8  100487a4     LIBCMT:frame.obj
 0002:000087b4       ??_R2bad_exception@std@@8  100487b4     LIBCMT:frame.obj
 0002:000087c0       ??_R1A@?0A@EA@bad_exception@std@@8 100487c0     LIBCMT:frame.obj
 0002:000087e0       ___safe_se_handler_table   100487e0     <linker-defined>
 0002:00008a54       ___rtc_iaa                 10048a54     LIBCMT:initsect.obj
 0002:00008a58       ___rtc_izz                 10048a58     LIBCMT:initsect.obj
 0002:00008a5c       ___rtc_taa                 10048a5c     LIBCMT:initsect.obj
 0002:00008a60       ___rtc_tzz                 10048a60     LIBCMT:initsect.obj
 0002:0000b160       __TI2?AVbad_alloc@std@@    1004b160     libcpmt:xthrow.obj
 0002:0000b170       __CTA2?AVbad_alloc@std@@   1004b170     libcpmt:xthrow.obj
 0002:0000b17c       __CT??_R0?AVbad_alloc@std@@@8??0bad_alloc@std@@QAE@ABV01@@Z12 1004b17c     libcpmt:xthrow.obj
 0002:0000b198       __CT??_R0?AVexception@std@@@8??0exception@std@@QAE@ABV01@@Z12 1004b198     libcpmt:xthrow.obj
 0002:0000b1b4       __CT??_R0?AVlogic_error@std@@@8??0logic_error@std@@QAE@ABV01@@Z12 1004b1b4     libcpmt:xthrow.obj
 0002:0000b1d0       __TI3?AVlength_error@std@@ 1004b1d0     libcpmt:xthrow.obj
 0002:0000b1e0       __CTA3?AVlength_error@std@@ 1004b1e0     libcpmt:xthrow.obj
 0002:0000b1f0       __CT??_R0?AVlength_error@std@@@8??0length_error@std@@QAE@ABV01@@Z12 1004b1f0     libcpmt:xthrow.obj
 0002:0000b20c       __TI3?AVout_of_range@std@@ 1004b20c     libcpmt:xthrow.obj
 0002:0000b21c       __CTA3?AVout_of_range@std@@ 1004b21c     libcpmt:xthrow.obj
 0002:0000b22c       __CT??_R0?AVout_of_range@std@@@8??0out_of_range@std@@QAE@ABV01@@Z12 1004b22c     libcpmt:xthrow.obj
 0002:0000b6bc       __TI2?AVbad_exception@std@@ 1004b6bc     LIBCMT:frame.obj
 0002:0000b6cc       __CTA2?AVbad_exception@std@@ 1004b6cc     LIBCMT:frame.obj
 0002:0000b6d8       __CT??_R0?AVbad_exception@std@@@8??0bad_exception@std@@QAE@ABV01@@Z12 1004b6d8     LIBCMT:frame.obj
 0002:0000b7f4       __CT??_R0?AVexception@stdext@@@8??0exception@stdext@@QAE@ABV01@@Z8 1004b7f4     dpiEnvImpl.obj
 0002:0000b810       __TI3?AVExceptionImpl@@    1004b810     dpiEnvImpl.obj
 0002:0000b820       __CT??_R0?AVException@dpi@@@8??0Exception@dpi@@QAE@ABV01@@Z8 1004b820     dpiEnvImpl.obj
 0002:0000b83c       __CT??_R0?AVExceptionImpl@@@8??0ExceptionImpl@@QAE@ABV0@@Z60 1004b83c     dpiEnvImpl.obj
 0002:0000b858       __CTA3?AVExceptionImpl@@   1004b858     dpiEnvImpl.obj
 0002:0000b868       __DELAY_IMPORT_DESCRIPTOR_node_exe 1004b868     node:node.exe
 0002:0000b888       __NULL_DELAY_IMPORT_DESCRIPTOR 1004b888     node:node.exe
 0002:0000ba04       \177node_NULL_THUNK_DATA_DLN 1004ba04     node:node.exe
 0002:0000cf78       \177node_NULL_THUNK_DATA_DLB 1004cf78     node:node.exe
 0002:0000d134       __IMPORT_DESCRIPTOR_KERNEL32 1004d134     kernel32:KERNEL32.dll
 0002:0000d148       __IMPORT_DESCRIPTOR_OCI    1004d148     oci:OCI.dll
 0002:0000d15c       __NULL_IMPORT_DESCRIPTOR   1004d15c     kernel32:KERNEL32.dll
 0003:00000000       ?_Sync@ios_base@std@@0_NA  1004e000     libcpmt:ios.obj
 0003:00000010       ?_PJP_CPP_Copyright@@3PADA 1004e010     libcpmt:iosptrs.obj
 0003:00000070       __FDenorm                  1004e070     libcpmt:xfvalues.obj
 0003:00000080       __FInf                     1004e080     libcpmt:xfvalues.obj
 0003:00000090       __FNan                     1004e090     libcpmt:xfvalues.obj
 0003:000000a0       __FSnan                    1004e0a0     libcpmt:xfvalues.obj
 0003:000000b0       __FEps                     1004e0b0     libcpmt:xfvalues.obj
 0003:000000c0       __FRteps                   1004e0c0     libcpmt:xfvalues.obj
 0003:000000d0       __FXbig                    1004e0d0     libcpmt:xfvalues.obj
 0003:000000d8       __Denorm                   1004e0d8     libcpmt:xvalues.obj
 0003:000000e8       __Hugeval                  1004e0e8     libcpmt:xvalues.obj
 0003:000000f8       __Inf                      1004e0f8     libcpmt:xvalues.obj
 0003:00000108       __Nan                      1004e108     libcpmt:xvalues.obj
 0003:00000118       __Snan                     1004e118     libcpmt:xvalues.obj
 0003:00000128       __Eps                      1004e128     libcpmt:xvalues.obj
 0003:00000138       __Rteps                    1004e138     libcpmt:xvalues.obj
 0003:00000148       __Xbig                     1004e148     libcpmt:xvalues.obj
 0003:00000150       __LDenorm                  1004e150     libcpmt:xlvalues.obj
 0003:00000160       __LInf                     1004e160     libcpmt:xlvalues.obj
 0003:00000170       __LNan                     1004e170     libcpmt:xlvalues.obj
 0003:00000180       __LSnan                    1004e180     libcpmt:xlvalues.obj
 0003:00000190       __LEps                     1004e190     libcpmt:xlvalues.obj
 0003:000001a0       __LRteps                   1004e1a0     libcpmt:xlvalues.obj
 0003:000001b0       __LXbig                    1004e1b0     libcpmt:xlvalues.obj
 0003:000001b8       ___abort_behavior          1004e1b8     LIBCMT:abort.obj
 0003:000001c0       ___lconv                   1004e1c0     LIBCMT:lconv.obj
 0003:000001c4       ___lconv_static_decimal    1004e1c4     LIBCMT:lconv.obj
 0003:000001c8       ___lconv_c                 1004e1c8     LIBCMT:lconv.obj
 0003:00000218       ___lconv_static_W_decimal  1004e218     LIBCMT:lconv.obj
 0003:000003f0       __fltused                  1004e3f0     LIBCMT:fpinit.obj
 0003:000003f4       __ldused                   1004e3f4     LIBCMT:fpinit.obj
 0003:00000518       __pctype                   1004e518     LIBCMT:ctype.obj
 0003:0000051c       __pwctype                  1004e51c     LIBCMT:ctype.obj
 0003:00000520       ___security_cookie         1004e520     LIBCMT:gs_cookie.obj
 0003:00000524       ___security_cookie_complement 1004e524     LIBCMT:gs_cookie.obj
 0003:00000538       ___nullstring              1004e538     LIBCMT:output.obj
 0003:0000053c       ___wnullstring             1004e53c     LIBCMT:output.obj
 0003:00000540       ___isa_enabled             1004e540     LIBCMT:cpu_disp.obj
 0003:00000544       ___flsindex                1004e544     LIBCMT:tidtable.obj
 0003:00000548       ___mb_cur_max              1004e548     LIBCMT:nlsdata.obj
 0003:0000054c       ___wclocalestr             1004e54c     LIBCMT:nlsdata.obj
 0003:00000550       ___lc_time_c               1004e550     LIBCMT:nlsdata.obj
 0003:000006b4       ___ptlocinfo               1004e6b4     LIBCMT:nlsdata.obj
 0003:000006b8       ___initiallocinfo          1004e6b8     LIBCMT:nlsdata.obj
 0003:00000770       ___globallocalestatus      1004e770     LIBCMT:glstatus.obj
 0003:00000778       __iob                      1004e778     LIBCMT:_file.obj
 0003:00000a00       __d_inf                    1004ea00     LIBCMT:util.obj
 0003:00000a08       __d_ind                    1004ea08     LIBCMT:util.obj
 0003:00000a10       __d_max                    1004ea10     LIBCMT:util.obj
 0003:00000a18       __d_min                    1004ea18     LIBCMT:util.obj
 0003:00000a20       __d_mzero                  1004ea20     LIBCMT:util.obj
 0003:00000b30       __mbctype                  1004eb30     LIBCMT:mbctype.obj
 0003:00000c38       __mbcasemap                1004ec38     LIBCMT:mbctype.obj
 0003:00000d38       ___initialmbcinfo          1004ed38     LIBCMT:mbctype.obj
 0003:00000f5c       ___ptmbcinfo               1004ef5c     LIBCMT:mbctype.obj
 0003:00001058       ___badioinfo               1004f058     LIBCMT:ioinit.obj
 0003:000010a0       __cfltcvt_tab              1004f0a0     LIBCMT:cmiscdat.obj
 0003:000010e8       __timezone                 1004f0e8     LIBCMT:timeset.obj
 0003:000010ec       __daylight                 1004f0ec     LIBCMT:timeset.obj
 0003:000010f0       __dstbias                  1004f0f0     LIBCMT:timeset.obj
 0003:00001178       __tzname                   1004f178     LIBCMT:timeset.obj
 0003:00001180       __matherr_flag             1004f180     LIBCMT:matherr.obj
 0003:00001190       __NLG_Destination          1004f190     LIBCMT:exsup.obj
 0003:000011a0       __days                     1004f1a0     LIBCMT:days.obj
 0003:000011d4       __lpdays                   1004f1d4     LIBCMT:days.obj
 0003:00001238       __confh                    1004f238     LIBCMT:initcon.obj
 0003:00001240       __pow10pos                 1004f240     LIBCMT:constpow.obj
 0003:000013a0       __pow10neg                 1004f3a0     LIBCMT:constpow.obj
 0003:00001500       __HUGE                     1004f500     LIBCMT:huge.obj
 0003:00001534       ___pfnDliNotifyHook2       1004f534     win_delay_load_hook.obj
 0003:00001538       ?s_propPingName_@ConnImpl@@0V?$basic_string@DU?$char_traits@D@std@@V?$allocator@D@2@@std@@A 1004f538     dpiConnImpl.obj
 0003:00001550       ??_R0?AV_Facet_base@std@@@8 1004f550     libcpmt:locale0.obj
 0003:00001570       ??_R0?AV_Locimp@locale@std@@@8 1004f570     libcpmt:locale0.obj
 0003:00001594       ??_R0?AVfacet@locale@std@@@8 1004f594     libcpmt:locale0.obj
 0003:000015b4       ??_R0?AVbad_alloc@std@@@8  1004f5b4     libcpmt:xthrow.obj
 0003:000015d0       ??_R0?AVexception@std@@@8  1004f5d0     libcpmt:xthrow.obj
 0003:000015ec       ??_R0?AVlogic_error@std@@@8 1004f5ec     libcpmt:xthrow.obj
 0003:0000160c       ??_R0?AVlength_error@std@@@8 1004f60c     libcpmt:xthrow.obj
 0003:0000162c       ??_R0?AVout_of_range@std@@@8 1004f62c     libcpmt:xthrow.obj
 0003:0000164c       ??_R0?AVruntime_error@std@@@8 1004f64c     libcpmt:xthrow.obj
 0003:0000166c       ??_R0?AUctype_base@std@@@8 1004f66c     libcpmt:locale.obj
 0003:0000168c       ??_R0?AV?$ctype@D@std@@@8  1004f68c     libcpmt:locale.obj
 0003:000016a8       ??_R0?AV?$num_put@DV?$ostreambuf_iterator@DU?$char_traits@D@std@@@std@@@std@@@8 1004f6a8     libcpmt:locale.obj
 0003:000016fc       ??_R0?AV?$numpunct@D@std@@@8 1004f6fc     libcpmt:locale.obj
 0003:0000171c       ??_R0?AVtype_info@@@8      1004f71c     LIBCMT:typinfo.obj
 0003:00001734       ??_R0?AVbad_exception@std@@@8 1004f734     LIBCMT:frame.obj
 0003:00001754       ??_R0?AVException@dpi@@@8  1004f754     njsOracle.obj
 0003:00001770       ??_R0?AVExceptionImpl@@@8  1004f770     dpiEnvImpl.obj
 0003:0000178c       ??_R0?AVexception@stdext@@@8 1004f78c     dpiEnvImpl.obj
 0003:000017ac       __imp_?FatalException@node@@YAXPAVIsolate@v8@@ABVTryCatch@3@@Z 1004f7ac     node:node.exe
 0003:000017b0       __imp__node_module_register 1004f7b0     node:node.exe
 0003:000017b4       __imp_?MakeCallback@node@@YA?AV?$Local@VValue@v8@@@v8@@PAVIsolate@3@V?$Local@VObject@v8@@@3@V?$Local@VFunction@v8@@@3@HPAV23@@Z 1004f7b4     node:node.exe
 0003:000017b8       __imp__uv_default_loop     1004f7b8     node:node.exe
 0003:000017bc       __imp_?HasCaught@TryCatch@v8@@QBE_NXZ 1004f7bc     node:node.exe
 0003:000017c0       __imp_??1TryCatch@v8@@QAE@XZ 1004f7c0     node:node.exe
 0003:000017c4       __imp_??0TryCatch@v8@@QAE@PAVIsolate@1@@Z 1004f7c4     node:node.exe
 0003:000017c8       __imp_?New@Signature@v8@@SA?AV?$Local@VSignature@v8@@@2@PAVIsolate@2@V?$Local@VFunctionTemplate@v8@@@2@@Z 1004f7c8     node:node.exe
 0003:000017cc       __imp_?Global@Context@v8@@QAE?AV?$Local@VObject@v8@@@2@XZ 1004f7cc     node:node.exe
 0003:000017d0       __imp_?ToLocalEmpty@V8@v8@@CAXXZ 1004f7d0     node:node.exe
 0003:000017d4       __imp_?FromJustIsNothing@V8@v8@@CAXXZ 1004f7d4     node:node.exe
 0003:000017d8       __imp_?ClearWeak@V8@v8@@CAPAXPAPAVObject@internal@2@@Z 1004f7d8     node:node.exe
 0003:000017dc       __imp_?MakeWeak@V8@v8@@CAXPAPAVObject@internal@2@PAXP6AXABV?$WeakCallbackInfo@X@2@@ZW4WeakCallbackType@2@@Z 1004f7dc     node:node.exe
 0003:000017e0       __imp_?DisposeGlobal@V8@v8@@CAXPAPAVObject@internal@2@@Z 1004f7e0     node:node.exe
 0003:000017e4       __imp_?GlobalizeReference@V8@v8@@CAPAPAVObject@internal@2@PAVIsolate@42@PAPAV342@@Z 1004f7e4     node:node.exe
 0003:000017e8       __imp_?Escape@EscapableHandleScope@v8@@AAEPAPAVObject@internal@2@PAPAV342@@Z 1004f7e8     node:node.exe
 0003:000017ec       __imp_??0EscapableHandleScope@v8@@QAE@PAVIsolate@1@@Z 1004f7ec     node:node.exe
 0003:000017f0       __imp_?Int32Value@Value@v8@@QBE?AV?$Maybe@H@2@V?$Local@VContext@v8@@@2@@Z 1004f7f0     node:node.exe
 0003:000017f4       __imp_?Uint32Value@Value@v8@@QBE?AV?$Maybe@I@2@V?$Local@VContext@v8@@@2@@Z 1004f7f4     node:node.exe
 0003:000017f8       __imp_?ToInteger@Value@v8@@QBE?AV?$MaybeLocal@VInteger@v8@@@2@V?$Local@VContext@v8@@@2@@Z 1004f7f8     node:node.exe
 0003:000017fc       __imp_?IsUint32@Value@v8@@QBE_NXZ 1004f7fc     node:node.exe
 0003:00001800       __imp_?IsInt32@Value@v8@@QBE_NXZ 1004f800     node:node.exe
 0003:00001804       __imp_?IsNumber@Value@v8@@QBE_NXZ 1004f804     node:node.exe
 0003:00001808       __imp_?IsObject@Value@v8@@QBE_NXZ 1004f808     node:node.exe
 0003:0000180c       __imp_?IsArray@Value@v8@@QBE_NXZ 1004f80c     node:node.exe
 0003:00001810       __imp_?IsFunction@Value@v8@@QBE_NXZ 1004f810     node:node.exe
 0003:00001814       __imp_?SetClassName@FunctionTemplate@v8@@QAEXV?$Local@VString@v8@@@2@@Z 1004f814     node:node.exe
 0003:00001818       __imp_?PrototypeTemplate@FunctionTemplate@v8@@QAE?AV?$Local@VObjectTemplate@v8@@@2@XZ 1004f818     node:node.exe
 0003:0000181c       __imp_?InstanceTemplate@FunctionTemplate@v8@@QAE?AV?$Local@VObjectTemplate@v8@@@2@XZ 1004f81c     node:node.exe
 0003:00001820       __imp_?GetFunction@FunctionTemplate@v8@@QAE?AV?$Local@VFunction@v8@@@2@XZ 1004f820     node:node.exe
 0003:00001824       __imp_?GetFunction@FunctionTemplate@v8@@QAE?AV?$MaybeLocal@VFunction@v8@@@2@V?$Local@VContext@v8@@@2@@Z 1004f824     node:node.exe
 0003:00001828       __imp_?New@FunctionTemplate@v8@@SA?AV?$Local@VFunctionTemplate@v8@@@2@PAVIsolate@2@P6AXABV?$FunctionCallbackInfo@VValue@v8@@@2@@ZV?$Local@VValue@v8@@@2@V?$Local@VSignature@v8@@@2@H@Z 1004f828     node:node.exe
 0003:0000182c       __imp_?Error@Exception@v8@@SA?AV?$Local@VValue@v8@@@2@V?$Local@VString@v8@@@2@@Z 1004f82c     node:node.exe
 0003:00001830       __imp_??1Utf8Value@String@v8@@QAE@XZ 1004f830     node:node.exe
 0003:00001834       __imp_??0Utf8Value@String@v8@@QAE@V?$Local@VValue@v8@@@2@@Z 1004f834     node:node.exe
 0003:00001838       __imp_?NewFromUtf8@String@v8@@SA?AV?$MaybeLocal@VString@v8@@@2@PAVIsolate@2@PBDW4NewStringType@2@H@Z 1004f838     node:node.exe
 0003:0000183c       __imp_?New@Array@v8@@SA?AV?$Local@VArray@v8@@@2@PAVIsolate@2@H@Z 1004f83c     node:node.exe
 0003:00001840       __imp_?Length@Array@v8@@QBEIXZ 1004f840     node:node.exe
 0003:00001844       __imp_?CreateHandle@HandleScope@v8@@KAPAPAVObject@internal@2@PAVIsolate@42@PAV342@@Z 1004f844     node:node.exe
 0003:00001848       __imp_?CreateHandle@HandleScope@v8@@CAPAPAVObject@internal@2@PAVHeapObject@42@PAV342@@Z 1004f848     node:node.exe
 0003:0000184c       __imp_??1HandleScope@v8@@QAE@XZ 1004f84c     node:node.exe
 0003:00001850       __imp_??0HandleScope@v8@@QAE@PAVIsolate@1@@Z 1004f850     node:node.exe
 0003:00001854       __imp_?Value@Boolean@v8@@QBE_NXZ 1004f854     node:node.exe
 0003:00001858       __imp_?SlowGetAlignedPointerFromInternalField@Object@v8@@AAEPAXH@Z 1004f858     node:node.exe
 0003:0000185c       __imp_?SlowGetInternalField@Object@v8@@AAE?AV?$Local@VValue@v8@@@2@H@Z 1004f85c     node:node.exe
 0003:00001860       __imp_?SetAlignedPointerInInternalField@Object@v8@@QAEXHPAX@Z 1004f860     node:node.exe
 0003:00001864       __imp_?SetInternalField@Object@v8@@QAEXHV?$Local@VValue@v8@@@2@@Z 1004f864     node:node.exe
 0003:00001868       __imp_?InternalFieldCount@Object@v8@@QAEHXZ 1004f868     node:node.exe
 0003:0000186c       __imp_?Get@Object@v8@@QAE?AV?$Local@VValue@v8@@@2@V32@@Z 1004f86c     node:node.exe
 0003:00001870       __imp_?Get@Object@v8@@QAE?AV?$Local@VValue@v8@@@2@I@Z 1004f870     node:node.exe
 0003:00001874       __imp_?Set@Object@v8@@QAE?AV?$Maybe@_N@2@V?$Local@VContext@v8@@@2@V?$Local@VValue@v8@@@2@1@Z 1004f874     node:node.exe
 0003:00001878       __imp_?Set@Object@v8@@QAE_NIV?$Local@VValue@v8@@@2@@Z 1004f878     node:node.exe
 0003:0000187c       __imp_?Set@Template@v8@@QAEXV?$Local@VName@v8@@@2@V?$Local@VData@v8@@@2@W4PropertyAttribute@2@@Z 1004f87c     node:node.exe
 0003:00001880       __imp_?SetInternalFieldCount@ObjectTemplate@v8@@QAEXH@Z 1004f880     node:node.exe
 0003:00001884       __imp_?SetAccessor@ObjectTemplate@v8@@QAEXV?$Local@VName@v8@@@2@P6AX0ABV?$PropertyCallbackInfo@VValue@v8@@@2@@ZP6AX0V?$Local@VValue@v8@@@2@ABV?$PropertyCallbackInfo@X@2@@Z3W4AccessControl@2@W4PropertyAttribute@2@V?$Local@VAccessorSignature@v8@@@2@@Z 1004f884     node:node.exe
 0003:00001888       __imp_?NewInstance@ObjectTemplate@v8@@QAE?AV?$MaybeLocal@VObject@v8@@@2@V?$Local@VContext@v8@@@2@@Z 1004f888     node:node.exe
 0003:0000188c       __imp_?New@ObjectTemplate@v8@@SA?AV?$Local@VObjectTemplate@v8@@@2@PAVIsolate@2@V?$Local@VFunctionTemplate@v8@@@2@@Z 1004f88c     node:node.exe
 0003:00001890       __imp_?NewFromUnsigned@Integer@v8@@SA?AV?$Local@VInteger@v8@@@2@PAVIsolate@2@I@Z 1004f890     node:node.exe
 0003:00001894       __imp_?New@Integer@v8@@SA?AV?$Local@VInteger@v8@@@2@PAVIsolate@2@H@Z 1004f894     node:node.exe
 0003:00001898       __imp_?ThrowException@Isolate@v8@@QAE?AV?$Local@VValue@v8@@@2@V32@@Z 1004f898     node:node.exe
 0003:0000189c       __imp_?GetCurrentContext@Isolate@v8@@QAE?AV?$Local@VContext@v8@@@2@XZ 1004f89c     node:node.exe
 0003:000018a0       __imp_?GetCurrent@Isolate@v8@@SAPAV12@XZ 1004f8a0     node:node.exe
 0003:000018a4       __imp_?Value@External@v8@@QBEPAXXZ 1004f8a4     node:node.exe
 0003:000018a8       __imp_?New@External@v8@@SA?AV?$Local@VExternal@v8@@@2@PAVIsolate@2@PAX@Z 1004f8a8     node:node.exe
 0003:000018ac       __imp__uv_queue_work       1004f8ac     node:node.exe
 0003:000018b0       __imp_?ToObject@Value@v8@@QBE?AV?$Local@VObject@v8@@@2@XZ 1004f8b0     node:node.exe
 0003:000018b4       __imp_?ToString@Value@v8@@QBE?AV?$Local@VString@v8@@@2@XZ 1004f8b4     node:node.exe
 0003:000018b8       __imp_?ToBoolean@Value@v8@@QBE?AV?$Local@VBoolean@v8@@@2@XZ 1004f8b8     node:node.exe
 0003:000018bc       __imp_?NewInstance@Function@v8@@QBE?AV?$MaybeLocal@VObject@v8@@@2@V?$Local@VContext@v8@@@2@@Z 1004f8bc     node:node.exe
 0003:000018c0       __imp_?length@Utf8Value@String@v8@@QBEHXZ 1004f8c0     node:node.exe
 0003:000018c4       __imp_??DUtf8Value@String@v8@@QAEPADXZ 1004f8c4     node:node.exe
 0003:000018c8       __imp_??1EscapableHandleScope@v8@@QAE@XZ 1004f8c8     node:node.exe
 0003:000018cc       __imp_?Length@Buffer@node@@YAIV?$Local@VObject@v8@@@v8@@@Z 1004f8cc     node:node.exe
 0003:000018d0       __imp_?Data@Buffer@node@@YAPADV?$Local@VObject@v8@@@v8@@@Z 1004f8d0     node:node.exe
 0003:000018d4       __imp_?HasInstance@Buffer@node@@YA_NV?$Local@VValue@v8@@@v8@@@Z 1004f8d4     node:node.exe
 0003:000018d8       __imp_?HasInstance@Buffer@node@@YA_NV?$Local@VObject@v8@@@v8@@@Z 1004f8d8     node:node.exe
 0003:000018dc       __imp_?Copy@Buffer@node@@YA?AV?$MaybeLocal@VObject@v8@@@v8@@PAVIsolate@4@PBDI@Z 1004f8dc     node:node.exe
 0003:000018e0       __imp_?New@Date@v8@@SA?AV?$MaybeLocal@VValue@v8@@@2@V?$Local@VContext@v8@@@2@N@Z 1004f8e0     node:node.exe
 0003:000018e4       __imp_?NumberValue@Value@v8@@QBENXZ 1004f8e4     node:node.exe
 0003:000018e8       __imp_?IsDate@Value@v8@@QBE_NXZ 1004f8e8     node:node.exe
 0003:000018ec       __imp_?New@Number@v8@@SA?AV?$Local@VNumber@v8@@@2@PAVIsolate@2@N@Z 1004f8ec     node:node.exe
 0003:000018f0       __imp_?New@Object@v8@@SA?AV?$Local@VObject@v8@@@2@PAVIsolate@2@@Z 1004f8f0     node:node.exe
 0003:000018f4       __imp_?GetOwnPropertyNames@Object@v8@@QAE?AV?$Local@VArray@v8@@@2@XZ 1004f8f4     node:node.exe
 0003:000018f8       __imp_?ForceSet@Object@v8@@QAE?AV?$Maybe@_N@2@V?$Local@VContext@v8@@@2@V?$Local@VValue@v8@@@2@1W4PropertyAttribute@2@@Z 1004f8f8     node:node.exe
 0003:000018fc       __imp_?Set@Object@v8@@QAE?AV?$Maybe@_N@2@V?$Local@VContext@v8@@@2@IV?$Local@VValue@v8@@@2@@Z 1004f8fc     node:node.exe
 0003:00001900       __imp_?Call@Function@v8@@QAE?AV?$Local@VValue@v8@@@2@V32@HQAV32@@Z 1004f900     node:node.exe
 0003:00001904       __imp_?HasInstance@FunctionTemplate@v8@@QAE_NV?$Local@VValue@v8@@@2@@Z 1004f904     node:node.exe
 0003:00001908       \177node_NULL_THUNK_DATA_DLA 1004f908     node:node.exe
 0003:00001920       __hmod__node_exe           1004f920     node:node.exe
 0003:00001928       ?_Id_cnt@id@locale@std@@0HA 1004f928     libcpmt:locale0.obj
 0003:00001930       ?_Clocptr@_Locimp@locale@std@@0PAV123@A 1004f930     libcpmt:locale0.obj
 0003:00001938       ?id@?$ctype@D@std@@2V0locale@2@A 1004f938     libcpmt:locale0.obj
 0003:0000193c       ?id@?$codecvt@GDH@std@@2V0locale@2@A 1004f93c     libcpmt:locale0.obj
 0003:00001944       ?id@?$ctype@_W@std@@2V0locale@2@A 1004f944     libcpmt:locale0.obj
 0003:00001948       ?id@?$codecvt@_WDH@std@@2V0locale@2@A 1004f948     libcpmt:locale0.obj
 0003:00001950       ?id@?$ctype@G@std@@2V0locale@2@A 1004f950     libcpmt:locale0.obj
 0003:00001958       ?_Index@ios_base@std@@0HA  1004f958     libcpmt:ios.obj
 0003:00001990       ?_Raise_handler@std@@3P6AXABVexception@stdext@@@ZA 1004f990     libcpmt:raisehan.obj
 0003:00001a04       ?_Ptr_cin@std@@3PAV?$basic_istream@DU?$char_traits@D@std@@@1@A 1004fa04     libcpmt:iosptrs.obj
 0003:00001a08       ?_Ptr_cout@std@@3PAV?$basic_ostream@DU?$char_traits@D@std@@@1@A 1004fa08     libcpmt:iosptrs.obj
 0003:00001a0c       ?_Ptr_cerr@std@@3PAV?$basic_ostream@DU?$char_traits@D@std@@@1@A 1004fa0c     libcpmt:iosptrs.obj
 0003:00001a10       ?_Ptr_clog@std@@3PAV?$basic_ostream@DU?$char_traits@D@std@@@1@A 1004fa10     libcpmt:iosptrs.obj
 0003:00001a14       ?_Ptr_wcin@std@@3PAV?$basic_istream@_WU?$char_traits@_W@std@@@1@A 1004fa14     libcpmt:iosptrs.obj
 0003:00001a18       ?_Ptr_wcout@std@@3PAV?$basic_ostream@_WU?$char_traits@_W@std@@@1@A 1004fa18     libcpmt:iosptrs.obj
 0003:00001a1c       ?_Ptr_wcerr@std@@3PAV?$basic_ostream@_WU?$char_traits@_W@std@@@1@A 1004fa1c     libcpmt:iosptrs.obj
 0003:00001a20       ?_Ptr_wclog@std@@3PAV?$basic_ostream@_WU?$char_traits@_W@std@@@1@A 1004fa20     libcpmt:iosptrs.obj
 0003:00001a54       ?id@?$num_get@DV?$istreambuf_iterator@DU?$char_traits@D@std@@@std@@@std@@2V0locale@2@A 1004fa54     libcpmt:locale.obj
 0003:00001a58       ?id@?$codecvt@DDH@std@@2V0locale@2@A 1004fa58     libcpmt:locale.obj
 0003:00001a60       ?id@?$time_put@_WV?$ostreambuf_iterator@_WU?$char_traits@_W@std@@@std@@@std@@2V0locale@2@A 1004fa60     libcpmt:wlocale.obj
 0003:00001a64       ?id@?$num_get@_WV?$istreambuf_iterator@_WU?$char_traits@_W@std@@@std@@@std@@2V0locale@2@A 1004fa64     libcpmt:wlocale.obj
 0003:00001a68       ?id@?$num_put@_WV?$ostreambuf_iterator@_WU?$char_traits@_W@std@@@std@@@std@@2V0locale@2@A 1004fa68     libcpmt:wlocale.obj
 0003:00001a6c       ?id@?$collate@_W@std@@2V0locale@2@A 1004fa6c     libcpmt:wlocale.obj
 0003:00001a70       ?id@?$messages@_W@std@@2V0locale@2@A 1004fa70     libcpmt:wlocale.obj
 0003:00001a74       ?id@?$money_get@_WV?$istreambuf_iterator@_WU?$char_traits@_W@std@@@std@@@std@@2V0locale@2@A 1004fa74     libcpmt:wlocale.obj
 0003:00001a78       ?id@?$money_put@_WV?$ostreambuf_iterator@_WU?$char_traits@_W@std@@@std@@@std@@2V0locale@2@A 1004fa78     libcpmt:wlocale.obj
 0003:00001a7c       ?id@?$moneypunct@_W$0A@@std@@2V0locale@2@A 1004fa7c     libcpmt:wlocale.obj
 0003:00001a80       ?id@?$moneypunct@_W$00@std@@2V0locale@2@A 1004fa80     libcpmt:wlocale.obj
 0003:00001a84       ?id@?$time_get@_WV?$istreambuf_iterator@_WU?$char_traits@_W@std@@@std@@@std@@2V0locale@2@A 1004fa84     libcpmt:wlocale.obj
 0003:00001a88       ?id@?$num_get@GV?$istreambuf_iterator@GU?$char_traits@G@std@@@std@@@std@@2V0locale@2@A 1004fa88     libcpmt:wlocale.obj
 0003:00001a8c       ?id@?$num_put@GV?$ostreambuf_iterator@GU?$char_traits@G@std@@@std@@@std@@2V0locale@2@A 1004fa8c     libcpmt:wlocale.obj
 0003:00001a90       ?id@?$numpunct@G@std@@2V0locale@2@A 1004fa90     libcpmt:wlocale.obj
 0003:00001a94       ?id@?$collate@G@std@@2V0locale@2@A 1004fa94     libcpmt:wlocale.obj
 0003:00001a98       ?id@?$messages@G@std@@2V0locale@2@A 1004fa98     libcpmt:wlocale.obj
 0003:00001a9c       ?id@?$money_get@GV?$istreambuf_iterator@GU?$char_traits@G@std@@@std@@@std@@2V0locale@2@A 1004fa9c     libcpmt:wlocale.obj
 0003:00001aa0       ?id@?$money_put@GV?$ostreambuf_iterator@GU?$char_traits@G@std@@@std@@@std@@2V0locale@2@A 1004faa0     libcpmt:wlocale.obj
 0003:00001aa4       ?id@?$moneypunct@G$0A@@std@@2V0locale@2@A 1004faa4     libcpmt:wlocale.obj
 0003:00001aa8       ?id@?$moneypunct@G$00@std@@2V0locale@2@A 1004faa8     libcpmt:wlocale.obj
 0003:00001aac       ?id@?$time_get@GV?$istreambuf_iterator@GU?$char_traits@G@std@@@std@@@std@@2V0locale@2@A 1004faac     libcpmt:wlocale.obj
 0003:00001ab0       ?id@?$time_put@GV?$ostreambuf_iterator@GU?$char_traits@G@std@@@std@@@std@@2V0locale@2@A 1004fab0     libcpmt:wlocale.obj
 0003:00001ab8       ?id@?$collate@D@std@@2V0locale@2@A 1004fab8     libcpmt:xlocale.obj
 0003:00001abc       ?id@?$messages@D@std@@2V0locale@2@A 1004fabc     libcpmt:xlocale.obj
 0003:00001ac0       ?id@?$money_get@DV?$istreambuf_iterator@DU?$char_traits@D@std@@@std@@@std@@2V0locale@2@A 1004fac0     libcpmt:xlocale.obj
 0003:00001ac4       ?id@?$money_put@DV?$ostreambuf_iterator@DU?$char_traits@D@std@@@std@@@std@@2V0locale@2@A 1004fac4     libcpmt:xlocale.obj
 0003:00001ac8       ?id@?$moneypunct@D$0A@@std@@2V0locale@2@A 1004fac8     libcpmt:xlocale.obj
 0003:00001acc       ?id@?$moneypunct@D$00@std@@2V0locale@2@A 1004facc     libcpmt:xlocale.obj
 0003:00001ad0       ?id@?$time_get@DV?$istreambuf_iterator@DU?$char_traits@D@std@@@std@@@std@@2V0locale@2@A 1004fad0     libcpmt:xlocale.obj
 0003:00001ad4       ?id@?$time_put@DV?$ostreambuf_iterator@DU?$char_traits@D@std@@@std@@@std@@2V0locale@2@A 1004fad4     libcpmt:xlocale.obj
 0003:00001adc       __FZero                    1004fadc     libcpmt:xfvalues.obj
 0003:00001ae0       __Zero                     1004fae0     libcpmt:xvalues.obj
 0003:00001ae8       __LZero                    1004fae8     libcpmt:xlvalues.obj
 0003:00001af0       ___pInvalidArgHandler      1004faf0     LIBCMT:invarg.obj
 0003:00001af4       ___lconv_static_null       1004faf4     LIBCMT:lconv.obj
 0003:00001af8       ___lconv_static_W_null     1004faf8     LIBCMT:lconv.obj
 0003:00001e24       __aenvptr                  1004fe24     LIBCMT:dllcrt0.obj
 0003:00001e28       __wenvptr                  1004fe28     LIBCMT:dllcrt0.obj
 0003:00001e2c       ___fastflag                1004fe2c     LIBCMT:fpinit.obj
 0003:00001f80       __maxwait                  1004ff80     LIBCMT:crtheap.obj
 0003:00001f88       __C_Exit_Done              1004ff88     LIBCMT:crt0dat.obj
 0003:00001f8c       ___argc                    1004ff8c     LIBCMT:crt0dat.obj
 0003:00001f90       ___argv                    1004ff90     LIBCMT:crt0dat.obj
 0003:00001f94       ___wargv                   1004ff94     LIBCMT:crt0dat.obj
 0003:00001f98       __environ                  1004ff98     LIBCMT:crt0dat.obj
 0003:00001f9c       __wenviron                 1004ff9c     LIBCMT:crt0dat.obj
 0003:00001fa0       __pgmptr                   1004ffa0     LIBCMT:crt0dat.obj
 0003:00001fa4       __wpgmptr                  1004ffa4     LIBCMT:crt0dat.obj
 0003:00001fa8       __umaskval                 1004ffa8     LIBCMT:crt0dat.obj
 0003:00001fac       __exitflag                 1004ffac     LIBCMT:crt0dat.obj
 0003:00001fb0       __C_Termination_Done       1004ffb0     LIBCMT:crt0dat.obj
 0003:00001fb4       ___winitenv                1004ffb4     LIBCMT:crt0dat.obj
 0003:00001fb8       ___initenv                 1004ffb8     LIBCMT:crt0dat.obj
 0003:00001fd0       ___isa_available           1004ffd0     LIBCMT:cpu_disp.obj
 0003:00001fd4       ___favor                   1004ffd4     LIBCMT:cpu_disp.obj
 0003:00001fd8       __crtheap                  1004ffd8     LIBCMT:heapinit.obj
 0003:00001fdc       ?_pnhHeap@@3P6AHI@ZA       1004ffdc     LIBCMT:handler.obj
 0003:00001fe0       ___app_type                1004ffe0     LIBCMT:crt0msg.obj
 0003:00002610       __newmode                  10050610     LIBCMT:_newmode.obj
 0003:00002614       ___error_mode              10050614     LIBCMT:errmode.obj
 0003:00002618       __cflush                   10050618     LIBCMT:_file.obj
 0003:00002630       ___pPurecall               10050630     LIBCMT:inithelp.obj
 0003:0000263c       ?__pInconsistency@@3P6AXXZA 1005063c     LIBCMT:hooks.obj
 0003:00002640       ___mbcodepage              10050640     LIBCMT:mbctype.obj
 0003:00002644       ___ismbcodepage            10050644     LIBCMT:mbctype.obj
 0003:00002648       ___mbulinfo                10050648     LIBCMT:mbctype.obj
 0003:00002654       ___mblocalename            10050654     LIBCMT:mbctype.obj
 0003:0000265c       ___locale_changed          1005065c     LIBCMT:wsetloca.obj
 0003:00002660       ___pioinfo                 10050660     LIBCMT:ioinit.obj
 0003:00002868       ?g_OutOfMemoryExceptionCallback@@3P6GPAXXZA 10050868     LIBCMT:frame.obj
 0003:00002930       __stdbuf                   10050930     LIBCMT:_sftbuf.obj
 0003:0000293c       ?pArgList@UnDecorator@@0PAVReplicator@@A 1005093c     LIBCMT:undname.obj
 0003:00002940       ?pZNameList@UnDecorator@@0PAVReplicator@@A 10050940     LIBCMT:undname.obj
 0003:00002944       ?pTemplateArgList@UnDecorator@@0PAVReplicator@@A 10050944     LIBCMT:undname.obj
 0003:00002948       ?gName@UnDecorator@@0PBDB  10050948     LIBCMT:undname.obj
 0003:0000294c       ?name@UnDecorator@@0PBDB   1005094c     LIBCMT:undname.obj
 0003:00002950       ?outputString@UnDecorator@@0PADA 10050950     LIBCMT:undname.obj
 0003:00002954       ?maxStringLength@UnDecorator@@0HA 10050954     LIBCMT:undname.obj
 0003:00002958       ?disableFlags@UnDecorator@@0KA 10050958     LIBCMT:undname.obj
 0003:0000295c       ?fExplicitTemplateParams@UnDecorator@@0_NA 1005095c     LIBCMT:undname.obj
 0003:0000295d       ?fGetTemplateArgumentList@UnDecorator@@0_NA 1005095d     LIBCMT:undname.obj
 0003:00002960       ?m_pGetParameter@UnDecorator@@0P6APADJ@ZA 10050960     LIBCMT:undname.obj
 0003:00002978       __outputformat             10050978     LIBCMT:outputformat.obj
 0003:0000297c       ___pfnDliFailureHook2      1005097c     DelayImp:delayhk1.obj
 0003:00002980       ?_Psave@?$_Facetptr@V?$ctype@D@std@@@std@@2PBVfacet@locale@2@B 10050980     njsOracle.obj
 0003:00002984       ?_Psave@?$_Facetptr@V?$numpunct@D@std@@@std@@2PBVfacet@locale@2@B 10050984     njsOracle.obj
 0003:00002988       ?_Psave@?$_Facetptr@V?$num_put@DV?$ostreambuf_iterator@DU?$char_traits@D@std@@@std@@@std@@@std@@2PBVfacet@locale@2@B 10050988     njsOracle.obj
 0003:0000298c       ?baseDate_@DateTimeArrayImpl@dpi@@0PAUOCIDateTime@@A 1005098c     dpiDateTimeArrayImpl.obj
 0003:00002994       ?oracledbTemplate_s@Oracledb@@0V?$Persistent@VFunctionTemplate@v8@@V?$NonCopyablePersistentTraits@VFunctionTemplate@v8@@@2@@Nan@@A 10050994     njsOracle.obj
 0003:00002998       ?poolTemplate_s@Pool@@2V?$Persistent@VFunctionTemplate@v8@@V?$NonCopyablePersistentTraits@VFunctionTemplate@v8@@@2@@Nan@@A 10050998     njsPool.obj
 0003:000029a0       ?connectionTemplate_s@Connection@@2V?$Persistent@VFunctionTemplate@v8@@V?$NonCopyablePersistentTraits@VFunctionTemplate@v8@@@2@@Nan@@A 100509a0     njsConnection.obj
 0003:000029a4       ?resultSetTemplate_s@ResultSet@@2V?$Persistent@VFunctionTemplate@v8@@V?$NonCopyablePersistentTraits@VFunctionTemplate@v8@@@2@@Nan@@A 100509a4     njsResultSet.obj
 0003:000029ac       ?iLobTemplate_s@ILob@@2V?$Persistent@VFunctionTemplate@v8@@V?$NonCopyablePersistentTraits@VFunctionTemplate@v8@@@2@@Nan@@A 100509ac     njsIntLob.obj
 0003:000029c4       ?id@?$num_put@_WV?$back_insert_iterator@V?$basic_string@_WU?$char_traits@_W@std@@V?$allocator@_W@2@@std@@@std@@@std@@2V0locale@2@A 100509c4     njsOracle.obj
 0003:000029c8       ?_System_object@?$_Error_objects@H@std@@2V_System_error_category@2@A 100509c8     njsOracle.obj
 0003:000029cc       ?id@?$numpunct@_W@std@@2V0locale@2@A 100509cc     njsOracle.obj
 0003:000029d0       ?id@?$num_put@DV?$back_insert_iterator@V?$basic_string@DU?$char_traits@D@std@@V?$allocator@D@2@@std@@@std@@@std@@2V0locale@2@A 100509d0     njsOracle.obj
 0003:000029d4       ?_Generic_object@?$_Error_objects@H@std@@2V_Generic_error_category@2@A 100509d4     njsOracle.obj
 0003:000029d8       ?id@?$numpunct@D@std@@2V0locale@2@A 100509d8     njsOracle.obj
 0003:000029dc       ?id@?$num_put@DV?$ostreambuf_iterator@DU?$char_traits@D@std@@@std@@@std@@2V0locale@2@A 100509dc     njsOracle.obj
 0003:000029e0       ?_Iostream_object@?$_Error_objects@H@std@@2V_Iostream_error_category@2@A 100509e0     njsOracle.obj
 0003:000029e4       __nhandle                  100509e4     <common>
 0003:00002a00       __bufin                    10050a00     <common>
 0003:00003a00       ___piob                    10051a00     <common>
 0003:00003a04       __nstream                  10051a04     <common>
 0003:00003a08       __debugger_hook_dummy      10051a08     <common>
 0003:00003a0c       ___dyn_tls_init_callback   10051a0c     <common>
 0003:00003a10       ___onexitend               10051a10     <common>
 0003:00003a14       ___onexitbegin             10051a14     <common>
 0003:00003a18       ___mbctype_initialized     10051a18     <common>
 0003:00003a1c       ___env_initialized         10051a1c     <common>
 0003:00003a20       _encodedKERNEL32Functions  10051a20     <common>
 0003:00003aa4       __acmdln                   10051aa4     <common>

 entry point at        0001:000271d0

 Static symbols

 0000:fffa9000       .debug$S                   10000000     node:node.exe
 0000:fffa9000       .debug$S                   10000000     oci:OCI.dll
 0000:fffa9000       .debug$S                   10000000     node:node.exe
 0000:fffa9000       .debug$S                   10000000     node:node.exe
 0000:fffa9000       .debug$S                   10000000     node:node.exe
 0000:fffa9000       .debug$S                   10000000     node:node.exe
 0000:fffa9000       .debug$S                   10000000     node:node.exe
 0000:fffa9000       .debug$S                   10000000     node:node.exe
 0000:fffa9000       .debug$S                   10000000     node:node.exe
 0000:fffa9000       .debug$S                   10000000     node:node.exe
 0000:fffa9000       .debug$S                   10000000     node:node.exe
 0000:fffa9000       .debug$S                   10000000     node:node.exe
 0000:fffa9000       .debug$S                   10000000     node:node.exe
 0000:fffa9000       .debug$S                   10000000     node:node.exe
 0000:fffa9000       .debug$S                   10000000     node:node.exe
 0000:fffa9000       .debug$S                   10000000     node:node.exe
 0000:fffa9000       .debug$S                   10000000     node:node.exe
 0000:fffa9000       .debug$S                   10000000     node:node.exe
 0000:fffa9000       .debug$S                   10000000     node:node.exe
 0000:fffa9000       .debug$S                   10000000     node:node.exe
 0000:fffa9000       .debug$S                   10000000     node:node.exe
 0000:fffa9000       .debug$S                   10000000     node:node.exe
 0000:fffa9000       .debug$S                   10000000     node:node.exe
 0000:fffa9000       .debug$S                   10000000     node:node.exe
 0000:fffa9000       .debug$S                   10000000     node:node.exe
 0000:fffa9000       .debug$S                   10000000     node:node.exe
 0000:fffa9000       .debug$S                   10000000     node:node.exe
 0000:fffa9000       .debug$S                   10000000     node:node.exe
 0000:fffa9000       .debug$S                   10000000     node:node.exe
 0000:fffa9000       .debug$S                   10000000     node:node.exe
 0000:fffa9000       .debug$S                   10000000     node:node.exe
 0000:fffa9000       .debug$S                   10000000     node:node.exe
 0000:fffa9000       .debug$S                   10000000     node:node.exe
 0000:fffa9000       .debug$S                   10000000     node:node.exe
 0000:fffa9000       .debug$S                   10000000     node:node.exe
 0000:fffa9000       .debug$S                   10000000     node:node.exe
 0000:fffa9000       .debug$S                   10000000     node:node.exe
 0000:fffa9000       .debug$S                   10000000     node:node.exe
 0000:fffa9000       .debug$S                   10000000     node:node.exe
 0000:fffa9000       .debug$S                   10000000     oci:OCI.dll
 0000:fffa9000       .debug$S                   10000000     oci:OCI.dll
 0000:fffa9000       .debug$S                   10000000     oci:OCI.dll
 0000:fffa9000       .debug$S                   10000000     oci:OCI.dll
 0000:fffa9000       .debug$S                   10000000     oci:OCI.dll
 0000:fffa9000       .debug$S                   10000000     oci:OCI.dll
 0000:fffa9000       .debug$S                   10000000     oci:OCI.dll
 0000:fffa9000       .debug$S                   10000000     oci:OCI.dll
 0000:fffa9000       .debug$S                   10000000     oci:OCI.dll
 0000:fffa9000       .debug$S                   10000000     oci:OCI.dll
 0000:fffa9000       .debug$S                   10000000     kernel32:KERNEL32.dll
 0000:fffa9000       .debug$S                   10000000     kernel32:KERNEL32.dll
 0000:fffa9000       .debug$S                   10000000     kernel32:KERNEL32.dll
 0000:fffa9000       .debug$S                   10000000     kernel32:KERNEL32.dll
 0000:fffa9000       .debug$S                   10000000     kernel32:KERNEL32.dll
 0000:fffa9000       .debug$S                   10000000     kernel32:KERNEL32.dll
 0000:fffa9000       .debug$S                   10000000     kernel32:KERNEL32.dll
 0000:fffa9000       .debug$S                   10000000     kernel32:KERNEL32.dll
 0000:fffa9000       .debug$S                   10000000     kernel32:KERNEL32.dll
 0000:fffa9000       .debug$S                   10000000     kernel32:KERNEL32.dll
 0000:fffa9000       .debug$S                   10000000     kernel32:KERNEL32.dll
 0000:fffa9000       .debug$S                   10000000     kernel32:KERNEL32.dll
 0000:fffa9000       .debug$S                   10000000     node:node.exe
 0000:fffa9000       .debug$S                   10000000     kernel32:KERNEL32.dll
 0000:fffa9000       .debug$S                   10000000     kernel32:KERNEL32.dll
 0000:fffa9000       .debug$S                   10000000     kernel32:KERNEL32.dll
 0000:fffa9000       .debug$S                   10000000     kernel32:KERNEL32.dll
 0000:fffa9000       .debug$S                   10000000     kernel32:KERNEL32.dll
 0000:fffa9000       .debug$S                   10000000     kernel32:KERNEL32.dll
 0000:fffa9000       .debug$S                   10000000     kernel32:KERNEL32.dll
 0000:fffa9000       .debug$S                   10000000     kernel32:KERNEL32.dll
 0000:fffa9000       .debug$S                   10000000     kernel32:KERNEL32.dll
 0000:fffa9000       .debug$S                   10000000     kernel32:KERNEL32.dll
 0000:fffa9000       .debug$S                   10000000     kernel32:KERNEL32.dll
 0000:fffa9000       .debug$S                   10000000     kernel32:KERNEL32.dll
 0000:fffa9000       .debug$S                   10000000     node:node.exe
 0000:fffa9000       .debug$S                   10000000     kernel32:KERNEL32.dll
 0000:fffa9000       .debug$S                   10000000     kernel32:KERNEL32.dll
 0000:fffa9000       .debug$S                   10000000     kernel32:KERNEL32.dll
 0000:fffa9000       .debug$S                   10000000     kernel32:KERNEL32.dll
 0000:fffa9000       .debug$S                   10000000     kernel32:KERNEL32.dll
 0000:fffa9000       .debug$S                   10000000     kernel32:KERNEL32.dll
 0000:fffa9000       .debug$S                   10000000     kernel32:KERNEL32.dll
 0000:fffa9000       .debug$S                   10000000     kernel32:KERNEL32.dll
 0000:fffa9000       .debug$S                   10000000     kernel32:KERNEL32.dll
 0000:fffa9000       .debug$S                   10000000     kernel32:KERNEL32.dll
 0000:fffa9000       .debug$S                   10000000     kernel32:KERNEL32.dll
 0000:fffa9000       .debug$S                   10000000     kernel32:KERNEL32.dll
 0000:fffa9000       .debug$S                   10000000     kernel32:KERNEL32.dll
 0000:fffa9000       .debug$S                   10000000     kernel32:KERNEL32.dll
 0000:fffa9000       .debug$S                   10000000     kernel32:KERNEL32.dll
 0000:fffa9000       .debug$S                   10000000     kernel32:KERNEL32.dll
 0000:fffa9000       .debug$S                   10000000     kernel32:KERNEL32.dll
 0000:fffa9000       .debug$S                   10000000     kernel32:KERNEL32.dll
 0000:fffa9000       .debug$S                   10000000     kernel32:KERNEL32.dll
 0000:fffa9000       .debug$S                   10000000     kernel32:KERNEL32.dll
 0000:fffa9000       .debug$S                   10000000     kernel32:KERNEL32.dll
 0000:fffa9000       .debug$S                   10000000     kernel32:KERNEL32.dll
 0000:fffa9000       .debug$S                   10000000     kernel32:KERNEL32.dll
 0000:fffa9000       .debug$S                   10000000     kernel32:KERNEL32.dll
 0000:fffa9000       .debug$S                   10000000     kernel32:KERNEL32.dll
 0000:fffa9000       .debug$S                   10000000     kernel32:KERNEL32.dll
 0000:fffa9000       .debug$S                   10000000     kernel32:KERNEL32.dll
 0000:fffa9000       .debug$S                   10000000     kernel32:KERNEL32.dll
 0000:fffa9000       .debug$S                   10000000     kernel32:KERNEL32.dll
 0000:fffa9000       .debug$S                   10000000     kernel32:KERNEL32.dll
 0000:fffa9000       .debug$S                   10000000     kernel32:KERNEL32.dll
 0000:fffa9000       .debug$S                   10000000     kernel32:KERNEL32.dll
 0000:fffa9000       .debug$S                   10000000     kernel32:KERNEL32.dll
 0000:fffa9000       .debug$S                   10000000     kernel32:KERNEL32.dll
 0000:fffa9000       .debug$S                   10000000     kernel32:KERNEL32.dll
 0000:fffa9000       .debug$S                   10000000     kernel32:KERNEL32.dll
 0000:fffa9000       .debug$S                   10000000     kernel32:KERNEL32.dll
 0000:fffa9000       .debug$S                   10000000     kernel32:KERNEL32.dll
 0000:fffa9000       .debug$S                   10000000     kernel32:KERNEL32.dll
 0000:fffa9000       .debug$S                   10000000     kernel32:KERNEL32.dll
 0000:fffa9000       .debug$S                   10000000     kernel32:KERNEL32.dll
 0000:fffa9000       .debug$S                   10000000     kernel32:KERNEL32.dll
 0000:fffa9000       .debug$S                   10000000     kernel32:KERNEL32.dll
 0000:fffa9000       .debug$S                   10000000     kernel32:KERNEL32.dll
 0000:fffa9000       .debug$S                   10000000     kernel32:KERNEL32.dll
 0000:fffa9000       .debug$S                   10000000     kernel32:KERNEL32.dll
 0000:fffa9000       .debug$S                   10000000     kernel32:KERNEL32.dll
 0000:fffa9000       .debug$S                   10000000     kernel32:KERNEL32.dll
 0000:fffa9000       .debug$S                   10000000     kernel32:KERNEL32.dll
 0000:fffa9000       .debug$S                   10000000     kernel32:KERNEL32.dll
 0000:fffa9000       .debug$S                   10000000     kernel32:KERNEL32.dll
 0000:fffa9000       .debug$S                   10000000     kernel32:KERNEL32.dll
 0000:fffa9000       .debug$S                   10000000     kernel32:KERNEL32.dll
 0000:fffa9000       .debug$S                   10000000     kernel32:KERNEL32.dll
 0000:fffa9000       .debug$S                   10000000     kernel32:KERNEL32.dll
 0000:fffa9000       .debug$S                   10000000     kernel32:KERNEL32.dll
 0000:fffa9000       .debug$S                   10000000     oci:OCI.dll
 0000:fffa9000       .debug$S                   10000000     node:node.exe
 0000:fffa9000       .debug$S                   10000000     node:node.exe
 0000:fffa9000       .debug$S                   10000000     node:node.exe
 0000:fffa9000       .debug$S                   10000000     node:node.exe
 0000:fffa9000       .debug$S                   10000000     node:node.exe
 0000:fffa9000       .debug$S                   10000000     node:node.exe
 0000:fffa9000       .debug$S                   10000000     node:node.exe
 0000:fffa9000       .debug$S                   10000000     node:node.exe
 0000:fffa9000       .debug$S                   10000000     oci:OCI.dll
 0000:fffa9000       .debug$S                   10000000     oci:OCI.dll
 0000:fffa9000       .debug$S                   10000000     oci:OCI.dll
 0000:fffa9000       .debug$S                   10000000     oci:OCI.dll
 0000:fffa9000       .debug$S                   10000000     oci:OCI.dll
 0000:fffa9000       .debug$S                   10000000     oci:OCI.dll
 0000:fffa9000       .debug$S                   10000000     oci:OCI.dll
 0000:fffa9000       .debug$S                   10000000     oci:OCI.dll
 0000:fffa9000       .debug$S                   10000000     oci:OCI.dll
 0000:fffa9000       .debug$S                   10000000     oci:OCI.dll
 0000:fffa9000       .debug$S                   10000000     oci:OCI.dll
 0000:fffa9000       .debug$S                   10000000     oci:OCI.dll
 0000:fffa9000       .debug$S                   10000000     oci:OCI.dll
 0000:fffa9000       .debug$S                   10000000     oci:OCI.dll
 0000:fffa9000       .debug$S                   10000000     oci:OCI.dll
 0000:fffa9000       .debug$S                   10000000     oci:OCI.dll
 0000:fffa9000       .debug$S                   10000000     oci:OCI.dll
 0000:fffa9000       .debug$S                   10000000     oci:OCI.dll
 0000:fffa9000       .debug$S                   10000000     oci:OCI.dll
 0000:fffa9000       .debug$S                   10000000     oci:OCI.dll
 0000:fffa9000       .debug$S                   10000000     oci:OCI.dll
 0000:fffa9000       .debug$S                   10000000     oci:OCI.dll
 0000:fffa9000       .debug$S                   10000000     oci:OCI.dll
 0000:fffa9000       .debug$S                   10000000     oci:OCI.dll
 0000:fffa9000       .debug$S                   10000000     oci:OCI.dll
 0000:fffa9000       .debug$S                   10000000     oci:OCI.dll
 0000:fffa9000       .debug$S                   10000000     oci:OCI.dll
 0000:fffa9000       .debug$S                   10000000     oci:OCI.dll
 0000:fffa9000       .debug$S                   10000000     oci:OCI.dll
 0000:fffa9000       .debug$S                   10000000     oci:OCI.dll
 0000:fffa9000       .debug$S                   10000000     oci:OCI.dll
 0000:fffa9000       .debug$S                   10000000     oci:OCI.dll
 0000:fffa9000       .debug$S                   10000000     oci:OCI.dll
 0000:fffa9000       .debug$S                   10000000     oci:OCI.dll
 0000:fffa9000       .debug$S                   10000000     oci:OCI.dll
 0000:fffa9000       .debug$S                   10000000     node:node.exe
 0000:fffa9000       .debug$S                   10000000     node:node.exe
 0000:fffa9000       .debug$S                   10000000     node:node.exe
 0000:fffa9000       .debug$S                   10000000     node:node.exe
 0000:fffa9000       .debug$S                   10000000     node:node.exe
 0000:fffa9000       .debug$S                   10000000     node:node.exe
 0000:fffa9000       .debug$S                   10000000     node:node.exe
 0000:fffa9000       .debug$S                   10000000     node:node.exe
 0000:fffa9000       .debug$S                   10000000     node:node.exe
 0000:fffa9000       .debug$S                   10000000     node:node.exe
 0000:fffa9000       .debug$S                   10000000     node:node.exe
 0000:fffa9000       .debug$S                   10000000     node:node.exe
 0000:fffa9000       .debug$S                   10000000     node:node.exe
 0000:fffa9000       .debug$S                   10000000     node:node.exe
 0000:fffa9000       .debug$S                   10000000     node:node.exe
 0000:fffa9000       .debug$S                   10000000     node:node.exe
 0000:fffa9000       .debug$S                   10000000     node:node.exe
 0000:fffa9000       .debug$S                   10000000     node:node.exe
 0000:fffa9000       .debug$S                   10000000     node:node.exe
 0000:fffa9000       .debug$S                   10000000     node:node.exe
 0000:fffa9000       .debug$S                   10000000     node:node.exe
 0000:fffa9000       .debug$S                   10000000     node:node.exe
 0000:fffa9000       .debug$S                   10000000     node:node.exe
 0000:fffa9000       .debug$S                   10000000     node:node.exe
 0000:fffa9000       .debug$S                   10000000     node:node.exe
 0000:fffa9000       .debug$S                   10000000     node:node.exe
 0000:fffa9000       .debug$S                   10000000     node:node.exe
 0000:fffa9000       .debug$S                   10000000     node:node.exe
 0000:fffa9000       .debug$S                   10000000     node:node.exe
 0000:fffa9000       .debug$S                   10000000     node:node.exe
 0000:fffa9000       .debug$S                   10000000     node:node.exe
 0000:fffa9000       .debug$S                   10000000     node:node.exe
 0000:fffa9000       .debug$S                   10000000     node:node.exe
 0000:fffa9000       .debug$S                   10000000     node:node.exe
 0000:fffa9000       .debug$S                   10000000     node:node.exe
 0000:fffa9000       .debug$S                   10000000     node:node.exe
 0000:fffa9000       .debug$S                   10000000     node:node.exe
 0000:fffa9000       .debug$S                   10000000     node:node.exe
 0000:fffa9000       .debug$S                   10000000     node:node.exe
 0000:fffa9000       .debug$S                   10000000     node:node.exe
 0000:fffa9000       .debug$S                   10000000     node:node.exe
 0000:fffa9000       .debug$S                   10000000     node:node.exe
 0000:fffa9000       .debug$S                   10000000     node:node.exe
 0000:fffa9000       .debug$S                   10000000     node:node.exe
 0000:fffa9000       .debug$S                   10000000     node:node.exe
 0000:fffa9000       .debug$S                   10000000     node:node.exe
 0000:fffa9000       .debug$S                   10000000     node:node.exe
 0000:fffa9000       .debug$S                   10000000     node:node.exe
 0000:fffa9000       .debug$S                   10000000     node:node.exe
 0000:fffa9000       .debug$S                   10000000     node:node.exe
 0000:fffa9000       .debug$S                   10000000     node:node.exe
 0000:fffa9000       .debug$S                   10000000     node:node.exe
 0000:fffa9000       .debug$S                   10000000     node:node.exe
 0000:fffa9000       .debug$S                   10000000     node:node.exe
 0000:fffa9000       .debug$S                   10000000     node:node.exe
 0001:00000000       ??__E?oracledbTemplate_s@Oracledb@@0V?$Persistent@VFunctionTemplate@v8@@V?$NonCopyablePersistentTraits@VFunctionTemplate@v8@@@2@@Nan@@A@@YAXXZ 10001000 f   njsOracle.obj
 0001:00000010       ??__E?poolTemplate_s@Pool@@2V?$Persistent@VFunctionTemplate@v8@@V?$NonCopyablePersistentTraits@VFunctionTemplate@v8@@@2@@Nan@@A@@YAXXZ 10001010 f   njsPool.obj
 0001:00000020       ??__E?connectionTemplate_s@Connection@@2V?$Persistent@VFunctionTemplate@v8@@V?$NonCopyablePersistentTraits@VFunctionTemplate@v8@@@2@@Nan@@A@@YAXXZ 10001020 f   njsConnection.obj
 0001:00000030       ??__E?resultSetTemplate_s@ResultSet@@2V?$Persistent@VFunctionTemplate@v8@@V?$NonCopyablePersistentTraits@VFunctionTemplate@v8@@@2@@Nan@@A@@YAXXZ 10001030 f   njsResultSet.obj
 0001:00000040       ??__E?iLobTemplate_s@ILob@@2V?$Persistent@VFunctionTemplate@v8@@V?$NonCopyablePersistentTraits@VFunctionTemplate@v8@@@2@@Nan@@A@@YAXXZ 10001040 f   njsIntLob.obj
 0001:00000050       ??__E?s_propPingName_@ConnImpl@@0V?$basic_string@DU?$char_traits@D@std@@V?$allocator@D@2@@std@@A@@YAXXZ 10001050 f   dpiConnImpl.obj
 0001:0000006d       ??__E_Fac_tidy_reg@std@@YAXXZ 1000106d f   libcpmt:locale0.obj
 0001:00000079       ??__Eclassic_locale@std@@YAXXZ 10001079 f   libcpmt:locale0.obj
 0001:00000085       ??__Einitlocks@std@@YAXXZ  10001085 f   libcpmt:xlock.obj
 0001:0000009b       ??__Einit_atexit@@YAXXZ    1000109b f   libcpmt:iosptrs.obj
 0001:000000a7       ??__Einitlocks@std@@YAXXZ  100010a7 f   libcpmt:iosptrs.obj
 0001:00000a10       ?FunctionCallbackWrapper@imp@Nan@@YAXABV?$FunctionCallbackInfo@VValue@v8@@@v8@@@Z 10001a10 f   njsOracle.obj
 0001:00000ab0       ?GetterCallbackWrapper@imp@Nan@@YAXV?$Local@VName@v8@@@v8@@ABV?$PropertyCallbackInfo@VValue@v8@@@4@@Z 10001ab0 f   njsOracle.obj
 0001:00000b50       ?SetterCallbackWrapper@imp@Nan@@YAXV?$Local@VName@v8@@@v8@@V?$Local@VValue@v8@@@4@ABV?$PropertyCallbackInfo@X@4@@Z 10001b50 f   njsOracle.obj
 0001:000065a6       __catch$?Async_GetConnection@Oracledb@@CAXPAUuv_work_s@@@Z$1 100075a6 f   njsOracle.obj
 0001:00007628       __catch$?Async_CreatePool@Oracledb@@CAXPAUuv_work_s@@@Z$1 10008628 f   njsOracle.obj
 0001:000078d0       _init                      100088d0 f   njsOracle.obj
 0001:00007910       __register_oracledb        10008910 f   njsOracle.obj
 0001:0000c709       __catch$?GetConnectionsOpen@Pool@@CAXV?$Local@VString@v8@@@v8@@ABV?$PropertyCallbackInfo@VValue@v8@@@Nan@@@Z$0 1000d709 f   njsPool.obj
 0001:0000c899       __catch$?GetConnectionsInUse@Pool@@CAXV?$Local@VString@v8@@@v8@@ABV?$PropertyCallbackInfo@VValue@v8@@@Nan@@@Z$0 1000d899 f   njsPool.obj
 0001:0000d7c6       __catch$?Async_GetConnection@Pool@@CAXPAUuv_work_s@@@Z$1 1000e7c6 f   njsPool.obj
 0001:0000dd6c       __catch$?Async_Terminate@Pool@@CAXPAUuv_work_s@@@Z$1 1000ed6c f   njsPool.obj
 0001:0000f413       __catch$?GetStmtCacheSize@Connection@@CAXV?$Local@VString@v8@@@v8@@ABV?$PropertyCallbackInfo@VValue@v8@@@Nan@@@Z$0 10010413 f   njsConnection.obj
 0001:0000f813       __catch$?SetClientId@Connection@@CAXV?$Local@VString@v8@@@v8@@V?$Local@VValue@v8@@@3@ABV?$PropertyCallbackInfo@X@Nan@@@Z$0 10010813 f   njsConnection.obj
 0001:0000fa93       __catch$?SetModule@Connection@@CAXV?$Local@VString@v8@@@v8@@V?$Local@VValue@v8@@@3@ABV?$PropertyCallbackInfo@X@Nan@@@Z$0 10010a93 f   njsConnection.obj
 0001:0000fd13       __catch$?SetAction@Connection@@CAXV?$Local@VString@v8@@@v8@@V?$Local@VValue@v8@@@3@ABV?$PropertyCallbackInfo@X@Nan@@@Z$0 10010d13 f   njsConnection.obj
 0001:0000ff23       __catch$?GetOracleServerVersion@Connection@@CAXV?$Local@VString@v8@@@v8@@ABV?$PropertyCallbackInfo@VValue@v8@@@Nan@@@Z$0 10010f23 f   njsConnection.obj
 0001:0001220c       $LN317                     1001320c     njsConnection.obj
 0001:00012ce4       $LN368                     10013ce4     njsConnection.obj
 0001:00012d00       $LN369                     10013d00     njsConnection.obj
 0001:00013534       $LN1707                    10014534     njsConnection.obj
 0001:00013df0       __catch$?Async_Execute@Connection@@CAXPAUuv_work_s@@@Z$13 10014df0 f   njsConnection.obj
 0001:00014f70       $LN536                     10015f70     njsConnection.obj
 0001:00014f94       $LN524                     10015f94     njsConnection.obj
 0001:000150b4       $LN10                      100160b4     njsConnection.obj
 0001:000150c4       $LN8                       100160c4     njsConnection.obj
 0001:00015394       $LN54                      10016394     njsConnection.obj
 0001:000153a4       $LN51                      100163a4     njsConnection.obj
 0001:00015df4       $LN870                     10016df4     njsConnection.obj
 0001:00015e10       $LN862                     10016e10     njsConnection.obj
 0001:00017310       $LN349                     10018310     njsConnection.obj
 0001:00017320       $LN346                     10018320     njsConnection.obj
 0001:000179e0       $LN108                     100189e0     njsConnection.obj
 0001:000179f8       $LN106                     100189f8     njsConnection.obj
 0001:00017d28       $LN129                     10018d28     njsConnection.obj
 0001:00017d44       $LN124                     10018d44     njsConnection.obj
 0001:00018318       $LN186                     10019318     njsConnection.obj
 0001:00018330       $LN182                     10019330     njsConnection.obj
 0001:00018c58       __catch$?Async_Release@Connection@@CAXPAUuv_work_s@@@Z$1 10019c58 f   njsConnection.obj
 0001:0001928d       __catch$?Async_Commit@Connection@@CAXPAUuv_work_s@@@Z$1 1001a28d f   njsConnection.obj
 0001:000197dd       __catch$?Async_Rollback@Connection@@CAXPAUuv_work_s@@@Z$1 1001a7dd f   njsConnection.obj
 0001:00019b9d       __catch$?Async_Break@Connection@@CAXPAUuv_work_s@@@Z$1 1001ab9d f   njsConnection.obj
 0001:0001a089       __catch$?Async_CreateLob@Connection@@CAXPAUuv_work_s@@@Z$1 1001b089 f   njsConnection.obj
 0001:0001aaa4       $LN306                     1001baa4     njsConnection.obj
 0001:0001aac8       $LN298                     1001bac8     njsConnection.obj
 0001:0001acc4       $LN18                      1001bcc4     njsConnection.obj
 0001:0001acdc       $LN16                      1001bcdc     njsConnection.obj
 0001:0001cb75       __catch$?Async_GetRows@ResultSet@@CAXPAUuv_work_s@@@Z$4 1001db75 f   njsResultSet.obj
 0001:0001d1f6       __catch$?Async_Close@ResultSet@@CAXPAUuv_work_s@@@Z$1 1001e1f6 f   njsResultSet.obj
 0001:0001dc43       __catch$?cleanupDPI@ILob@@QAEXXZ$0 1001ec43 f   njsIntLob.obj
 0001:0001de44       __catch$?setILob@ILob@@QAEXPAUeBaton@@PAVProtoILob@@_N@Z$0 1001ee44 f   njsIntLob.obj
 0001:0001ef77       __catch$?GetChunkSize@ILob@@CAXV?$Local@VString@v8@@@v8@@ABV?$PropertyCallbackInfo@VValue@v8@@@Nan@@@Z$0 1001ff77 f   njsIntLob.obj
 0001:0001f2df       __catch$?GetLength@ILob@@CAXV?$Local@VString@v8@@@v8@@ABV?$PropertyCallbackInfo@VValue@v8@@@Nan@@@Z$0 100202df f   njsIntLob.obj
 0001:0001f627       __catch$?GetPieceSize@ILob@@CAXV?$Local@VString@v8@@@v8@@ABV?$PropertyCallbackInfo@VValue@v8@@@Nan@@@Z$0 10020627 f   njsIntLob.obj
 0001:0001f91a       __catch$?SetPieceSize@ILob@@CAXV?$Local@VString@v8@@@v8@@V?$Local@VValue@v8@@@3@ABV?$PropertyCallbackInfo@X@Nan@@@Z$0 1002091a f   njsIntLob.obj
 0001:0001fb47       __catch$?GetOffset@ILob@@CAXV?$Local@VString@v8@@@v8@@ABV?$PropertyCallbackInfo@VValue@v8@@@Nan@@@Z$0 10020b47 f   njsIntLob.obj
 0001:0001ffeb       __catch$?GetType@ILob@@CAXV?$Local@VString@v8@@@v8@@ABV?$PropertyCallbackInfo@VValue@v8@@@Nan@@@Z$0 10020feb f   njsIntLob.obj
 0001:00020a56       __catch$?Async_Read@ILob@@CAXPAUuv_work_s@@@Z$1 10021a56 f   njsIntLob.obj
 0001:00021184       __catch$?Async_Write@ILob@@CAXPAUuv_work_s@@@Z$1 10022184 f   njsIntLob.obj
 0001:000214ca       __catch$??0ProtoILob@@QAE@PAUeBaton@@PAUDescriptor@dpi@@G@Z$0 100224ca f   njsIntLob.obj
 0001:000216ca       __catch$??0EnvImpl@@QAE@ABV?$basic_string@DU?$char_traits@D@std@@V?$allocator@D@2@@std@@II@Z$0 100226ca f   dpiEnvImpl.obj
 0001:000224d6       __catch$??0ConnImpl@@QAE@PAVEnvImpl@@PAUOCIEnv@@_NIABV?$basic_string@DU?$char_traits@D@std@@V?$allocator@D@2@@std@@333W4DBPrivileges@dpi@@@Z$0 100234d6 f   dpiConnImpl.obj
 0001:00022649       __catch$??0ConnImpl@@QAE@PAVPoolImpl@@PAUOCIEnv@@_NPAEIABV?$basic_string@DU?$char_traits@D@std@@V?$allocator@D@2@@std@@444HW4DBPrivileges@dpi@@H@Z$0 10023649 f   dpiConnImpl.obj
 0001:00023aa2       __catch$??0PoolImpl@@QAE@PAVEnvImpl@@PAUOCIEnv@@ABV?$basic_string@DU?$char_traits@D@std@@V?$allocator@D@2@@std@@22HHHH_NH3H@Z$0 10024aa2 f   dpiPoolImpl.obj
 0001:00023e65       __catch$??0StmtImpl@@QAE@PAUOCIEnv@@PAVConnImpl@@PAUOCISvcCtx@@ABV?$basic_string@DU?$char_traits@D@std@@V?$allocator@D@2@@std@@@Z$0 10024e65 f   dpiStmtImpl.obj
 0001:00024610       $LN55                      10025610     dpiStmtImpl.obj
 0001:0002461c       $LN51                      1002561c     dpiStmtImpl.obj
 0001:00024970       ?ociCallCommon@@YAXHPAXI@Z 10025970 f   dpiUtils.obj
 0001:00024b10       ?load_exe_hook@@YGP6GHXZIPAUDelayLoadInfo@@@Z 10025b10 f   win_delay_load_hook.obj
 0001:00025225       _tidy_global               10026225 f   libcpmt:locale0.obj
 0001:0002577c       ?swfun@std@@YAXAAVios_base@1@_J@Z 1002677c f   libcpmt:iomanip.obj
 0001:00025a50       $$000000                   10026a50     LIBCMT:memmove.obj
 0001:00025ca0       LeadUpVec                  10026ca0     LIBCMT:memmove.obj
 0001:00025d1c       UnwindUpVec                10026d1c     LIBCMT:memmove.obj
 0001:00025d88       TrailUpVec                 10026d88     LIBCMT:memmove.obj
 0001:00025e2c       LeadDownVec                10026e2c     LIBCMT:memmove.obj
 0001:00025eb8       UnwindDownVec              10026eb8     LIBCMT:memmove.obj
 0001:00025f24       TrailDownVec               10026f24     LIBCMT:memmove.obj
 0001:0002680c       _swprintf                  1002780c f   LIBCMT:wassert.obj
 0001:0002689b       __onexit_nolock            1002789b f   LIBCMT:onexit.obj
 0001:000269a0       $$000000                   100279a0     LIBCMT:strcspn.obj
 0001:000271f3       ___DllMainCRTStartup       100281f3 f   LIBCMT:dllcrt0.obj
 0001:000277ba       ?x_ismbbtype_l@@YAHPAUlocaleinfo_struct@@IHH@Z 100287ba f   LIBCMT:ismbbyte.obj
 0001:00027830       $$000000                   10028830     LIBCMT:memcpy.obj
 0001:00027a80       LeadUpVec                  10028a80     LIBCMT:memcpy.obj
 0001:00027afc       UnwindUpVec                10028afc     LIBCMT:memcpy.obj
 0001:00027b68       TrailUpVec                 10028b68     LIBCMT:memcpy.obj
 0001:00027c0c       LeadDownVec                10028c0c     LIBCMT:memcpy.obj
 0001:00027c98       UnwindDownVec              10028c98     LIBCMT:memcpy.obj
 0001:00027d04       TrailDownVec               10028d04     LIBCMT:memcpy.obj
 0001:00027e80       $$000000                   10028e80     LIBCMT:strlen.obj
 0001:00027feb       ?CatchGuardHandler@@YA?AW4_EXCEPTION_DISPOSITION@@PAUEHExceptionRecord@@PAUCatchGuardRN@@PAX2@Z 10028feb f   LIBCMT:_trnsctrl_.obj
 0001:0002801c       ?TranslatorGuardHandler@@YA?AW4_EXCEPTION_DISPOSITION@@PAUEHExceptionRecord@@PAUTranslatorGuardRN@@PAX2@Z 1002901c f   LIBCMT:_trnsctrl_.obj
 0001:00028ad1       ?__crtLCMapStringA_stat@@YAHPAUlocaleinfo_struct@@PB_WKPBDHPADHHH@Z 10029ad1 f   LIBCMT:a_map.obj
 0001:00028e20       $$000000                   10029e20     LIBCMT:memset.obj
 0001:00028eb0       $$000000                   10029eb0     LIBCMT:strcmp.obj
 0001:00029500       $$000000                   1002a500     LIBCMT:memchr.obj
 0001:000295b0       $$000000                   1002a5b0     LIBCMT:llmul.obj
 0001:000295f0       $$000000                   1002a5f0     LIBCMT:ulldiv.obj
 0001:0002ad50       $LN1281                    1002bd50     LIBCMT:memcmp.obj
 0001:0002aef9       ___crtEnumLocalesProc@4    1002bef9 f   LIBCMT:winapinls.obj
 0001:0002b0c0       $$000000                   1002c0c0     LIBCMT:sqrt.obj
 0001:0002b3cc       __initterm                 1002c3cc f   LIBCMT:crt0dat.obj
 0001:0002b436       _doexit                    1002c436 f   LIBCMT:crt0dat.obj
 0001:0002b749       _siglookup                 1002c749 f   LIBCMT:winsig.obj
 0001:0002c579       $LN277                     1002d579     LIBCMT:output.obj
 0001:0002d20d       _xtow_s@20                 1002e20d f   LIBCMT:xtows.obj
 0001:0002d582       _flsall                    1002e582 f   LIBCMT:fflush.obj
 0001:0002db40       $$000000                   1002eb40     LIBCMT:sehprolg4.obj
 0001:0002e9c6       ?CPtoLocaleName@@YAPB_WH@Z 1002f9c6 f   LIBCMT:mbctype.obj
 0001:0002ea00       ?getSystemCP@@YAHH@Z       1002fa00 f   LIBCMT:mbctype.obj
 0001:0002ea6e       ?setSBCS@@YAXPAUthreadmbcinfostruct@@@Z 1002fa6e f   LIBCMT:mbctype.obj
 0001:0002eacd       ?setSBUpLow@@YAXPAUthreadmbcinfostruct@@@Z 1002facd f   LIBCMT:mbctype.obj
 0001:0002f2e8       __copytlocinfo_nolock      100302e8 f   LIBCMT:wsetloca.obj
 0001:0002f7c7       __wsetlocale_get_all       100307c7 f   LIBCMT:wsetloca.obj
 0001:0002f934       __wsetlocale_nolock        10030934 f   LIBCMT:wsetloca.obj
 0001:0002fbbd       __wsetlocale_set_cat       10030bbd f   LIBCMT:wsetloca.obj
 0001:00030499       _parse_cmdline             10031499 f   LIBCMT:stdargv.obj
 0001:00030865       ?__crtGetStringTypeA_stat@@YAHPAUlocaleinfo_struct@@KPBDHPAGHH@Z 10031865 f   LIBCMT:a_str.obj
 0001:000309a0       $$000000                   100319a0     LIBCMT:lowhelpr.obj
 0001:00030ac2       ?CallCatchBlock@@YAPAXPAUEHExceptionRecord@@PAUEHRegistrationNode@@PAU_CONTEXT@@PBU_s_FuncInfo@@PAXHK@Z 10031ac2 f   LIBCMT:frame.obj
 0001:00030c88       ?CallUnexpected@@YAXPBU_s_ESTypeList@@@Z 10031c88 f   LIBCMT:frame.obj
 0001:00030cb0       __catch$?CallUnexpected@@YAXPBU_s_ESTypeList@@@Z$0 10031cb0 f   LIBCMT:frame.obj
 0001:00030cc8       ?CatchIt@@YAXPAUEHExceptionRecord@@PAUEHRegistrationNode@@PAU_CONTEXT@@PAXPBU_s_FuncInfo@@PBU_s_HandlerType@@PBU_s_CatchableType@@PBU_s_TryBlockMapEntry@@H1E@Z 10031cc8 f   LIBCMT:frame.obj
 0001:00030d43       ?ExFilterRethrow@@YAHPAU_EXCEPTION_POINTERS@@@Z 10031d43 f   LIBCMT:frame.obj
 0001:00030d90       ?FindHandler@@YAXPAUEHExceptionRecord@@PAUEHRegistrationNode@@PAU_CONTEXT@@PAXPBU_s_FuncInfo@@EH1@Z 10031d90 f   LIBCMT:frame.obj
 0001:0003112d       ?FindHandlerForForeignException@@YAXPAUEHExceptionRecord@@PAUEHRegistrationNode@@PAU_CONTEXT@@PAXPBU_s_FuncInfo@@HH1@Z 1003212d f   LIBCMT:frame.obj
 0001:00031249       ?IsInExceptionSpec@@YAEPAUEHExceptionRecord@@PBU_s_ESTypeList@@@Z 10032249 f   LIBCMT:frame.obj
 0001:00031bd6       __cftoe2_l                 10032bd6 f   LIBCMT:cvt.obj
 0001:00031df5       __cftof2_l                 10032df5 f   LIBCMT:cvt.obj
 0001:0003222b       __shift                    1003322b f   LIBCMT:cvt.obj
 0001:00032970       $$000000                   10033970     LIBCMT:alloca16.obj
 0001:00032cc0       $$000000                   10033cc0     LIBCMT:87disp.obj
 0001:00032e90       $$000000                   10033e90     LIBCMT:genexcep.obj
 0001:00032ef0       $$000000                   10033ef0     LIBCMT:common.obj
 0001:000349a2       $LN296                     100359a2     LIBCMT:outputs.obj
 0001:000349c2       _write_char                100359c2 f   LIBCMT:outputs.obj
 0001:000349c2       _write_char                100359c2 f   LIBCMT:outputs.obj
 0001:00034a0a       _write_multi_char          10035a0a f   LIBCMT:outputs.obj
 0001:00034a0a       _write_multi_char          10035a0a f   LIBCMT:outputs.obj
 0001:00034a36       _write_string              10035a36 f   LIBCMT:outputs.obj
 0001:00034a36       _write_string              10035a36 f   LIBCMT:outputs.obj
 0001:00034c10       $$000000                   10035c10     LIBCMT:ulldvrm.obj
 0001:00035869       __get_lc_time              10036869 f   LIBCMT:inittime.obj
 0001:00036df6       $LN267                     10037df6     LIBCMT:woutput.obj
 0001:00036e16       _write_char                10037e16 f   LIBCMT:woutput.obj
 0001:00036e4c       _write_multi_char          10037e4c f   LIBCMT:woutput.obj
 0001:00036e78       _write_string              10037e78 f   LIBCMT:woutput.obj
 0001:00036f00       $$000000                   10037f00     LIBCMT:exsup4.obj
 0001:00036f90       __unwind_handler4          10037f90 f   LIBCMT:exsup4.obj
 0001:000370f6       ?__crtGetLocaleInfoA_stat@@YAHPAUlocaleinfo_struct@@PB_WKPADH@Z 100380f6 f   LIBCMT:a_loc.obj
 0001:00037315       _GetLocaleNameFromDefault  10038315 f   LIBCMT:getqloc.obj
 0001:0003738e       _GetLocaleNameFromLangCountry 1003838e f   LIBCMT:getqloc.obj
 0001:00037402       _GetLocaleNameFromLanguage 10038402 f   LIBCMT:getqloc.obj
 0001:0003744c       _GetPrimaryLen             1003844c f   LIBCMT:getqloc.obj
 0001:0003747e       _LangCountryEnumProcEx@12  1003847e f   LIBCMT:getqloc.obj
 0001:0003769e       _LanguageEnumProcEx@12     1003869e f   LIBCMT:getqloc.obj
 0001:00037751       _ProcessCodePage           10038751 f   LIBCMT:getqloc.obj
 0001:000377e6       _TestDefaultCountry        100387e6 f   LIBCMT:getqloc.obj
 0001:00037832       _TranslateName             10038832 f   LIBCMT:getqloc.obj
 0001:00037832       _TranslateName             10038832 f   LIBCMT:getqloc.obj
 0001:00037a60       _CountryEnumProc@4         10038a60 f   LIBCMT:getqloc_downlevel.obj
 0001:00037b10       _GetLcidFromCountry        10038b10 f   LIBCMT:getqloc_downlevel.obj
 0001:00037b50       _GetLcidFromLangCountry    10038b50 f   LIBCMT:getqloc_downlevel.obj
 0001:00037bcd       _GetLcidFromLanguage       10038bcd f   LIBCMT:getqloc_downlevel.obj
 0001:00037c26       _GetPrimaryLen             10038c26 f   LIBCMT:getqloc_downlevel.obj
 0001:00037c50       _LangCountryEnumProc@4     10038c50 f   LIBCMT:getqloc_downlevel.obj
 0001:00037e45       _LanguageEnumProc@4        10038e45 f   LIBCMT:getqloc_downlevel.obj
 0001:00037f20       _LcidFromHexString         10038f20 f   LIBCMT:getqloc_downlevel.obj
 0001:00037f6f       _ProcessCodePage           10038f6f f   LIBCMT:getqloc_downlevel.obj
 0001:00037ffa       _TestDefaultCountry        10038ffa f   LIBCMT:getqloc_downlevel.obj
 0001:0003801c       _TestDefaultLanguage       1003901c f   LIBCMT:getqloc_downlevel.obj
 0001:000382b0       $$000000                   100392b0     LIBCMT:exsup.obj
 0001:000382d0       __unwind_handler           100392d0 f   LIBCMT:exsup.obj
 0001:00038400       $$000000                   10039400     LIBCMT:strrchr.obj
 0001:00038890       $$000000                   10039890     LIBCMT:lldvrm.obj
 0001:00038970       $$000000                   10039970     LIBCMT:ullshr.obj
 0001:00038a00       $$000000                   10039a00     LIBCMT:chkstk.obj
 0001:00039195       ?wcstoxl@@YAKPB_WPAPB_WHH@Z 1003a195 f   LIBCMT:wcstol.obj
 0001:0003a85b       $LN333                     1003b85b     LIBCMT:strgtold.obj
 0001:0003b25f       ___hw_cw_sse2              1003c25f f   LIBCMT:ieee87.obj
 0001:0003b60a       __hw_cw                    1003c60a f   LIBCMT:ieee87.obj
 0001:0003bd30       $$000000                   1003cd30     LIBCMT:strchr.obj
 0001:0003be60       $$000000                   1003ce60     LIBCMT:_strnicm.obj
 0001:0003c0f0       $$000000                   1003d0f0     LIBCMT:ftol3.obj
 0001:0003c4c0       __unwindfunclet$??0_Locinfo@std@@QAE@PBD@Z$0 1003d4c0 f   njsOracle.obj
 0001:0003c4c8       __unwindfunclet$??0_Locinfo@std@@QAE@PBD@Z$1 1003d4c8 f   njsOracle.obj
 0001:0003c4d3       __unwindfunclet$??0_Locinfo@std@@QAE@PBD@Z$2 1003d4d3 f   njsOracle.obj
 0001:0003c4de       __unwindfunclet$??0_Locinfo@std@@QAE@PBD@Z$3 1003d4de f   njsOracle.obj
 0001:0003c4e9       __unwindfunclet$??0_Locinfo@std@@QAE@PBD@Z$4 1003d4e9 f   njsOracle.obj
 0001:0003c4f4       __unwindfunclet$??0_Locinfo@std@@QAE@PBD@Z$5 1003d4f4 f   njsOracle.obj
 0001:0003c4ff       __unwindfunclet$??0_Locinfo@std@@QAE@PBD@Z$6 1003d4ff f   njsOracle.obj
 0001:0003c50a       __unwindfunclet$??0_Locinfo@std@@QAE@PBD@Z$7 1003d50a f   njsOracle.obj
 0001:0003c512       __ehhandler$??0_Locinfo@std@@QAE@PBD@Z 1003d512 f   njsOracle.obj
 0001:0003c530       __unwindfunclet$?_Getcat@?$ctype@D@std@@SAIPAPBVfacet@locale@2@PBV42@@Z$0 1003d530 f   njsOracle.obj
 0001:0003c53b       __ehhandler$?_Getcat@?$ctype@D@std@@SAIPAPBVfacet@locale@2@PBV42@@Z 1003d53b f   njsOracle.obj
 0001:0003c560       __unwindfunclet$?_Makestr@_System_error@std@@CA?AV?$basic_string@DU?$char_traits@D@std@@V?$allocator@D@2@@2@Verror_code@2@V32@@Z$0 1003d560 f   njsOracle.obj
 0001:0003c568       __unwindfunclet$?_Makestr@_System_error@std@@CA?AV?$basic_string@DU?$char_traits@D@std@@V?$allocator@D@2@@2@Verror_code@2@V32@@Z$1 1003d568 f   njsOracle.obj
 0001:0003c570       __ehhandler$?_Makestr@_System_error@std@@CA?AV?$basic_string@DU?$char_traits@D@std@@V?$allocator@D@2@@2@Verror_code@2@V32@@Z 1003d570 f   njsOracle.obj
 0001:0003c5a0       __unwindfunclet$??0system_error@std@@QAE@Verror_code@1@PBD@Z$0 1003d5a0 f   njsOracle.obj
 0001:0003c5a8       __ehhandler$??0system_error@std@@QAE@Verror_code@1@PBD@Z 1003d5a8 f   njsOracle.obj
 0001:0003c5d0       __unwindfunclet$?clear@ios_base@std@@QAEXH_N@Z$0 1003d5d0 f   njsOracle.obj
 0001:0003c5d8       __unwindfunclet$?clear@ios_base@std@@QAEXH_N@Z$1 1003d5d8 f   njsOracle.obj
 0001:0003c5e0       __unwindfunclet$?clear@ios_base@std@@QAEXH_N@Z$2 1003d5e0 f   njsOracle.obj
 0001:0003c5e8       __ehhandler$?clear@ios_base@std@@QAEXH_N@Z 1003d5e8 f   njsOracle.obj
 0001:0003c610       __unwindfunclet$??0?$basic_streambuf@DU?$char_traits@D@std@@@std@@IAE@XZ$0 1003d610 f   njsOracle.obj
 0001:0003c610       __unwindfunclet$?_Init@ios_base@std@@IAEXXZ$0 1003d610 f   njsOracle.obj
 0001:0003c61b       __ehhandler$??0?$basic_streambuf@DU?$char_traits@D@std@@@std@@IAE@XZ 1003d61b f   njsOracle.obj
 0001:0003c61b       __ehhandler$?_Init@ios_base@std@@IAEXXZ 1003d61b f   njsOracle.obj
 0001:0003c640       __unwindfunclet$?NewInstance@Nan@@YA?AV?$MaybeLocal@VObject@v8@@@v8@@V?$Local@VFunction@v8@@@3@@Z$0 1003d640 f   njsOracle.obj
 0001:0003c640       __unwindfunclet$?NewInstance@Nan@@YA?AV?$MaybeLocal@VObject@v8@@@v8@@V?$Local@VObjectTemplate@v8@@@3@@Z$0 1003d640 f   njsOracle.obj
 0001:0003c640       __unwindfunclet$?GetFunction@Nan@@YA?AV?$MaybeLocal@VFunction@v8@@@v8@@V?$Local@VFunctionTemplate@v8@@@3@@Z$0 1003d640 f   njsOracle.obj
 0001:0003c649       __ehhandler$?GetFunction@Nan@@YA?AV?$MaybeLocal@VFunction@v8@@@v8@@V?$Local@VFunctionTemplate@v8@@@3@@Z 1003d649 f   njsOracle.obj
 0001:0003c649       __ehhandler$?NewInstance@Nan@@YA?AV?$MaybeLocal@VObject@v8@@@v8@@V?$Local@VObjectTemplate@v8@@@3@@Z 1003d649 f   njsOracle.obj
 0001:0003c649       __ehhandler$?NewInstance@Nan@@YA?AV?$MaybeLocal@VObject@v8@@@v8@@V?$Local@VFunction@v8@@@3@@Z 1003d649 f   njsOracle.obj
 0001:0003c670       __unwindfunclet$?Set@Nan@@YA?AV?$Maybe@_N@v8@@V?$Local@VObject@v8@@@3@V?$Local@VValue@v8@@@3@1@Z$0 1003d670 f   njsOracle.obj
 0001:0003c670       __unwindfunclet$?convert@?$ToFactory@H@imp@Nan@@SA?AV?$Maybe@H@v8@@V?$Local@VValue@v8@@@5@@Z$0 1003d670 f   njsOracle.obj
 0001:0003c670       __unwindfunclet$?ForceSet@Nan@@YA?AV?$Maybe@_N@v8@@V?$Local@VObject@v8@@@3@V?$Local@VValue@v8@@@3@1W4PropertyAttribute@3@@Z$0 1003d670 f   njsConnection.obj
 0001:0003c670       __unwindfunclet$?convert@?$ToFactory@I@imp@Nan@@SA?AV?$Maybe@I@v8@@V?$Local@VValue@v8@@@5@@Z$0 1003d670 f   njsOracle.obj
 0001:0003c679       __ehhandler$?convert@?$ToFactory@H@imp@Nan@@SA?AV?$Maybe@H@v8@@V?$Local@VValue@v8@@@5@@Z 1003d679 f   njsOracle.obj
 0001:0003c679       __ehhandler$?ForceSet@Nan@@YA?AV?$Maybe@_N@v8@@V?$Local@VObject@v8@@@3@V?$Local@VValue@v8@@@3@1W4PropertyAttribute@3@@Z 1003d679 f   njsConnection.obj
 0001:0003c679       __ehhandler$?Set@Nan@@YA?AV?$Maybe@_N@v8@@V?$Local@VObject@v8@@@3@V?$Local@VValue@v8@@@3@1@Z 1003d679 f   njsOracle.obj
 0001:0003c679       __ehhandler$?convert@?$ToFactory@I@imp@Nan@@SA?AV?$Maybe@I@v8@@V?$Local@VValue@v8@@@5@@Z 1003d679 f   njsOracle.obj
 0001:0003c6a0       __unwindfunclet$?convert@?$ToFactory@VInteger@v8@@@imp@Nan@@SA?AV?$MaybeLocal@VInteger@v8@@@v8@@V?$Local@VValue@v8@@@5@@Z$0 1003d6a0 f   njsOracle.obj
 0001:0003c6a9       __ehhandler$?convert@?$ToFactory@VInteger@v8@@@imp@Nan@@SA?AV?$MaybeLocal@VInteger@v8@@@v8@@V?$Local@VValue@v8@@@5@@Z 1003d6a9 f   njsOracle.obj
 0001:0003c6d0       __unwindfunclet$?New@?$Factory@VFunctionTemplate@v8@@@imp@Nan@@SA?AV?$Local@VFunctionTemplate@v8@@@v8@@P6AXABV?$FunctionCallbackInfo@VValue@v8@@@3@@ZV?$Local@VValue@v8@@@5@V?$Local@VSignature@v8@@@5@@Z$0 1003d6d0 f   njsOracle.obj
 0001:0003c6d9       __ehhandler$?New@?$Factory@VFunctionTemplate@v8@@@imp@Nan@@SA?AV?$Local@VFunctionTemplate@v8@@@v8@@P6AXABV?$FunctionCallbackInfo@VValue@v8@@@3@@ZV?$Local@VValue@v8@@@5@V?$Local@VSignature@v8@@@5@@Z 1003d6d9 f   njsOracle.obj
 0001:0003c700       __unwindfunclet$?hasILobInstance@ILob@@SA_NV?$Local@VObject@v8@@@v8@@@Z$0 1003d700 f   njsIntLob.obj
 0001:0003c700       __unwindfunclet$?ThrowError@Nan@@YAXPBD@Z$0 1003d700 f   njsOracle.obj
 0001:0003c708       __ehhandler$?hasILobInstance@ILob@@SA_NV?$Local@VObject@v8@@@v8@@@Z 1003d708 f   njsIntLob.obj
 0001:0003c708       __ehhandler$?ThrowError@Nan@@YAXPBD@Z 1003d708 f   njsOracle.obj
 0001:0003c730       __unwindfunclet$?SetPrototypeMethod@Nan@@YAXV?$Local@VFunctionTemplate@v8@@@v8@@PBDP6AXABV?$FunctionCallbackInfo@VValue@v8@@@1@@Z@Z$0 1003d730 f   njsOracle.obj
 0001:0003c738       __ehhandler$?SetPrototypeMethod@Nan@@YAXV?$Local@VFunctionTemplate@v8@@@v8@@PBDP6AXABV?$FunctionCallbackInfo@VValue@v8@@@1@@Z@Z 1003d738 f   njsOracle.obj
 0001:0003c760       __unwindfunclet$?SetAccessor@Nan@@YAXV?$Local@VObjectTemplate@v8@@@v8@@V?$Local@VString@v8@@@3@P6AX1ABV?$PropertyCallbackInfo@VValue@v8@@@1@@ZP6AX1V?$Local@VValue@v8@@@3@ABV?$PropertyCallbackInfo@X@1@@Z4W4AccessControl@3@W4PropertyAttribute@3@V?$Local@VAccessorSignature@v8@@@3@@Z$0 1003d760 f   njsOracle.obj
 0001:0003c768       __ehhandler$?SetAccessor@Nan@@YAXV?$Local@VObjectTemplate@v8@@@v8@@V?$Local@VString@v8@@@3@P6AX1ABV?$PropertyCallbackInfo@VValue@v8@@@1@@ZP6AX1V?$Local@VValue@v8@@@3@ABV?$PropertyCallbackInfo@X@1@@Z4W4AccessControl@3@W4PropertyAttribute@3@V?$Local@VAccessorSignature@v8@@@3@@Z 1003d768 f   njsOracle.obj
 0001:0003c790       __unwindfunclet$??1ObjectWrap@Nan@@UAE@XZ$0 1003d790 f   njsOracle.obj
 0001:0003c795       __ehhandler$??1ObjectWrap@Nan@@UAE@XZ 1003d795 f   njsOracle.obj
 0001:0003c7b0       __unwindfunclet$??0connectionBaton@@QAE@V?$Local@VFunction@v8@@@v8@@V?$Local@VObject@v8@@@2@@Z$0 1003d7b0 f   njsOracle.obj
 0001:0003c7bb       __unwindfunclet$??0connectionBaton@@QAE@V?$Local@VFunction@v8@@@v8@@V?$Local@VObject@v8@@@2@@Z$1 1003d7bb f   njsOracle.obj
 0001:0003c7c6       __unwindfunclet$??0connectionBaton@@QAE@V?$Local@VFunction@v8@@@v8@@V?$Local@VObject@v8@@@2@@Z$2 1003d7c6 f   njsOracle.obj
 0001:0003c7d4       __unwindfunclet$??0connectionBaton@@QAE@V?$Local@VFunction@v8@@@v8@@V?$Local@VObject@v8@@@2@@Z$3 1003d7d4 f   njsOracle.obj
 0001:0003c7e2       __unwindfunclet$??0connectionBaton@@QAE@V?$Local@VFunction@v8@@@v8@@V?$Local@VObject@v8@@@2@@Z$4 1003d7e2 f   njsOracle.obj
 0001:0003c7f0       __unwindfunclet$??0connectionBaton@@QAE@V?$Local@VFunction@v8@@@v8@@V?$Local@VObject@v8@@@2@@Z$5 1003d7f0 f   njsOracle.obj
 0001:0003c7f5       __unwindfunclet$??0connectionBaton@@QAE@V?$Local@VFunction@v8@@@v8@@V?$Local@VObject@v8@@@2@@Z$6 1003d7f5 f   njsOracle.obj
 0001:0003c7fa       __ehhandler$??0connectionBaton@@QAE@V?$Local@VFunction@v8@@@v8@@V?$Local@VObject@v8@@@2@@Z 1003d7fa f   njsOracle.obj
 0001:0003c820       __unwindfunclet$??1connectionBaton@@QAE@XZ$0 1003d820 f   njsOracle.obj
 0001:0003c82b       __unwindfunclet$??1connectionBaton@@QAE@XZ$1 1003d82b f   njsOracle.obj
 0001:0003c836       __unwindfunclet$??1connectionBaton@@QAE@XZ$2 1003d836 f   njsOracle.obj
 0001:0003c844       __unwindfunclet$??1connectionBaton@@QAE@XZ$3 1003d844 f   njsOracle.obj
 0001:0003c852       __unwindfunclet$??1connectionBaton@@QAE@XZ$4 1003d852 f   njsOracle.obj
 0001:0003c860       __unwindfunclet$??1connectionBaton@@QAE@XZ$5 1003d860 f   njsOracle.obj
 0001:0003c865       __unwindfunclet$??1connectionBaton@@QAE@XZ$6 1003d865 f   njsOracle.obj
 0001:0003c86a       __ehhandler$??1connectionBaton@@QAE@XZ 1003d86a f   njsOracle.obj
 0001:0003c890       __unwindfunclet$??0Oracledb@@AAE@XZ$0 1003d890 f   njsOracle.obj
 0001:0003c898       __unwindfunclet$??0Oracledb@@AAE@XZ$1 1003d898 f   njsOracle.obj
 0001:0003c89d       __unwindfunclet$??0Oracledb@@AAE@XZ$2 1003d89d f   njsOracle.obj
 0001:0003c8a8       __unwindfunclet$??0Oracledb@@AAE@XZ$3 1003d8a8 f   njsOracle.obj
 0001:0003c8b0       __unwindfunclet$??0Oracledb@@AAE@XZ$4 1003d8b0 f   njsOracle.obj
 0001:0003c8bb       __ehhandler$??0Oracledb@@AAE@XZ 1003d8bb f   njsOracle.obj
 0001:0003c8f0       __unwindfunclet$??1Oracledb@@EAE@XZ$0 1003d8f0 f   njsOracle.obj
 0001:0003c8f8       __unwindfunclet$??1Oracledb@@EAE@XZ$1 1003d8f8 f   njsOracle.obj
 0001:0003c8fd       __unwindfunclet$??1Oracledb@@EAE@XZ$2 1003d8fd f   njsOracle.obj
 0001:0003c908       __ehhandler$??1Oracledb@@EAE@XZ 1003d908 f   njsOracle.obj
 0001:0003c930       __unwindfunclet$?driverName@Oracledb@@ABE?BV?$basic_string@DU?$char_traits@D@std@@V?$allocator@D@2@@std@@XZ$0 1003d930 f   njsOracle.obj
 0001:0003c93b       __ehhandler$?driverName@Oracledb@@ABE?BV?$basic_string@DU?$char_traits@D@std@@V?$allocator@D@2@@std@@XZ 1003d93b f   njsOracle.obj
 0001:0003c960       __unwindfunclet$?Init@Pool@@SAXV?$Local@VObject@v8@@@v8@@@Z$0 1003d960 f   njsPool.obj
 0001:0003c960       __unwindfunclet$?Init@ILob@@SAXV?$Local@VObject@v8@@@v8@@@Z$0 1003d960 f   njsIntLob.obj
 0001:0003c960       __unwindfunclet$?Init@Oracledb@@SAXV?$Local@VObject@v8@@@v8@@@Z$0 1003d960 f   njsOracle.obj
 0001:0003c960       __unwindfunclet$?Init@ResultSet@@SAXV?$Local@VObject@v8@@@v8@@@Z$0 1003d960 f   njsResultSet.obj
 0001:0003c960       __unwindfunclet$?Init@Connection@@SAXV?$Local@VObject@v8@@@v8@@@Z$0 1003d960 f   njsConnection.obj
 0001:0003c968       __ehhandler$?Init@Oracledb@@SAXV?$Local@VObject@v8@@@v8@@@Z 1003d968 f   njsOracle.obj
 0001:0003c968       __ehhandler$?Init@ILob@@SAXV?$Local@VObject@v8@@@v8@@@Z 1003d968 f   njsIntLob.obj
 0001:0003c968       __ehhandler$?Init@Connection@@SAXV?$Local@VObject@v8@@@v8@@@Z 1003d968 f   njsConnection.obj
 0001:0003c968       __ehhandler$?Init@Pool@@SAXV?$Local@VObject@v8@@@v8@@@Z 1003d968 f   njsPool.obj
 0001:0003c968       __ehhandler$?Init@ResultSet@@SAXV?$Local@VObject@v8@@@v8@@@Z 1003d968 f   njsResultSet.obj
 0001:0003c990       __unwindfunclet$?New@Oracledb@@CAXABV?$FunctionCallbackInfo@VValue@v8@@@Nan@@@Z$0 1003d990 f   njsOracle.obj
 0001:0003c99b       __ehhandler$?New@Oracledb@@CAXABV?$FunctionCallbackInfo@VValue@v8@@@Nan@@@Z 1003d99b f   njsOracle.obj
 0001:0003c9d0       __unwindfunclet$?GetExternalAuth@Oracledb@@CAXV?$Local@VString@v8@@@v8@@ABV?$PropertyCallbackInfo@VValue@v8@@@Nan@@@Z$0 1003d9d0 f   njsOracle.obj
 0001:0003c9d0       __unwindfunclet$?GetPoolMin@Oracledb@@CAXV?$Local@VString@v8@@@v8@@ABV?$PropertyCallbackInfo@VValue@v8@@@Nan@@@Z$0 1003d9d0 f   njsOracle.obj
 0001:0003c9d0       __unwindfunclet$?GetOutFormat@Oracledb@@CAXV?$Local@VString@v8@@@v8@@ABV?$PropertyCallbackInfo@VValue@v8@@@Nan@@@Z$0 1003d9d0 f   njsOracle.obj
 0001:0003c9d0       __unwindfunclet$?GetPoolTimeout@Oracledb@@CAXV?$Local@VString@v8@@@v8@@ABV?$PropertyCallbackInfo@VValue@v8@@@Nan@@@Z$0 1003d9d0 f   njsOracle.obj
 0001:0003c9d0       __unwindfunclet$?GetPoolIncrement@Pool@@CAXV?$Local@VString@v8@@@v8@@ABV?$PropertyCallbackInfo@VValue@v8@@@Nan@@@Z$0 1003d9d0 f   njsPool.obj
 0001:0003c9d0       __unwindfunclet$?GetPoolMax@Pool@@CAXV?$Local@VString@v8@@@v8@@ABV?$PropertyCallbackInfo@VValue@v8@@@Nan@@@Z$0 1003d9d0 f   njsPool.obj
 0001:0003c9d0       __unwindfunclet$?GetConnectionClass@Oracledb@@CAXV?$Local@VString@v8@@@v8@@ABV?$PropertyCallbackInfo@VValue@v8@@@Nan@@@Z$0 1003d9d0 f   njsOracle.obj
 0001:0003c9d0       __unwindfunclet$?GetPoolMin@Pool@@CAXV?$Local@VString@v8@@@v8@@ABV?$PropertyCallbackInfo@VValue@v8@@@Nan@@@Z$0 1003d9d0 f   njsPool.obj
 0001:0003c9d0       __unwindfunclet$?GetPoolMax@Oracledb@@CAXV?$Local@VString@v8@@@v8@@ABV?$PropertyCallbackInfo@VValue@v8@@@Nan@@@Z$0 1003d9d0 f   njsOracle.obj
 0001:0003c9d0       __unwindfunclet$?GetPrefetchRows@Oracledb@@CAXV?$Local@VString@v8@@@v8@@ABV?$PropertyCallbackInfo@VValue@v8@@@Nan@@@Z$0 1003d9d0 f   njsOracle.obj
 0001:0003c9d0       __unwindfunclet$?GetPoolPingInterval@Pool@@CAXV?$Local@VString@v8@@@v8@@ABV?$PropertyCallbackInfo@VValue@v8@@@Nan@@@Z$0 1003d9d0 f   njsPool.obj
 0001:0003c9d0       __unwindfunclet$?GetStmtCacheSize@Pool@@CAXV?$Local@VString@v8@@@v8@@ABV?$PropertyCallbackInfo@VValue@v8@@@Nan@@@Z$0 1003d9d0 f   njsPool.obj
 0001:0003c9d0       __unwindfunclet$?GetPoolTimeout@Pool@@CAXV?$Local@VString@v8@@@v8@@ABV?$PropertyCallbackInfo@VValue@v8@@@Nan@@@Z$0 1003d9d0 f   njsPool.obj
 0001:0003c9d8       __ehhandler$?GetPoolTimeout@Oracledb@@CAXV?$Local@VString@v8@@@v8@@ABV?$PropertyCallbackInfo@VValue@v8@@@Nan@@@Z 1003d9d8 f   njsOracle.obj
 0001:0003c9d8       __ehhandler$?GetStmtCacheSize@Pool@@CAXV?$Local@VString@v8@@@v8@@ABV?$PropertyCallbackInfo@VValue@v8@@@Nan@@@Z 1003d9d8 f   njsPool.obj
 0001:0003c9d8       __ehhandler$?GetPrefetchRows@Oracledb@@CAXV?$Local@VString@v8@@@v8@@ABV?$PropertyCallbackInfo@VValue@v8@@@Nan@@@Z 1003d9d8 f   njsOracle.obj
 0001:0003c9d8       __ehhandler$?GetPoolMin@Pool@@CAXV?$Local@VString@v8@@@v8@@ABV?$PropertyCallbackInfo@VValue@v8@@@Nan@@@Z 1003d9d8 f   njsPool.obj
 0001:0003c9d8       __ehhandler$?GetConnectionClass@Oracledb@@CAXV?$Local@VString@v8@@@v8@@ABV?$PropertyCallbackInfo@VValue@v8@@@Nan@@@Z 1003d9d8 f   njsOracle.obj
 0001:0003c9d8       __ehhandler$?GetPoolMax@Pool@@CAXV?$Local@VString@v8@@@v8@@ABV?$PropertyCallbackInfo@VValue@v8@@@Nan@@@Z 1003d9d8 f   njsPool.obj
 0001:0003c9d8       __ehhandler$?GetOutFormat@Oracledb@@CAXV?$Local@VString@v8@@@v8@@ABV?$PropertyCallbackInfo@VValue@v8@@@Nan@@@Z 1003d9d8 f   njsOracle.obj
 0001:0003c9d8       __ehhandler$?GetPoolIncrement@Pool@@CAXV?$Local@VString@v8@@@v8@@ABV?$PropertyCallbackInfo@VValue@v8@@@Nan@@@Z 1003d9d8 f   njsPool.obj
 0001:0003c9d8       __ehhandler$?GetExternalAuth@Oracledb@@CAXV?$Local@VString@v8@@@v8@@ABV?$PropertyCallbackInfo@VValue@v8@@@Nan@@@Z 1003d9d8 f   njsOracle.obj
 0001:0003c9d8       __ehhandler$?GetPoolTimeout@Pool@@CAXV?$Local@VString@v8@@@v8@@ABV?$PropertyCallbackInfo@VValue@v8@@@Nan@@@Z 1003d9d8 f   njsPool.obj
 0001:0003c9d8       __ehhandler$?GetPoolMax@Oracledb@@CAXV?$Local@VString@v8@@@v8@@ABV?$PropertyCallbackInfo@VValue@v8@@@Nan@@@Z 1003d9d8 f   njsOracle.obj
 0001:0003c9d8       __ehhandler$?GetPoolMin@Oracledb@@CAXV?$Local@VString@v8@@@v8@@ABV?$PropertyCallbackInfo@VValue@v8@@@Nan@@@Z 1003d9d8 f   njsOracle.obj
 0001:0003c9d8       __ehhandler$?GetPoolPingInterval@Pool@@CAXV?$Local@VString@v8@@@v8@@ABV?$PropertyCallbackInfo@VValue@v8@@@Nan@@@Z 1003d9d8 f   njsPool.obj
 0001:0003ca00       __unwindfunclet$?SetPoolMax@Oracledb@@CAXV?$Local@VString@v8@@@v8@@V?$Local@VValue@v8@@@3@ABV?$PropertyCallbackInfo@X@Nan@@@Z$0 1003da00 f   njsOracle.obj
 0001:0003ca00       __unwindfunclet$?SetPoolMin@Oracledb@@CAXV?$Local@VString@v8@@@v8@@V?$Local@VValue@v8@@@3@ABV?$PropertyCallbackInfo@X@Nan@@@Z$0 1003da00 f   njsOracle.obj
 0001:0003ca00       __unwindfunclet$?SetPoolIncrement@Oracledb@@CAXV?$Local@VString@v8@@@v8@@V?$Local@VValue@v8@@@3@ABV?$PropertyCallbackInfo@X@Nan@@@Z$0 1003da00 f   njsOracle.obj
 0001:0003ca00       __unwindfunclet$?SetStmtCacheSize@Oracledb@@CAXV?$Local@VString@v8@@@v8@@V?$Local@VValue@v8@@@3@ABV?$PropertyCallbackInfo@X@Nan@@@Z$0 1003da00 f   njsOracle.obj
 0001:0003ca00       __unwindfunclet$?SetLobPrefetchSize@Oracledb@@CAXV?$Local@VString@v8@@@v8@@V?$Local@VValue@v8@@@3@ABV?$PropertyCallbackInfo@X@Nan@@@Z$0 1003da00 f   njsOracle.obj
 0001:0003ca00       __unwindfunclet$?SetOutFormat@Oracledb@@CAXV?$Local@VString@v8@@@v8@@V?$Local@VValue@v8@@@3@ABV?$PropertyCallbackInfo@X@Nan@@@Z$0 1003da00 f   njsOracle.obj
 0001:0003ca00       __unwindfunclet$?SetPrefetchRows@Oracledb@@CAXV?$Local@VString@v8@@@v8@@V?$Local@VValue@v8@@@3@ABV?$PropertyCallbackInfo@X@Nan@@@Z$0 1003da00 f   njsOracle.obj
 0001:0003ca00       __unwindfunclet$?SetPoolTimeout@Oracledb@@CAXV?$Local@VString@v8@@@v8@@V?$Local@VValue@v8@@@3@ABV?$PropertyCallbackInfo@X@Nan@@@Z$0 1003da00 f   njsOracle.obj
 0001:0003ca08       __unwindfunclet$?SetPoolIncrement@Oracledb@@CAXV?$Local@VString@v8@@@v8@@V?$Local@VValue@v8@@@3@ABV?$PropertyCallbackInfo@X@Nan@@@Z$1 1003da08 f   njsOracle.obj
 0001:0003ca08       __unwindfunclet$?SetStmtCacheSize@Oracledb@@CAXV?$Local@VString@v8@@@v8@@V?$Local@VValue@v8@@@3@ABV?$PropertyCallbackInfo@X@Nan@@@Z$1 1003da08 f   njsOracle.obj
 0001:0003ca08       __unwindfunclet$?SetPoolMin@Oracledb@@CAXV?$Local@VString@v8@@@v8@@V?$Local@VValue@v8@@@3@ABV?$PropertyCallbackInfo@X@Nan@@@Z$1 1003da08 f   njsOracle.obj
 0001:0003ca08       __unwindfunclet$?SetPoolTimeout@Oracledb@@CAXV?$Local@VString@v8@@@v8@@V?$Local@VValue@v8@@@3@ABV?$PropertyCallbackInfo@X@Nan@@@Z$1 1003da08 f   njsOracle.obj
 0001:0003ca08       __unwindfunclet$?SetPoolMax@Oracledb@@CAXV?$Local@VString@v8@@@v8@@V?$Local@VValue@v8@@@3@ABV?$PropertyCallbackInfo@X@Nan@@@Z$1 1003da08 f   njsOracle.obj
 0001:0003ca08       __unwindfunclet$?SetOutFormat@Oracledb@@CAXV?$Local@VString@v8@@@v8@@V?$Local@VValue@v8@@@3@ABV?$PropertyCallbackInfo@X@Nan@@@Z$1 1003da08 f   njsOracle.obj
 0001:0003ca08       __unwindfunclet$?SetLobPrefetchSize@Oracledb@@CAXV?$Local@VString@v8@@@v8@@V?$Local@VValue@v8@@@3@ABV?$PropertyCallbackInfo@X@Nan@@@Z$1 1003da08 f   njsOracle.obj
 0001:0003ca08       __unwindfunclet$?SetPrefetchRows@Oracledb@@CAXV?$Local@VString@v8@@@v8@@V?$Local@VValue@v8@@@3@ABV?$PropertyCallbackInfo@X@Nan@@@Z$1 1003da08 f   njsOracle.obj
 0001:0003ca10       __ehhandler$?SetStmtCacheSize@Oracledb@@CAXV?$Local@VString@v8@@@v8@@V?$Local@VValue@v8@@@3@ABV?$PropertyCallbackInfo@X@Nan@@@Z 1003da10 f   njsOracle.obj
 0001:0003ca10       __ehhandler$?SetPrefetchRows@Oracledb@@CAXV?$Local@VString@v8@@@v8@@V?$Local@VValue@v8@@@3@ABV?$PropertyCallbackInfo@X@Nan@@@Z 1003da10 f   njsOracle.obj
 0001:0003ca10       __ehhandler$?SetPoolMax@Oracledb@@CAXV?$Local@VString@v8@@@v8@@V?$Local@VValue@v8@@@3@ABV?$PropertyCallbackInfo@X@Nan@@@Z 1003da10 f   njsOracle.obj
 0001:0003ca10       __ehhandler$?SetOutFormat@Oracledb@@CAXV?$Local@VString@v8@@@v8@@V?$Local@VValue@v8@@@3@ABV?$PropertyCallbackInfo@X@Nan@@@Z 1003da10 f   njsOracle.obj
 0001:0003ca10       __ehhandler$?SetPoolIncrement@Oracledb@@CAXV?$Local@VString@v8@@@v8@@V?$Local@VValue@v8@@@3@ABV?$PropertyCallbackInfo@X@Nan@@@Z 1003da10 f   njsOracle.obj
 0001:0003ca10       __ehhandler$?SetPoolMin@Oracledb@@CAXV?$Local@VString@v8@@@v8@@V?$Local@VValue@v8@@@3@ABV?$PropertyCallbackInfo@X@Nan@@@Z 1003da10 f   njsOracle.obj
 0001:0003ca10       __ehhandler$?SetLobPrefetchSize@Oracledb@@CAXV?$Local@VString@v8@@@v8@@V?$Local@VValue@v8@@@3@ABV?$PropertyCallbackInfo@X@Nan@@@Z 1003da10 f   njsOracle.obj
 0001:0003ca10       __ehhandler$?SetPoolTimeout@Oracledb@@CAXV?$Local@VString@v8@@@v8@@V?$Local@VValue@v8@@@3@ABV?$PropertyCallbackInfo@X@Nan@@@Z 1003da10 f   njsOracle.obj
 0001:0003ca40       __unwindfunclet$?GetStmtCacheSize@Oracledb@@CAXV?$Local@VString@v8@@@v8@@ABV?$PropertyCallbackInfo@VValue@v8@@@Nan@@@Z$0 1003da40 f   njsOracle.obj
 0001:0003ca40       __unwindfunclet$?GetPoolPingInterval@Oracledb@@CAXV?$Local@VString@v8@@@v8@@ABV?$PropertyCallbackInfo@VValue@v8@@@Nan@@@Z$0 1003da40 f   njsOracle.obj
 0001:0003ca40       __unwindfunclet$?GetMaxRows@Oracledb@@CAXV?$Local@VString@v8@@@v8@@ABV?$PropertyCallbackInfo@VValue@v8@@@Nan@@@Z$0 1003da40 f   njsOracle.obj
 0001:0003ca40       __unwindfunclet$?GetOracleClientVersion@Oracledb@@CAXV?$Local@VString@v8@@@v8@@ABV?$PropertyCallbackInfo@VValue@v8@@@Nan@@@Z$0 1003da40 f   njsOracle.obj
 0001:0003ca40       __unwindfunclet$?GetPoolIncrement@Oracledb@@CAXV?$Local@VString@v8@@@v8@@ABV?$PropertyCallbackInfo@VValue@v8@@@Nan@@@Z$0 1003da40 f   njsOracle.obj
 0001:0003ca40       __unwindfunclet$?GetLobPrefetchSize@Oracledb@@CAXV?$Local@VString@v8@@@v8@@ABV?$PropertyCallbackInfo@VValue@v8@@@Nan@@@Z$0 1003da40 f   njsOracle.obj
 0001:0003ca48       __ehhandler$?GetMaxRows@Oracledb@@CAXV?$Local@VString@v8@@@v8@@ABV?$PropertyCallbackInfo@VValue@v8@@@Nan@@@Z 1003da48 f   njsOracle.obj
 0001:0003ca48       __ehhandler$?GetPoolPingInterval@Oracledb@@CAXV?$Local@VString@v8@@@v8@@ABV?$PropertyCallbackInfo@VValue@v8@@@Nan@@@Z 1003da48 f   njsOracle.obj
 0001:0003ca48       __ehhandler$?GetLobPrefetchSize@Oracledb@@CAXV?$Local@VString@v8@@@v8@@ABV?$PropertyCallbackInfo@VValue@v8@@@Nan@@@Z 1003da48 f   njsOracle.obj
 0001:0003ca48       __ehhandler$?GetStmtCacheSize@Oracledb@@CAXV?$Local@VString@v8@@@v8@@ABV?$PropertyCallbackInfo@VValue@v8@@@Nan@@@Z 1003da48 f   njsOracle.obj
 0001:0003ca48       __ehhandler$?GetOracleClientVersion@Oracledb@@CAXV?$Local@VString@v8@@@v8@@ABV?$PropertyCallbackInfo@VValue@v8@@@Nan@@@Z 1003da48 f   njsOracle.obj
 0001:0003ca48       __ehhandler$?GetPoolIncrement@Oracledb@@CAXV?$Local@VString@v8@@@v8@@ABV?$PropertyCallbackInfo@VValue@v8@@@Nan@@@Z 1003da48 f   njsOracle.obj
 0001:0003ca70       __unwindfunclet$?SetMaxRows@Oracledb@@CAXV?$Local@VString@v8@@@v8@@V?$Local@VValue@v8@@@3@ABV?$PropertyCallbackInfo@X@Nan@@@Z$0 1003da70 f   njsOracle.obj
 0001:0003ca78       __unwindfunclet$?SetMaxRows@Oracledb@@CAXV?$Local@VString@v8@@@v8@@V?$Local@VValue@v8@@@3@ABV?$PropertyCallbackInfo@X@Nan@@@Z$1 1003da78 f   njsOracle.obj
 0001:0003ca80       __unwindfunclet$?SetMaxRows@Oracledb@@CAXV?$Local@VString@v8@@@v8@@V?$Local@VValue@v8@@@3@ABV?$PropertyCallbackInfo@X@Nan@@@Z$3 1003da80 f   njsOracle.obj
 0001:0003ca88       __ehhandler$?SetMaxRows@Oracledb@@CAXV?$Local@VString@v8@@@v8@@V?$Local@VValue@v8@@@3@ABV?$PropertyCallbackInfo@X@Nan@@@Z 1003da88 f   njsOracle.obj
 0001:0003cab0       __unwindfunclet$?GetIsAutoCloseLob@ILob@@CAXV?$Local@VString@v8@@@v8@@ABV?$PropertyCallbackInfo@VValue@v8@@@Nan@@@Z$0 1003dab0 f   njsIntLob.obj
 0001:0003cab0       __unwindfunclet$?GetAutoCommit@Oracledb@@CAXV?$Local@VString@v8@@@v8@@ABV?$PropertyCallbackInfo@VValue@v8@@@Nan@@@Z$0 1003dab0 f   njsOracle.obj
 0001:0003cab0       __unwindfunclet$?GetExtendedMetaData@Oracledb@@CAXV?$Local@VString@v8@@@v8@@ABV?$PropertyCallbackInfo@VValue@v8@@@Nan@@@Z$0 1003dab0 f   njsOracle.obj
 0001:0003cab0       __unwindfunclet$?GetIsValid@ILob@@CAXV?$Local@VString@v8@@@v8@@ABV?$PropertyCallbackInfo@VValue@v8@@@Nan@@@Z$0 1003dab0 f   njsIntLob.obj
 0001:0003cab8       __ehhandler$?GetAutoCommit@Oracledb@@CAXV?$Local@VString@v8@@@v8@@ABV?$PropertyCallbackInfo@VValue@v8@@@Nan@@@Z 1003dab8 f   njsOracle.obj
 0001:0003cab8       __ehhandler$?GetExtendedMetaData@Oracledb@@CAXV?$Local@VString@v8@@@v8@@ABV?$PropertyCallbackInfo@VValue@v8@@@Nan@@@Z 1003dab8 f   njsOracle.obj
 0001:0003cab8       __ehhandler$?GetIsValid@ILob@@CAXV?$Local@VString@v8@@@v8@@ABV?$PropertyCallbackInfo@VValue@v8@@@Nan@@@Z 1003dab8 f   njsIntLob.obj
 0001:0003cab8       __ehhandler$?GetIsAutoCloseLob@ILob@@CAXV?$Local@VString@v8@@@v8@@ABV?$PropertyCallbackInfo@VValue@v8@@@Nan@@@Z 1003dab8 f   njsIntLob.obj
 0001:0003cae0       __unwindfunclet$?SetStmtCacheSize@Connection@@CAXV?$Local@VString@v8@@@v8@@V?$Local@VValue@v8@@@3@ABV?$PropertyCallbackInfo@X@Nan@@@Z$0 1003dae0 f   njsConnection.obj
 0001:0003cae0       __unwindfunclet$?SetIsAutoCloseLob@ILob@@CAXV?$Local@VString@v8@@@v8@@V?$Local@VValue@v8@@@3@ABV?$PropertyCallbackInfo@X@Nan@@@Z$0 1003dae0 f   njsIntLob.obj
 0001:0003cae0       __unwindfunclet$?SetIsValid@ILob@@CAXV?$Local@VString@v8@@@v8@@V?$Local@VValue@v8@@@3@ABV?$PropertyCallbackInfo@X@Nan@@@Z$0 1003dae0 f   njsIntLob.obj
 0001:0003cae0       __unwindfunclet$?SetAutoCommit@Oracledb@@CAXV?$Local@VString@v8@@@v8@@V?$Local@VValue@v8@@@3@ABV?$PropertyCallbackInfo@X@Nan@@@Z$0 1003dae0 f   njsOracle.obj
 0001:0003cae0       __unwindfunclet$?SetOracleServerVersion@Connection@@CAXV?$Local@VString@v8@@@v8@@V?$Local@VValue@v8@@@3@ABV?$PropertyCallbackInfo@X@Nan@@@Z$0 1003dae0 f   njsConnection.obj
 0001:0003cae0       __unwindfunclet$?SetLength@ILob@@CAXV?$Local@VString@v8@@@v8@@V?$Local@VValue@v8@@@3@ABV?$PropertyCallbackInfo@X@Nan@@@Z$0 1003dae0 f   njsIntLob.obj
 0001:0003cae0       __unwindfunclet$?SetExternalAuth@Oracledb@@CAXV?$Local@VString@v8@@@v8@@V?$Local@VValue@v8@@@3@ABV?$PropertyCallbackInfo@X@Nan@@@Z$0 1003dae0 f   njsOracle.obj
 0001:0003cae0       __unwindfunclet$?SetChunkSize@ILob@@CAXV?$Local@VString@v8@@@v8@@V?$Local@VValue@v8@@@3@ABV?$PropertyCallbackInfo@X@Nan@@@Z$0 1003dae0 f   njsIntLob.obj
 0001:0003cae0       __unwindfunclet$?SetExtendedMetaData@Oracledb@@CAXV?$Local@VString@v8@@@v8@@V?$Local@VValue@v8@@@3@ABV?$PropertyCallbackInfo@X@Nan@@@Z$0 1003dae0 f   njsOracle.obj
 0001:0003cae0       __unwindfunclet$?SetType@ILob@@CAXV?$Local@VString@v8@@@v8@@V?$Local@VValue@v8@@@3@ABV?$PropertyCallbackInfo@X@Nan@@@Z$0 1003dae0 f   njsIntLob.obj
 0001:0003cae8       __ehhandler$?SetType@ILob@@CAXV?$Local@VString@v8@@@v8@@V?$Local@VValue@v8@@@3@ABV?$PropertyCallbackInfo@X@Nan@@@Z 1003dae8 f   njsIntLob.obj
 0001:0003cae8       __ehhandler$?SetIsAutoCloseLob@ILob@@CAXV?$Local@VString@v8@@@v8@@V?$Local@VValue@v8@@@3@ABV?$PropertyCallbackInfo@X@Nan@@@Z 1003dae8 f   njsIntLob.obj
 0001:0003cae8       __ehhandler$?SetAutoCommit@Oracledb@@CAXV?$Local@VString@v8@@@v8@@V?$Local@VValue@v8@@@3@ABV?$PropertyCallbackInfo@X@Nan@@@Z 1003dae8 f   njsOracle.obj
 0001:0003cae8       __ehhandler$?SetExtendedMetaData@Oracledb@@CAXV?$Local@VString@v8@@@v8@@V?$Local@VValue@v8@@@3@ABV?$PropertyCallbackInfo@X@Nan@@@Z 1003dae8 f   njsOracle.obj
 0001:0003cae8       __ehhandler$?SetStmtCacheSize@Connection@@CAXV?$Local@VString@v8@@@v8@@V?$Local@VValue@v8@@@3@ABV?$PropertyCallbackInfo@X@Nan@@@Z 1003dae8 f   njsConnection.obj
 0001:0003cae8       __ehhandler$?SetOracleServerVersion@Connection@@CAXV?$Local@VString@v8@@@v8@@V?$Local@VValue@v8@@@3@ABV?$PropertyCallbackInfo@X@Nan@@@Z 1003dae8 f   njsConnection.obj
 0001:0003cae8       __ehhandler$?SetExternalAuth@Oracledb@@CAXV?$Local@VString@v8@@@v8@@V?$Local@VValue@v8@@@3@ABV?$PropertyCallbackInfo@X@Nan@@@Z 1003dae8 f   njsOracle.obj
 0001:0003cae8       __ehhandler$?SetChunkSize@ILob@@CAXV?$Local@VString@v8@@@v8@@V?$Local@VValue@v8@@@3@ABV?$PropertyCallbackInfo@X@Nan@@@Z 1003dae8 f   njsIntLob.obj
 0001:0003cae8       __ehhandler$?SetLength@ILob@@CAXV?$Local@VString@v8@@@v8@@V?$Local@VValue@v8@@@3@ABV?$PropertyCallbackInfo@X@Nan@@@Z 1003dae8 f   njsIntLob.obj
 0001:0003cae8       __ehhandler$?SetIsValid@ILob@@CAXV?$Local@VString@v8@@@v8@@V?$Local@VValue@v8@@@3@ABV?$PropertyCallbackInfo@X@Nan@@@Z 1003dae8 f   njsIntLob.obj
 0001:0003cb10       __unwindfunclet$?SetVersion@Oracledb@@CAXV?$Local@VString@v8@@@v8@@V?$Local@VValue@v8@@@3@ABV?$PropertyCallbackInfo@X@Nan@@@Z$0 1003db10 f   njsOracle.obj
 0001:0003cb10       __unwindfunclet$?SetOracleClientVersion@Oracledb@@CAXV?$Local@VString@v8@@@v8@@V?$Local@VValue@v8@@@3@ABV?$PropertyCallbackInfo@X@Nan@@@Z$0 1003db10 f   njsOracle.obj
 0001:0003cb18       __ehhandler$?SetOracleClientVersion@Oracledb@@CAXV?$Local@VString@v8@@@v8@@V?$Local@VValue@v8@@@3@ABV?$PropertyCallbackInfo@X@Nan@@@Z 1003db18 f   njsOracle.obj
 0001:0003cb18       __ehhandler$?SetVersion@Oracledb@@CAXV?$Local@VString@v8@@@v8@@V?$Local@VValue@v8@@@3@ABV?$PropertyCallbackInfo@X@Nan@@@Z 1003db18 f   njsOracle.obj
 0001:0003cb40       __unwindfunclet$?SetConnectionClass@Oracledb@@CAXV?$Local@VString@v8@@@v8@@V?$Local@VValue@v8@@@3@ABV?$PropertyCallbackInfo@X@Nan@@@Z$0 1003db40 f   njsOracle.obj
 0001:0003cb48       __unwindfunclet$?SetConnectionClass@Oracledb@@CAXV?$Local@VString@v8@@@v8@@V?$Local@VValue@v8@@@3@ABV?$PropertyCallbackInfo@X@Nan@@@Z$1 1003db48 f   njsOracle.obj
 0001:0003cb51       __ehhandler$?SetConnectionClass@Oracledb@@CAXV?$Local@VString@v8@@@v8@@V?$Local@VValue@v8@@@3@ABV?$PropertyCallbackInfo@X@Nan@@@Z 1003db51 f   njsOracle.obj
 0001:0003cb80       __unwindfunclet$?GetFetchAsString@Oracledb@@CAXV?$Local@VString@v8@@@v8@@ABV?$PropertyCallbackInfo@VValue@v8@@@Nan@@@Z$0 1003db80 f   njsOracle.obj
 0001:0003cb80       __unwindfunclet$?GetFetchAsBuffer@Oracledb@@CAXV?$Local@VString@v8@@@v8@@ABV?$PropertyCallbackInfo@VValue@v8@@@Nan@@@Z$0 1003db80 f   njsOracle.obj
 0001:0003cb88       __ehhandler$?GetFetchAsString@Oracledb@@CAXV?$Local@VString@v8@@@v8@@ABV?$PropertyCallbackInfo@VValue@v8@@@Nan@@@Z 1003db88 f   njsOracle.obj
 0001:0003cb88       __ehhandler$?GetFetchAsBuffer@Oracledb@@CAXV?$Local@VString@v8@@@v8@@ABV?$PropertyCallbackInfo@VValue@v8@@@Nan@@@Z 1003db88 f   njsOracle.obj
 0001:0003cbb0       __unwindfunclet$?SetFetchAsBuffer@Oracledb@@CAXV?$Local@VString@v8@@@v8@@V?$Local@VValue@v8@@@3@ABV?$PropertyCallbackInfo@X@Nan@@@Z$0 1003dbb0 f   njsOracle.obj
 0001:0003cbb0       __unwindfunclet$?SetFetchAsString@Oracledb@@CAXV?$Local@VString@v8@@@v8@@V?$Local@VValue@v8@@@3@ABV?$PropertyCallbackInfo@X@Nan@@@Z$0 1003dbb0 f   njsOracle.obj
 0001:0003cbb8       __unwindfunclet$?SetFetchAsBuffer@Oracledb@@CAXV?$Local@VString@v8@@@v8@@V?$Local@VValue@v8@@@3@ABV?$PropertyCallbackInfo@X@Nan@@@Z$1 1003dbb8 f   njsOracle.obj
 0001:0003cbb8       __unwindfunclet$?SetFetchAsString@Oracledb@@CAXV?$Local@VString@v8@@@v8@@V?$Local@VValue@v8@@@3@ABV?$PropertyCallbackInfo@X@Nan@@@Z$1 1003dbb8 f   njsOracle.obj
 0001:0003cbc0       __ehhandler$?SetFetchAsString@Oracledb@@CAXV?$Local@VString@v8@@@v8@@V?$Local@VValue@v8@@@3@ABV?$PropertyCallbackInfo@X@Nan@@@Z 1003dbc0 f   njsOracle.obj
 0001:0003cbc0       __ehhandler$?SetFetchAsBuffer@Oracledb@@CAXV?$Local@VString@v8@@@v8@@V?$Local@VValue@v8@@@3@ABV?$PropertyCallbackInfo@X@Nan@@@Z 1003dbc0 f   njsOracle.obj
 0001:0003cbf0       __unwindfunclet$?SetPoolPingInterval@Oracledb@@CAXV?$Local@VString@v8@@@v8@@V?$Local@VValue@v8@@@3@ABV?$PropertyCallbackInfo@X@Nan@@@Z$0 1003dbf0 f   njsOracle.obj
 0001:0003cbf8       __unwindfunclet$?SetPoolPingInterval@Oracledb@@CAXV?$Local@VString@v8@@@v8@@V?$Local@VValue@v8@@@3@ABV?$PropertyCallbackInfo@X@Nan@@@Z$1 1003dbf8 f   njsOracle.obj
 0001:0003cc00       __ehhandler$?SetPoolPingInterval@Oracledb@@CAXV?$Local@VString@v8@@@v8@@V?$Local@VValue@v8@@@3@ABV?$PropertyCallbackInfo@X@Nan@@@Z 1003dc00 f   njsOracle.obj
 0001:0003cc30       __unwindfunclet$?GetConnection@Oracledb@@CAXABV?$FunctionCallbackInfo@VValue@v8@@@Nan@@@Z$8 1003dc30 f   njsOracle.obj
 0001:0003cc38       __unwindfunclet$?GetConnection@Oracledb@@CAXABV?$FunctionCallbackInfo@VValue@v8@@@Nan@@@Z$10 1003dc38 f   njsOracle.obj
 0001:0003cc43       __unwindfunclet$?GetConnection@Oracledb@@CAXABV?$FunctionCallbackInfo@VValue@v8@@@Nan@@@Z$14 1003dc43 f   njsOracle.obj
 0001:0003cc4c       __unwindfunclet$?GetConnection@Oracledb@@CAXABV?$FunctionCallbackInfo@VValue@v8@@@Nan@@@Z$17 1003dc4c f   njsOracle.obj
 0001:0003cc55       __unwindfunclet$?GetConnection@Oracledb@@CAXABV?$FunctionCallbackInfo@VValue@v8@@@Nan@@@Z$20 1003dc55 f   njsOracle.obj
 0001:0003cc5e       __unwindfunclet$?GetConnection@Oracledb@@CAXABV?$FunctionCallbackInfo@VValue@v8@@@Nan@@@Z$25 1003dc5e f   njsOracle.obj
 0001:0003cc66       __ehhandler$?GetConnection@Oracledb@@CAXABV?$FunctionCallbackInfo@VValue@v8@@@Nan@@@Z 1003dc66 f   njsOracle.obj
 0001:0003cc90       __ehhandler$?Async_GetConnection@Oracledb@@CAXPAUuv_work_s@@@Z 1003dc90 f   njsOracle.obj
 0001:0003ccc0       __unwindfunclet$?Async_AfterGetConnection@Pool@@CAXPAUuv_work_s@@@Z$0 1003dcc0 f   njsPool.obj
 0001:0003ccc0       __unwindfunclet$?Async_AfterGetRows@ResultSet@@CAXPAUuv_work_s@@@Z$1 1003dcc0 f   njsResultSet.obj
 0001:0003ccc0       __unwindfunclet$?Async_AfterGetConnection@Oracledb@@CAXPAUuv_work_s@@@Z$0 1003dcc0 f   njsOracle.obj
 0001:0003ccc0       __unwindfunclet$?Async_AfterCreatePool@Oracledb@@CAXPAUuv_work_s@@@Z$0 1003dcc0 f   njsOracle.obj
 0001:0003ccc0       __unwindfunclet$?Async_AfterRead@ILob@@CAXPAUuv_work_s@@@Z$0 1003dcc0 f   njsIntLob.obj
 0001:0003ccc8       __unwindfunclet$?Async_AfterGetConnection@Pool@@CAXPAUuv_work_s@@@Z$1 1003dcc8 f   njsPool.obj
 0001:0003ccc8       __unwindfunclet$?Async_AfterGetConnection@Oracledb@@CAXPAUuv_work_s@@@Z$1 1003dcc8 f   njsOracle.obj
 0001:0003ccc8       __unwindfunclet$?Async_AfterRead@ILob@@CAXPAUuv_work_s@@@Z$1 1003dcc8 f   njsIntLob.obj
 0001:0003ccc8       __unwindfunclet$?Async_AfterCreatePool@Oracledb@@CAXPAUuv_work_s@@@Z$1 1003dcc8 f   njsOracle.obj
 0001:0003ccc8       __unwindfunclet$?Async_AfterGetRows@ResultSet@@CAXPAUuv_work_s@@@Z$2 1003dcc8 f   njsResultSet.obj
 0001:0003ccd0       __ehhandler$?Async_AfterCreatePool@Oracledb@@CAXPAUuv_work_s@@@Z 1003dcd0 f   njsOracle.obj
 0001:0003ccd0       __ehhandler$?Async_AfterGetConnection@Pool@@CAXPAUuv_work_s@@@Z 1003dcd0 f   njsPool.obj
 0001:0003ccd0       __ehhandler$?Async_AfterGetRows@ResultSet@@CAXPAUuv_work_s@@@Z 1003dcd0 f   njsResultSet.obj
 0001:0003ccd0       __ehhandler$?Async_AfterRead@ILob@@CAXPAUuv_work_s@@@Z 1003dcd0 f   njsIntLob.obj
 0001:0003ccd0       __ehhandler$?Async_AfterGetConnection@Oracledb@@CAXPAUuv_work_s@@@Z 1003dcd0 f   njsOracle.obj
 0001:0003ccf0       __unwindfunclet$?CreatePool@Oracledb@@CAXABV?$FunctionCallbackInfo@VValue@v8@@@Nan@@@Z$18 1003dcf0 f   njsOracle.obj
 0001:0003ccf8       __unwindfunclet$?CreatePool@Oracledb@@CAXABV?$FunctionCallbackInfo@VValue@v8@@@Nan@@@Z$19 1003dcf8 f   njsOracle.obj
 0001:0003cd00       __unwindfunclet$?CreatePool@Oracledb@@CAXABV?$FunctionCallbackInfo@VValue@v8@@@Nan@@@Z$21 1003dd00 f   njsOracle.obj
 0001:0003cd0b       __unwindfunclet$?CreatePool@Oracledb@@CAXABV?$FunctionCallbackInfo@VValue@v8@@@Nan@@@Z$25 1003dd0b f   njsOracle.obj
 0001:0003cd14       __unwindfunclet$?CreatePool@Oracledb@@CAXABV?$FunctionCallbackInfo@VValue@v8@@@Nan@@@Z$28 1003dd14 f   njsOracle.obj
 0001:0003cd1d       __unwindfunclet$?CreatePool@Oracledb@@CAXABV?$FunctionCallbackInfo@VValue@v8@@@Nan@@@Z$31 1003dd1d f   njsOracle.obj
 0001:0003cd26       __unwindfunclet$?CreatePool@Oracledb@@CAXABV?$FunctionCallbackInfo@VValue@v8@@@Nan@@@Z$46 1003dd26 f   njsOracle.obj
 0001:0003cd2e       __ehhandler$?CreatePool@Oracledb@@CAXABV?$FunctionCallbackInfo@VValue@v8@@@Nan@@@Z 1003dd2e f   njsOracle.obj
 0001:0003cd60       __ehhandler$?Async_CreatePool@Oracledb@@CAXPAUuv_work_s@@@Z 1003dd60 f   njsOracle.obj
 0001:0003cd90       __unwindfunclet$??6?$basic_ostream@DU?$char_traits@D@std@@@std@@QAEAAV01@H@Z$2 1003dd90 f   njsOracle.obj
 0001:0003cd98       __unwindfunclet$??6?$basic_ostream@DU?$char_traits@D@std@@@std@@QAEAAV01@H@Z$0 1003dd98 f   njsOracle.obj
 0001:0003cda0       __unwindfunclet$??6?$basic_ostream@DU?$char_traits@D@std@@@std@@QAEAAV01@H@Z$1 1003dda0 f   njsOracle.obj
 0001:0003cda8       __ehhandler$??6?$basic_ostream@DU?$char_traits@D@std@@@std@@QAEAAV01@H@Z 1003dda8 f   njsOracle.obj
 0001:0003cdd0       __unwindfunclet$??0?$basic_stringstream@DU?$char_traits@D@std@@V?$allocator@D@2@@std@@QAE@H@Z$0 1003ddd0 f   njsOracle.obj
 0001:0003cdec       __unwindfunclet$??0?$basic_stringstream@DU?$char_traits@D@std@@V?$allocator@D@2@@std@@QAE@H@Z$1 1003ddec f   njsOracle.obj
 0001:0003cdf7       __unwindfunclet$??0?$basic_stringstream@DU?$char_traits@D@std@@V?$allocator@D@2@@std@@QAE@H@Z$3 1003ddf7 f   njsOracle.obj
 0001:0003cdff       __ehhandler$??0?$basic_stringstream@DU?$char_traits@D@std@@V?$allocator@D@2@@std@@QAE@H@Z 1003ddff f   njsOracle.obj
 0001:0003ce20       __unwindfunclet$?init@?$basic_ios@DU?$char_traits@D@std@@@std@@IAEXPAV?$basic_streambuf@DU?$char_traits@D@std@@@2@_N@Z$0 1003de20 f   njsOracle.obj
 0001:0003ce28       __ehhandler$?init@?$basic_ios@DU?$char_traits@D@std@@@std@@IAEXPAV?$basic_streambuf@DU?$char_traits@D@std@@@2@_N@Z 1003de28 f   njsOracle.obj
 0001:0003ce50       __unwindfunclet$??0?$basic_iostream@DU?$char_traits@D@std@@@std@@QAE@PAV?$basic_streambuf@DU?$char_traits@D@std@@@1@@Z$1 1003de50 f   njsOracle.obj
 0001:0003ce5b       __ehhandler$??0?$basic_iostream@DU?$char_traits@D@std@@@std@@QAE@PAV?$basic_streambuf@DU?$char_traits@D@std@@@1@@Z 1003de5b f   njsOracle.obj
 0001:0003ce80       __unwindfunclet$??0sentry@?$basic_ostream@DU?$char_traits@D@std@@@std@@QAE@AAV12@@Z$0 1003de80 f   njsOracle.obj
 0001:0003ce88       __ehhandler$??0sentry@?$basic_ostream@DU?$char_traits@D@std@@@std@@QAE@AAV12@@Z 1003de88 f   njsOracle.obj
 0001:0003ceb0       __unwindfunclet$?do_put@?$num_put@DV?$ostreambuf_iterator@DU?$char_traits@D@std@@@std@@@std@@MBE?AV?$ostreambuf_iterator@DU?$char_traits@D@std@@@2@V32@AAVios_base@2@D_N@Z$0 1003deb0 f   njsOracle.obj
 0001:0003ceb8       __unwindfunclet$?do_put@?$num_put@DV?$ostreambuf_iterator@DU?$char_traits@D@std@@@std@@@std@@MBE?AV?$ostreambuf_iterator@DU?$char_traits@D@std@@@2@V32@AAVios_base@2@D_N@Z$1 1003deb8 f   njsOracle.obj
 0001:0003cec0       __ehhandler$?do_put@?$num_put@DV?$ostreambuf_iterator@DU?$char_traits@D@std@@@std@@@std@@MBE?AV?$ostreambuf_iterator@DU?$char_traits@D@std@@@2@V32@AAVios_base@2@D_N@Z 1003dec0 f   njsOracle.obj
 0001:0003cef0       __unwindfunclet$?flush@?$basic_ostream@DU?$char_traits@D@std@@@std@@QAEAAV12@XZ$0 1003def0 f   njsOracle.obj
 0001:0003cef8       __ehhandler$?flush@?$basic_ostream@DU?$char_traits@D@std@@@std@@QAEAAV12@XZ 1003def8 f   njsOracle.obj
 0001:0003cf20       __unwindfunclet$?_Fput@?$num_put@DV?$ostreambuf_iterator@DU?$char_traits@D@std@@@std@@@std@@ABA?AV?$ostreambuf_iterator@DU?$char_traits@D@std@@@2@V32@AAVios_base@2@DPBDIIII@Z$0 1003df20 f   njsOracle.obj
 0001:0003cf28       __unwindfunclet$?_Fput@?$num_put@DV?$ostreambuf_iterator@DU?$char_traits@D@std@@@std@@@std@@ABA?AV?$ostreambuf_iterator@DU?$char_traits@D@std@@@2@V32@AAVios_base@2@DPBDIIII@Z$1 1003df28 f   njsOracle.obj
 0001:0003cf30       __unwindfunclet$?_Fput@?$num_put@DV?$ostreambuf_iterator@DU?$char_traits@D@std@@@std@@@std@@ABA?AV?$ostreambuf_iterator@DU?$char_traits@D@std@@@2@V32@AAVios_base@2@DPBDIIII@Z$2 1003df30 f   njsOracle.obj
 0001:0003cf38       __unwindfunclet$?_Fput@?$num_put@DV?$ostreambuf_iterator@DU?$char_traits@D@std@@@std@@@std@@ABA?AV?$ostreambuf_iterator@DU?$char_traits@D@std@@@2@V32@AAVios_base@2@DPBDIIII@Z$3 1003df38 f   njsOracle.obj
 0001:0003cf40       __ehhandler$?_Fput@?$num_put@DV?$ostreambuf_iterator@DU?$char_traits@D@std@@@std@@@std@@ABA?AV?$ostreambuf_iterator@DU?$char_traits@D@std@@@2@V32@AAVios_base@2@DPBDIIII@Z 1003df40 f   njsOracle.obj
 0001:0003cf70       __unwindfunclet$?_Iput@?$num_put@DV?$ostreambuf_iterator@DU?$char_traits@D@std@@@std@@@std@@ABA?AV?$ostreambuf_iterator@DU?$char_traits@D@std@@@2@V32@AAVios_base@2@DPADI@Z$0 1003df70 f   njsOracle.obj
 0001:0003cf78       __unwindfunclet$?_Iput@?$num_put@DV?$ostreambuf_iterator@DU?$char_traits@D@std@@@std@@@std@@ABA?AV?$ostreambuf_iterator@DU?$char_traits@D@std@@@2@V32@AAVios_base@2@DPADI@Z$1 1003df78 f   njsOracle.obj
 0001:0003cf80       __unwindfunclet$?_Iput@?$num_put@DV?$ostreambuf_iterator@DU?$char_traits@D@std@@@std@@@std@@ABA?AV?$ostreambuf_iterator@DU?$char_traits@D@std@@@2@V32@AAVios_base@2@DPADI@Z$2 1003df80 f   njsOracle.obj
 0001:0003cf88       __unwindfunclet$?_Iput@?$num_put@DV?$ostreambuf_iterator@DU?$char_traits@D@std@@@std@@@std@@ABA?AV?$ostreambuf_iterator@DU?$char_traits@D@std@@@2@V32@AAVios_base@2@DPADI@Z$3 1003df88 f   njsOracle.obj
 0001:0003cf90       __ehhandler$?_Iput@?$num_put@DV?$ostreambuf_iterator@DU?$char_traits@D@std@@@std@@@std@@ABA?AV?$ostreambuf_iterator@DU?$char_traits@D@std@@@2@V32@AAVios_base@2@DPADI@Z 1003df90 f   njsOracle.obj
 0001:0003cfc0       __unwindfunclet$??$use_facet@V?$ctype@D@std@@@std@@YAABV?$ctype@D@0@ABVlocale@0@@Z$0 1003dfc0 f   njsOracle.obj
 0001:0003cfc8       __ehhandler$??$use_facet@V?$ctype@D@std@@@std@@YAABV?$ctype@D@0@ABVlocale@0@@Z 1003dfc8 f   njsOracle.obj
 0001:0003cff0       __unwindfunclet$??$New@VString@v8@@V?$basic_string@DU?$char_traits@D@std@@V?$allocator@D@2@@std@@@Nan@@YA?AV?$MaybeLocal@VString@v8@@@v8@@V?$basic_string@DU?$char_traits@D@std@@V?$allocator@D@2@@std@@@Z$0 1003dff0 f   njsOracle.obj
 0001:0003cff8       __ehhandler$??$New@VString@v8@@V?$basic_string@DU?$char_traits@D@std@@V?$allocator@D@2@@std@@@Nan@@YA?AV?$MaybeLocal@VString@v8@@@v8@@V?$basic_string@DU?$char_traits@D@std@@V?$allocator@D@2@@std@@@Z 1003dff8 f   njsOracle.obj
 0001:0003d020       __unwindfunclet$??$?6U?$char_traits@D@std@@@std@@YAAAV?$basic_ostream@DU?$char_traits@D@std@@@0@AAV10@PBD@Z$1 1003e020 f   njsOracle.obj
 0001:0003d020       __unwindfunclet$??$?6DU?$char_traits@D@std@@V?$allocator@D@1@@std@@YAAAV?$basic_ostream@DU?$char_traits@D@std@@@0@AAV10@ABV?$basic_string@DU?$char_traits@D@std@@V?$allocator@D@2@@0@@Z$1 1003e020 f   dpiExceptionImpl.obj
 0001:0003d028       __unwindfunclet$??$?6DU?$char_traits@D@std@@V?$allocator@D@1@@std@@YAAAV?$basic_ostream@DU?$char_traits@D@std@@@0@AAV10@ABV?$basic_string@DU?$char_traits@D@std@@V?$allocator@D@2@@0@@Z$0 1003e028 f   dpiExceptionImpl.obj
 0001:0003d028       __unwindfunclet$??$?6U?$char_traits@D@std@@@std@@YAAAV?$basic_ostream@DU?$char_traits@D@std@@@0@AAV10@PBD@Z$0 1003e028 f   njsOracle.obj
 0001:0003d030       __ehhandler$??$?6DU?$char_traits@D@std@@V?$allocator@D@1@@std@@YAAAV?$basic_ostream@DU?$char_traits@D@std@@@0@AAV10@ABV?$basic_string@DU?$char_traits@D@std@@V?$allocator@D@2@@0@@Z 1003e030 f   dpiExceptionImpl.obj
 0001:0003d030       __ehhandler$??$?6U?$char_traits@D@std@@@std@@YAAAV?$basic_ostream@DU?$char_traits@D@std@@@0@AAV10@PBD@Z 1003e030 f   njsOracle.obj
 0001:0003d050       __unwindfunclet$??$use_facet@V?$numpunct@D@std@@@std@@YAABV?$numpunct@D@0@ABVlocale@0@@Z$0 1003e050 f   njsOracle.obj
 0001:0003d050       __unwindfunclet$??$use_facet@V?$num_put@DV?$ostreambuf_iterator@DU?$char_traits@D@std@@@std@@@std@@@std@@YAABV?$num_put@DV?$ostreambuf_iterator@DU?$char_traits@D@std@@@std@@@0@ABVlocale@0@@Z$0 1003e050 f   njsOracle.obj
 0001:0003d058       __ehhandler$??$use_facet@V?$num_put@DV?$ostreambuf_iterator@DU?$char_traits@D@std@@@std@@@std@@@std@@YAABV?$num_put@DV?$ostreambuf_iterator@DU?$char_traits@D@std@@@std@@@0@ABVlocale@0@@Z 1003e058 f   njsOracle.obj
 0001:0003d058       __ehhandler$??$use_facet@V?$numpunct@D@std@@@std@@YAABV?$numpunct@D@0@ABVlocale@0@@Z 1003e058 f   njsOracle.obj
 0001:0003d080       __unwindfunclet$?_Getcat@?$num_put@DV?$ostreambuf_iterator@DU?$char_traits@D@std@@@std@@@std@@SAIPAPBVfacet@locale@2@PBV42@@Z$0 1003e080 f   njsOracle.obj
 0001:0003d08b       __ehhandler$?_Getcat@?$num_put@DV?$ostreambuf_iterator@DU?$char_traits@D@std@@@std@@@std@@SAIPAPBVfacet@locale@2@PBV42@@Z 1003e08b f   njsOracle.obj
 0001:0003d0b0       __unwindfunclet$?_Getcat@?$numpunct@D@std@@SAIPAPBVfacet@locale@2@PBV42@@Z$0 1003e0b0 f   njsOracle.obj
 0001:0003d0bb       __unwindfunclet$?_Getcat@?$numpunct@D@std@@SAIPAPBVfacet@locale@2@PBV42@@Z$1 1003e0bb f   njsOracle.obj
 0001:0003d0d4       __unwindfunclet$?_Getcat@?$numpunct@D@std@@SAIPAPBVfacet@locale@2@PBV42@@Z$2 1003e0d4 f   njsOracle.obj
 0001:0003d0dc       __ehhandler$?_Getcat@?$numpunct@D@std@@SAIPAPBVfacet@locale@2@PBV42@@Z 1003e0dc f   njsOracle.obj
 0001:0003d100       __unwindfunclet$??0poolBaton@@QAE@V?$Local@VFunction@v8@@@v8@@V?$Local@VObject@v8@@@2@@Z$0 1003e100 f   njsPool.obj
 0001:0003d10b       __unwindfunclet$??0poolBaton@@QAE@V?$Local@VFunction@v8@@@v8@@V?$Local@VObject@v8@@@2@@Z$1 1003e10b f   njsPool.obj
 0001:0003d116       __unwindfunclet$??0poolBaton@@QAE@V?$Local@VFunction@v8@@@v8@@V?$Local@VObject@v8@@@2@@Z$2 1003e116 f   njsPool.obj
 0001:0003d11b       __unwindfunclet$??0poolBaton@@QAE@V?$Local@VFunction@v8@@@v8@@V?$Local@VObject@v8@@@2@@Z$3 1003e11b f   njsPool.obj
 0001:0003d120       __ehhandler$??0poolBaton@@QAE@V?$Local@VFunction@v8@@@v8@@V?$Local@VObject@v8@@@2@@Z 1003e120 f   njsPool.obj
 0001:0003d140       __unwindfunclet$??1poolBaton@@QAE@XZ$0 1003e140 f   njsPool.obj
 0001:0003d14b       __unwindfunclet$??1poolBaton@@QAE@XZ$1 1003e14b f   njsPool.obj
 0001:0003d156       __unwindfunclet$??1poolBaton@@QAE@XZ$2 1003e156 f   njsPool.obj
 0001:0003d15b       __unwindfunclet$??1poolBaton@@QAE@XZ$3 1003e15b f   njsPool.obj
 0001:0003d160       __ehhandler$??1poolBaton@@QAE@XZ 1003e160 f   njsPool.obj
 0001:0003d180       __unwindfunclet$??_GPool@@EAEPAXI@Z$0 1003e180 f   njsPool.obj
 0001:0003d180       __unwindfunclet$??_GConnection@@EAEPAXI@Z$0 1003e180 f   njsConnection.obj
 0001:0003d188       __ehhandler$??_GConnection@@EAEPAXI@Z 1003e188 f   njsConnection.obj
 0001:0003d188       __ehhandler$??_GPool@@EAEPAXI@Z 1003e188 f   njsPool.obj
 0001:0003d1b0       __unwindfunclet$?getPoolProperty@Pool@@CA?AV?$Local@VPrimitive@v8@@@v8@@PAV1@I@Z$0 1003e1b0 f   njsPool.obj
 0001:0003d1b0       __unwindfunclet$?getPoolProperty@Pool@@CA?AV?$Local@VPrimitive@v8@@@v8@@PAV1@H@Z$0 1003e1b0 f   njsPool.obj
 0001:0003d1b8       __unwindfunclet$?getPoolProperty@Pool@@CA?AV?$Local@VPrimitive@v8@@@v8@@PAV1@H@Z$1 1003e1b8 f   njsPool.obj
 0001:0003d1b8       __unwindfunclet$?getPoolProperty@Pool@@CA?AV?$Local@VPrimitive@v8@@@v8@@PAV1@I@Z$1 1003e1b8 f   njsPool.obj
 0001:0003d1c0       __ehhandler$?getPoolProperty@Pool@@CA?AV?$Local@VPrimitive@v8@@@v8@@PAV1@H@Z 1003e1c0 f   njsPool.obj
 0001:0003d1c0       __ehhandler$?getPoolProperty@Pool@@CA?AV?$Local@VPrimitive@v8@@@v8@@PAV1@I@Z 1003e1c0 f   njsPool.obj
 0001:0003d1f0       __unwindfunclet$?GetConnectionsOpen@Pool@@CAXV?$Local@VString@v8@@@v8@@ABV?$PropertyCallbackInfo@VValue@v8@@@Nan@@@Z$2 1003e1f0 f   njsPool.obj
 0001:0003d1f8       __unwindfunclet$?GetConnectionsOpen@Pool@@CAXV?$Local@VString@v8@@@v8@@ABV?$PropertyCallbackInfo@VValue@v8@@@Nan@@@Z$3 1003e1f8 f   njsPool.obj
 0001:0003d200       __ehhandler$?GetConnectionsOpen@Pool@@CAXV?$Local@VString@v8@@@v8@@ABV?$PropertyCallbackInfo@VValue@v8@@@Nan@@@Z 1003e200 f   njsPool.obj
 0001:0003d230       __unwindfunclet$?GetConnectionsInUse@Pool@@CAXV?$Local@VString@v8@@@v8@@ABV?$PropertyCallbackInfo@VValue@v8@@@Nan@@@Z$2 1003e230 f   njsPool.obj
 0001:0003d238       __unwindfunclet$?GetConnectionsInUse@Pool@@CAXV?$Local@VString@v8@@@v8@@ABV?$PropertyCallbackInfo@VValue@v8@@@Nan@@@Z$3 1003e238 f   njsPool.obj
 0001:0003d240       __ehhandler$?GetConnectionsInUse@Pool@@CAXV?$Local@VString@v8@@@v8@@ABV?$PropertyCallbackInfo@VValue@v8@@@Nan@@@Z 1003e240 f   njsPool.obj
 0001:0003d270       __unwindfunclet$?setPoolProperty@Pool@@CAXPAV1@V?$basic_string@DU?$char_traits@D@std@@V?$allocator@D@2@@std@@@Z$0 1003e270 f   njsPool.obj
 0001:0003d278       __unwindfunclet$?setPoolProperty@Pool@@CAXPAV1@V?$basic_string@DU?$char_traits@D@std@@V?$allocator@D@2@@std@@@Z$1 1003e278 f   njsPool.obj
 0001:0003d280       __unwindfunclet$?setPoolProperty@Pool@@CAXPAV1@V?$basic_string@DU?$char_traits@D@std@@V?$allocator@D@2@@std@@@Z$2 1003e280 f   njsPool.obj
 0001:0003d288       __unwindfunclet$?setPoolProperty@Pool@@CAXPAV1@V?$basic_string@DU?$char_traits@D@std@@V?$allocator@D@2@@std@@@Z$3 1003e288 f   njsPool.obj
 0001:0003d290       __ehhandler$?setPoolProperty@Pool@@CAXPAV1@V?$basic_string@DU?$char_traits@D@std@@V?$allocator@D@2@@std@@@Z 1003e290 f   njsPool.obj
 0001:0003d2c0       __unwindfunclet$?SetPoolPingInterval@Pool@@CAXV?$Local@VString@v8@@@v8@@V?$Local@VValue@v8@@@3@ABV?$PropertyCallbackInfo@X@Nan@@@Z$0 1003e2c0 f   njsPool.obj
 0001:0003d2c0       __unwindfunclet$?SetStmtCacheSize@Pool@@CAXV?$Local@VString@v8@@@v8@@V?$Local@VValue@v8@@@3@ABV?$PropertyCallbackInfo@X@Nan@@@Z$0 1003e2c0 f   njsPool.obj
 0001:0003d2c0       __unwindfunclet$?SetPoolMin@Pool@@CAXV?$Local@VString@v8@@@v8@@V?$Local@VValue@v8@@@3@ABV?$PropertyCallbackInfo@X@Nan@@@Z$0 1003e2c0 f   njsPool.obj
 0001:0003d2c0       __unwindfunclet$?SetConnectionsInUse@Pool@@CAXV?$Local@VString@v8@@@v8@@V?$Local@VValue@v8@@@3@ABV?$PropertyCallbackInfo@X@Nan@@@Z$0 1003e2c0 f   njsPool.obj
 0001:0003d2c0       __unwindfunclet$?SetPoolMax@Pool@@CAXV?$Local@VString@v8@@@v8@@V?$Local@VValue@v8@@@3@ABV?$PropertyCallbackInfo@X@Nan@@@Z$0 1003e2c0 f   njsPool.obj
 0001:0003d2c0       __unwindfunclet$?SetConnectionsOpen@Pool@@CAXV?$Local@VString@v8@@@v8@@V?$Local@VValue@v8@@@3@ABV?$PropertyCallbackInfo@X@Nan@@@Z$0 1003e2c0 f   njsPool.obj
 0001:0003d2c0       __unwindfunclet$?SetPoolIncrement@Pool@@CAXV?$Local@VString@v8@@@v8@@V?$Local@VValue@v8@@@3@ABV?$PropertyCallbackInfo@X@Nan@@@Z$0 1003e2c0 f   njsPool.obj
 0001:0003d2c0       __unwindfunclet$?SetPoolTimeout@Pool@@CAXV?$Local@VString@v8@@@v8@@V?$Local@VValue@v8@@@3@ABV?$PropertyCallbackInfo@X@Nan@@@Z$0 1003e2c0 f   njsPool.obj
 0001:0003d2c8       __ehhandler$?SetConnectionsOpen@Pool@@CAXV?$Local@VString@v8@@@v8@@V?$Local@VValue@v8@@@3@ABV?$PropertyCallbackInfo@X@Nan@@@Z 1003e2c8 f   njsPool.obj
 0001:0003d2c8       __ehhandler$?SetPoolIncrement@Pool@@CAXV?$Local@VString@v8@@@v8@@V?$Local@VValue@v8@@@3@ABV?$PropertyCallbackInfo@X@Nan@@@Z 1003e2c8 f   njsPool.obj
 0001:0003d2c8       __ehhandler$?SetConnectionsInUse@Pool@@CAXV?$Local@VString@v8@@@v8@@V?$Local@VValue@v8@@@3@ABV?$PropertyCallbackInfo@X@Nan@@@Z 1003e2c8 f   njsPool.obj
 0001:0003d2c8       __ehhandler$?SetPoolMax@Pool@@CAXV?$Local@VString@v8@@@v8@@V?$Local@VValue@v8@@@3@ABV?$PropertyCallbackInfo@X@Nan@@@Z 1003e2c8 f   njsPool.obj
 0001:0003d2c8       __ehhandler$?SetStmtCacheSize@Pool@@CAXV?$Local@VString@v8@@@v8@@V?$Local@VValue@v8@@@3@ABV?$PropertyCallbackInfo@X@Nan@@@Z 1003e2c8 f   njsPool.obj
 0001:0003d2c8       __ehhandler$?SetPoolMin@Pool@@CAXV?$Local@VString@v8@@@v8@@V?$Local@VValue@v8@@@3@ABV?$PropertyCallbackInfo@X@Nan@@@Z 1003e2c8 f   njsPool.obj
 0001:0003d2c8       __ehhandler$?SetPoolPingInterval@Pool@@CAXV?$Local@VString@v8@@@v8@@V?$Local@VValue@v8@@@3@ABV?$PropertyCallbackInfo@X@Nan@@@Z 1003e2c8 f   njsPool.obj
 0001:0003d2c8       __ehhandler$?SetPoolTimeout@Pool@@CAXV?$Local@VString@v8@@@v8@@V?$Local@VValue@v8@@@3@ABV?$PropertyCallbackInfo@X@Nan@@@Z 1003e2c8 f   njsPool.obj
 0001:0003d2f0       __unwindfunclet$?Terminate@Pool@@CAXABV?$FunctionCallbackInfo@VValue@v8@@@Nan@@@Z$3 1003e2f0 f   njsPool.obj
 0001:0003d2f0       __unwindfunclet$?GetConnection@Pool@@CAXABV?$FunctionCallbackInfo@VValue@v8@@@Nan@@@Z$3 1003e2f0 f   njsPool.obj
 0001:0003d2f8       __unwindfunclet$?GetConnection@Pool@@CAXABV?$FunctionCallbackInfo@VValue@v8@@@Nan@@@Z$5 1003e2f8 f   njsPool.obj
 0001:0003d2f8       __unwindfunclet$?Terminate@Pool@@CAXABV?$FunctionCallbackInfo@VValue@v8@@@Nan@@@Z$5 1003e2f8 f   njsPool.obj
 0001:0003d303       __unwindfunclet$?GetConnection@Pool@@CAXABV?$FunctionCallbackInfo@VValue@v8@@@Nan@@@Z$9 1003e303 f   njsPool.obj
 0001:0003d303       __unwindfunclet$?Terminate@Pool@@CAXABV?$FunctionCallbackInfo@VValue@v8@@@Nan@@@Z$9 1003e303 f   njsPool.obj
 0001:0003d30b       __ehhandler$?Terminate@Pool@@CAXABV?$FunctionCallbackInfo@VValue@v8@@@Nan@@@Z 1003e30b f   njsPool.obj
 0001:0003d30b       __ehhandler$?GetConnection@Pool@@CAXABV?$FunctionCallbackInfo@VValue@v8@@@Nan@@@Z 1003e30b f   njsPool.obj
 0001:0003d340       __unwindfunclet$?Async_GetConnection@Pool@@CAXPAUuv_work_s@@@Z$3 1003e340 f   njsPool.obj
 0001:0003d348       __unwindfunclet$?Async_GetConnection@Pool@@CAXPAUuv_work_s@@@Z$4 1003e348 f   njsPool.obj
 0001:0003d350       __unwindfunclet$?Async_GetConnection@Pool@@CAXPAUuv_work_s@@@Z$5 1003e350 f   njsPool.obj
 0001:0003d358       __ehhandler$?Async_GetConnection@Pool@@CAXPAUuv_work_s@@@Z 1003e358 f   njsPool.obj
 0001:0003d380       __ehhandler$?Async_Terminate@Pool@@CAXPAUuv_work_s@@@Z 1003e380 f   njsPool.obj
 0001:0003d3b0       __unwindfunclet$?Async_AfterClose@ILob@@CAXPAUuv_work_s@@@Z$0 1003e3b0 f   njsIntLob.obj
 0001:0003d3b0       __unwindfunclet$?Async_AfterRollback@Connection@@CAXPAUuv_work_s@@@Z$0 1003e3b0 f   njsConnection.obj
 0001:0003d3b0       __unwindfunclet$?Async_AfterClose@ResultSet@@CAXPAUuv_work_s@@@Z$0 1003e3b0 f   njsResultSet.obj
 0001:0003d3b0       __unwindfunclet$?Async_AfterTerminate@Pool@@CAXPAUuv_work_s@@@Z$0 1003e3b0 f   njsPool.obj
 0001:0003d3b0       __unwindfunclet$?Async_AfterBreak@Connection@@CAXPAUuv_work_s@@@Z$0 1003e3b0 f   njsConnection.obj
 0001:0003d3b0       __unwindfunclet$?Async_AfterWrite@ILob@@CAXPAUuv_work_s@@@Z$0 1003e3b0 f   njsIntLob.obj
 0001:0003d3b0       __unwindfunclet$?Async_AfterCommit@Connection@@CAXPAUuv_work_s@@@Z$0 1003e3b0 f   njsConnection.obj
 0001:0003d3b8       __unwindfunclet$?Async_AfterCommit@Connection@@CAXPAUuv_work_s@@@Z$1 1003e3b8 f   njsConnection.obj
 0001:0003d3b8       __unwindfunclet$?Async_AfterBreak@Connection@@CAXPAUuv_work_s@@@Z$1 1003e3b8 f   njsConnection.obj
 0001:0003d3b8       __unwindfunclet$?Async_AfterWrite@ILob@@CAXPAUuv_work_s@@@Z$1 1003e3b8 f   njsIntLob.obj
 0001:0003d3b8       __unwindfunclet$?Async_AfterClose@ResultSet@@CAXPAUuv_work_s@@@Z$1 1003e3b8 f   njsResultSet.obj
 0001:0003d3b8       __unwindfunclet$?Async_AfterClose@ILob@@CAXPAUuv_work_s@@@Z$1 1003e3b8 f   njsIntLob.obj
 0001:0003d3b8       __unwindfunclet$?Async_AfterRollback@Connection@@CAXPAUuv_work_s@@@Z$1 1003e3b8 f   njsConnection.obj
 0001:0003d3b8       __unwindfunclet$?Async_AfterTerminate@Pool@@CAXPAUuv_work_s@@@Z$1 1003e3b8 f   njsPool.obj
 0001:0003d3c0       __ehhandler$?Async_AfterRollback@Connection@@CAXPAUuv_work_s@@@Z 1003e3c0 f   njsConnection.obj
 0001:0003d3c0       __ehhandler$?Async_AfterBreak@Connection@@CAXPAUuv_work_s@@@Z 1003e3c0 f   njsConnection.obj
 0001:0003d3c0       __ehhandler$?Async_AfterClose@ResultSet@@CAXPAUuv_work_s@@@Z 1003e3c0 f   njsResultSet.obj
 0001:0003d3c0       __ehhandler$?Async_AfterClose@ILob@@CAXPAUuv_work_s@@@Z 1003e3c0 f   njsIntLob.obj
 0001:0003d3c0       __ehhandler$?Async_AfterTerminate@Pool@@CAXPAUuv_work_s@@@Z 1003e3c0 f   njsPool.obj
 0001:0003d3c0       __ehhandler$?Async_AfterWrite@ILob@@CAXPAUuv_work_s@@@Z 1003e3c0 f   njsIntLob.obj
 0001:0003d3c0       __ehhandler$?Async_AfterCommit@Connection@@CAXPAUuv_work_s@@@Z 1003e3c0 f   njsConnection.obj
 0001:0003d3e0       __unwindfunclet$?Set@Nan@@YA?AV?$Maybe@_N@v8@@V?$Local@VObject@v8@@@3@IV?$Local@VValue@v8@@@3@@Z$0 1003e3e0 f   njsConnection.obj
 0001:0003d3e9       __ehhandler$?Set@Nan@@YA?AV?$Maybe@_N@v8@@V?$Local@VObject@v8@@@3@IV?$Local@VValue@v8@@@3@@Z 1003e3e9 f   njsConnection.obj
 0001:0003d410       __unwindfunclet$?New@?$Factory@VDate@v8@@@imp@Nan@@SA?AV?$MaybeLocal@VDate@v8@@@v8@@N@Z$0 1003e410 f   njsConnection.obj
 0001:0003d419       __ehhandler$?New@?$Factory@VDate@v8@@@imp@Nan@@SA?AV?$MaybeLocal@VDate@v8@@@v8@@N@Z 1003e419 f   njsConnection.obj
 0001:0003d440       __unwindfunclet$??0eBaton@@QAE@AAIV?$Local@VFunction@v8@@@v8@@V?$Local@VObject@v8@@@2@@Z$0 1003e440 f   njsConnection.obj
 0001:0003d44b       __unwindfunclet$??0eBaton@@QAE@AAIV?$Local@VFunction@v8@@@v8@@V?$Local@VObject@v8@@@2@@Z$1 1003e44b f   njsConnection.obj
 0001:0003d456       __unwindfunclet$??0eBaton@@QAE@AAIV?$Local@VFunction@v8@@@v8@@V?$Local@VObject@v8@@@2@@Z$2 1003e456 f   njsConnection.obj
 0001:0003d464       __unwindfunclet$??0eBaton@@QAE@AAIV?$Local@VFunction@v8@@@v8@@V?$Local@VObject@v8@@@2@@Z$3 1003e464 f   njsConnection.obj
 0001:0003d472       __unwindfunclet$??0eBaton@@QAE@AAIV?$Local@VFunction@v8@@@v8@@V?$Local@VObject@v8@@@2@@Z$4 1003e472 f   njsConnection.obj
 0001:0003d480       __unwindfunclet$??0eBaton@@QAE@AAIV?$Local@VFunction@v8@@@v8@@V?$Local@VObject@v8@@@2@@Z$5 1003e480 f   njsConnection.obj
 0001:0003d485       __unwindfunclet$??0eBaton@@QAE@AAIV?$Local@VFunction@v8@@@v8@@V?$Local@VObject@v8@@@2@@Z$6 1003e485 f   njsConnection.obj
 0001:0003d493       __unwindfunclet$??0eBaton@@QAE@AAIV?$Local@VFunction@v8@@@v8@@V?$Local@VObject@v8@@@2@@Z$7 1003e493 f   njsConnection.obj
 0001:0003d498       __unwindfunclet$??0eBaton@@QAE@AAIV?$Local@VFunction@v8@@@v8@@V?$Local@VObject@v8@@@2@@Z$8 1003e498 f   njsConnection.obj
 0001:0003d4a6       __ehhandler$??0eBaton@@QAE@AAIV?$Local@VFunction@v8@@@v8@@V?$Local@VObject@v8@@@2@@Z 1003e4a6 f   njsConnection.obj
 0001:0003d4d0       __unwindfunclet$??1eBaton@@QAE@XZ$0 1003e4d0 f   njsConnection.obj
 0001:0003d4db       __unwindfunclet$??1eBaton@@QAE@XZ$1 1003e4db f   njsConnection.obj
 0001:0003d4e6       __unwindfunclet$??1eBaton@@QAE@XZ$2 1003e4e6 f   njsConnection.obj
 0001:0003d4f4       __unwindfunclet$??1eBaton@@QAE@XZ$3 1003e4f4 f   njsConnection.obj
 0001:0003d502       __unwindfunclet$??1eBaton@@QAE@XZ$4 1003e502 f   njsConnection.obj
 0001:0003d510       __unwindfunclet$??1eBaton@@QAE@XZ$5 1003e510 f   njsConnection.obj
 0001:0003d515       __unwindfunclet$??1eBaton@@QAE@XZ$6 1003e515 f   njsConnection.obj
 0001:0003d523       __unwindfunclet$??1eBaton@@QAE@XZ$7 1003e523 f   njsConnection.obj
 0001:0003d528       __unwindfunclet$??1eBaton@@QAE@XZ$8 1003e528 f   njsConnection.obj
 0001:0003d536       __ehhandler$??1eBaton@@QAE@XZ 1003e536 f   njsConnection.obj
 0001:0003d560       __unwindfunclet$?connectionPropertyException@Connection@@CAXPAV1@W4NJSErrorType@@V?$basic_string@DU?$char_traits@D@std@@V?$allocator@D@2@@std@@@Z$0 1003e560 f   njsConnection.obj
 0001:0003d560       __unwindfunclet$?lobPropertyException@ILob@@CAXPAV1@W4NJSErrorType@@V?$basic_string@DU?$char_traits@D@std@@V?$allocator@D@2@@std@@@Z$0 1003e560 f   njsIntLob.obj
 0001:0003d568       __unwindfunclet$?connectionPropertyException@Connection@@CAXPAV1@W4NJSErrorType@@V?$basic_string@DU?$char_traits@D@std@@V?$allocator@D@2@@std@@@Z$1 1003e568 f   njsConnection.obj
 0001:0003d568       __unwindfunclet$?lobPropertyException@ILob@@CAXPAV1@W4NJSErrorType@@V?$basic_string@DU?$char_traits@D@std@@V?$allocator@D@2@@std@@@Z$1 1003e568 f   njsIntLob.obj
 0001:0003d570       __unwindfunclet$?connectionPropertyException@Connection@@CAXPAV1@W4NJSErrorType@@V?$basic_string@DU?$char_traits@D@std@@V?$allocator@D@2@@std@@@Z$2 1003e570 f   njsConnection.obj
 0001:0003d570       __unwindfunclet$?lobPropertyException@ILob@@CAXPAV1@W4NJSErrorType@@V?$basic_string@DU?$char_traits@D@std@@V?$allocator@D@2@@std@@@Z$2 1003e570 f   njsIntLob.obj
 0001:0003d578       __ehhandler$?connectionPropertyException@Connection@@CAXPAV1@W4NJSErrorType@@V?$basic_string@DU?$char_traits@D@std@@V?$allocator@D@2@@std@@@Z 1003e578 f   njsConnection.obj
 0001:0003d578       __ehhandler$?lobPropertyException@ILob@@CAXPAV1@W4NJSErrorType@@V?$basic_string@DU?$char_traits@D@std@@V?$allocator@D@2@@std@@@Z 1003e578 f   njsIntLob.obj
 0001:0003d5a0       __unwindfunclet$?GetStmtCacheSize@Connection@@CAXV?$Local@VString@v8@@@v8@@ABV?$PropertyCallbackInfo@VValue@v8@@@Nan@@@Z$2 1003e5a0 f   njsConnection.obj
 0001:0003d5a8       __unwindfunclet$?GetStmtCacheSize@Connection@@CAXV?$Local@VString@v8@@@v8@@ABV?$PropertyCallbackInfo@VValue@v8@@@Nan@@@Z$3 1003e5a8 f   njsConnection.obj
 0001:0003d5b0       __ehhandler$?GetStmtCacheSize@Connection@@CAXV?$Local@VString@v8@@@v8@@ABV?$PropertyCallbackInfo@VValue@v8@@@Nan@@@Z 1003e5b0 f   njsConnection.obj
 0001:0003d5e0       __unwindfunclet$?SetClientId@Connection@@CAXV?$Local@VString@v8@@@v8@@V?$Local@VValue@v8@@@3@ABV?$PropertyCallbackInfo@X@Nan@@@Z$2 1003e5e0 f   njsConnection.obj
 0001:0003d5e8       __unwindfunclet$?SetClientId@Connection@@CAXV?$Local@VString@v8@@@v8@@V?$Local@VValue@v8@@@3@ABV?$PropertyCallbackInfo@X@Nan@@@Z$3 1003e5e8 f   njsConnection.obj
 0001:0003d5f0       __unwindfunclet$?SetClientId@Connection@@CAXV?$Local@VString@v8@@@v8@@V?$Local@VValue@v8@@@3@ABV?$PropertyCallbackInfo@X@Nan@@@Z$4 1003e5f0 f   njsConnection.obj
 0001:0003d5f8       __unwindfunclet$?SetClientId@Connection@@CAXV?$Local@VString@v8@@@v8@@V?$Local@VValue@v8@@@3@ABV?$PropertyCallbackInfo@X@Nan@@@Z$5 1003e5f8 f   njsConnection.obj
 0001:0003d600       __unwindfunclet$?SetClientId@Connection@@CAXV?$Local@VString@v8@@@v8@@V?$Local@VValue@v8@@@3@ABV?$PropertyCallbackInfo@X@Nan@@@Z$6 1003e600 f   njsConnection.obj
 0001:0003d609       __ehhandler$?SetClientId@Connection@@CAXV?$Local@VString@v8@@@v8@@V?$Local@VValue@v8@@@3@ABV?$PropertyCallbackInfo@X@Nan@@@Z 1003e609 f   njsConnection.obj
 0001:0003d630       __unwindfunclet$?SetModule@Connection@@CAXV?$Local@VString@v8@@@v8@@V?$Local@VValue@v8@@@3@ABV?$PropertyCallbackInfo@X@Nan@@@Z$2 1003e630 f   njsConnection.obj
 0001:0003d638       __unwindfunclet$?SetModule@Connection@@CAXV?$Local@VString@v8@@@v8@@V?$Local@VValue@v8@@@3@ABV?$PropertyCallbackInfo@X@Nan@@@Z$3 1003e638 f   njsConnection.obj
 0001:0003d640       __unwindfunclet$?SetModule@Connection@@CAXV?$Local@VString@v8@@@v8@@V?$Local@VValue@v8@@@3@ABV?$PropertyCallbackInfo@X@Nan@@@Z$4 1003e640 f   njsConnection.obj
 0001:0003d648       __unwindfunclet$?SetModule@Connection@@CAXV?$Local@VString@v8@@@v8@@V?$Local@VValue@v8@@@3@ABV?$PropertyCallbackInfo@X@Nan@@@Z$5 1003e648 f   njsConnection.obj
 0001:0003d650       __unwindfunclet$?SetModule@Connection@@CAXV?$Local@VString@v8@@@v8@@V?$Local@VValue@v8@@@3@ABV?$PropertyCallbackInfo@X@Nan@@@Z$6 1003e650 f   njsConnection.obj
 0001:0003d659       __ehhandler$?SetModule@Connection@@CAXV?$Local@VString@v8@@@v8@@V?$Local@VValue@v8@@@3@ABV?$PropertyCallbackInfo@X@Nan@@@Z 1003e659 f   njsConnection.obj
 0001:0003d680       __unwindfunclet$?SetAction@Connection@@CAXV?$Local@VString@v8@@@v8@@V?$Local@VValue@v8@@@3@ABV?$PropertyCallbackInfo@X@Nan@@@Z$2 1003e680 f   njsConnection.obj
 0001:0003d688       __unwindfunclet$?SetAction@Connection@@CAXV?$Local@VString@v8@@@v8@@V?$Local@VValue@v8@@@3@ABV?$PropertyCallbackInfo@X@Nan@@@Z$3 1003e688 f   njsConnection.obj
 0001:0003d690       __unwindfunclet$?SetAction@Connection@@CAXV?$Local@VString@v8@@@v8@@V?$Local@VValue@v8@@@3@ABV?$PropertyCallbackInfo@X@Nan@@@Z$4 1003e690 f   njsConnection.obj
 0001:0003d698       __unwindfunclet$?SetAction@Connection@@CAXV?$Local@VString@v8@@@v8@@V?$Local@VValue@v8@@@3@ABV?$PropertyCallbackInfo@X@Nan@@@Z$5 1003e698 f   njsConnection.obj
 0001:0003d6a0       __unwindfunclet$?SetAction@Connection@@CAXV?$Local@VString@v8@@@v8@@V?$Local@VValue@v8@@@3@ABV?$PropertyCallbackInfo@X@Nan@@@Z$6 1003e6a0 f   njsConnection.obj
 0001:0003d6a9       __ehhandler$?SetAction@Connection@@CAXV?$Local@VString@v8@@@v8@@V?$Local@VValue@v8@@@3@ABV?$PropertyCallbackInfo@X@Nan@@@Z 1003e6a9 f   njsConnection.obj
 0001:0003d6d0       __unwindfunclet$?GetOracleServerVersion@Connection@@CAXV?$Local@VString@v8@@@v8@@ABV?$PropertyCallbackInfo@VValue@v8@@@Nan@@@Z$2 1003e6d0 f   njsConnection.obj
 0001:0003d6d8       __unwindfunclet$?GetOracleServerVersion@Connection@@CAXV?$Local@VString@v8@@@v8@@ABV?$PropertyCallbackInfo@VValue@v8@@@Nan@@@Z$3 1003e6d8 f   njsConnection.obj
 0001:0003d6e0       __ehhandler$?GetOracleServerVersion@Connection@@CAXV?$Local@VString@v8@@@v8@@ABV?$PropertyCallbackInfo@VValue@v8@@@Nan@@@Z 1003e6e0 f   njsConnection.obj
 0001:0003d710       __unwindfunclet$?Execute@Connection@@CAXABV?$FunctionCallbackInfo@VValue@v8@@@Nan@@@Z$6 1003e710 f   njsConnection.obj
 0001:0003d718       __unwindfunclet$?Execute@Connection@@CAXABV?$FunctionCallbackInfo@VValue@v8@@@Nan@@@Z$8 1003e718 f   njsConnection.obj
 0001:0003d720       __unwindfunclet$?Execute@Connection@@CAXABV?$FunctionCallbackInfo@VValue@v8@@@Nan@@@Z$9 1003e720 f   njsConnection.obj
 0001:0003d72b       __unwindfunclet$?Execute@Connection@@CAXABV?$FunctionCallbackInfo@VValue@v8@@@Nan@@@Z$13 1003e72b f   njsConnection.obj
 0001:0003d734       __unwindfunclet$?Execute@Connection@@CAXABV?$FunctionCallbackInfo@VValue@v8@@@Nan@@@Z$16 1003e734 f   njsConnection.obj
 0001:0003d73c       __ehhandler$?Execute@Connection@@CAXABV?$FunctionCallbackInfo@VValue@v8@@@Nan@@@Z 1003e73c f   njsConnection.obj
 0001:0003d770       __unwindfunclet$?ProcessBinds@Connection@@CAXABV?$FunctionCallbackInfo@VValue@v8@@@Nan@@IPAUeBaton@@@Z$0 1003e770 f   njsConnection.obj
 0001:0003d778       __ehhandler$?ProcessBinds@Connection@@CAXABV?$FunctionCallbackInfo@VValue@v8@@@Nan@@IPAUeBaton@@@Z 1003e778 f   njsConnection.obj
 0001:0003d7a0       __unwindfunclet$?ProcessOptions@Connection@@CAXABV?$FunctionCallbackInfo@VValue@v8@@@Nan@@IPAUeBaton@@@Z$13 1003e7a0 f   njsConnection.obj
 0001:0003d7a8       __unwindfunclet$?ProcessOptions@Connection@@CAXABV?$FunctionCallbackInfo@VValue@v8@@@Nan@@IPAUeBaton@@@Z$21 1003e7a8 f   njsConnection.obj
 0001:0003d7b3       __unwindfunclet$?ProcessOptions@Connection@@CAXABV?$FunctionCallbackInfo@VValue@v8@@@Nan@@IPAUeBaton@@@Z$22 1003e7b3 f   njsConnection.obj
 0001:0003d7bc       __ehhandler$?ProcessOptions@Connection@@CAXABV?$FunctionCallbackInfo@VValue@v8@@@Nan@@IPAUeBaton@@@Z 1003e7bc f   njsConnection.obj
 0001:0003d7f0       __unwindfunclet$?GetBinds@Connection@@CAXV?$Local@VObject@v8@@@v8@@PAUeBaton@@@Z$1 1003e7f0 f   njsConnection.obj
 0001:0003d7f8       __unwindfunclet$?GetBinds@Connection@@CAXV?$Local@VObject@v8@@@v8@@PAUeBaton@@@Z$2 1003e7f8 f   njsConnection.obj
 0001:0003d800       __unwindfunclet$?GetBinds@Connection@@CAXV?$Local@VObject@v8@@@v8@@PAUeBaton@@@Z$3 1003e800 f   njsConnection.obj
 0001:0003d80e       __unwindfunclet$?GetBinds@Connection@@CAXV?$Local@VObject@v8@@@v8@@PAUeBaton@@@Z$4 1003e80e f   njsConnection.obj
 0001:0003d817       __unwindfunclet$?GetBinds@Connection@@CAXV?$Local@VObject@v8@@@v8@@PAUeBaton@@@Z$6 1003e817 f   njsConnection.obj
 0001:0003d81f       __ehhandler$?GetBinds@Connection@@CAXV?$Local@VObject@v8@@@v8@@PAUeBaton@@@Z 1003e81f f   njsConnection.obj
 0001:0003d850       __unwindfunclet$?GetBinds@Connection@@CAXV?$Local@VArray@v8@@@v8@@PAUeBaton@@@Z$1 1003e850 f   njsConnection.obj
 0001:0003d858       __unwindfunclet$?GetBinds@Connection@@CAXV?$Local@VArray@v8@@@v8@@PAUeBaton@@@Z$2 1003e858 f   njsConnection.obj
 0001:0003d863       __ehhandler$?GetBinds@Connection@@CAXV?$Local@VArray@v8@@@v8@@PAUeBaton@@@Z 1003e863 f   njsConnection.obj
 0001:0003d880       __unwindfunclet$?GetBindUnit@Connection@@CAXV?$Local@VValue@v8@@@v8@@PAUBind@@_NPAUeBaton@@@Z$20 1003e880 f   njsConnection.obj
 0001:0003d888       __unwindfunclet$?GetBindUnit@Connection@@CAXV?$Local@VValue@v8@@@v8@@PAUBind@@_NPAUeBaton@@@Z$21 1003e888 f   njsConnection.obj
 0001:0003d890       __unwindfunclet$?GetBindUnit@Connection@@CAXV?$Local@VValue@v8@@@v8@@PAUBind@@_NPAUeBaton@@@Z$22 1003e890 f   njsConnection.obj
 0001:0003d899       __unwindfunclet$?GetBindUnit@Connection@@CAXV?$Local@VValue@v8@@@v8@@PAUBind@@_NPAUeBaton@@@Z$45 1003e899 f   njsConnection.obj
 0001:0003d8a1       __ehhandler$?GetBindUnit@Connection@@CAXV?$Local@VValue@v8@@@v8@@PAUBind@@_NPAUeBaton@@@Z 1003e8a1 f   njsConnection.obj
 0001:0003d8d0       __unwindfunclet$?GetOutBindParams@Connection@@CAXGPAUBind@@PAUeBaton@@@Z$1 1003e8d0 f   njsConnection.obj
 0001:0003d8d8       __ehhandler$?GetOutBindParams@Connection@@CAXGPAUBind@@PAUeBaton@@@Z 1003e8d8 f   njsConnection.obj
 0001:0003d900       __unwindfunclet$?v8Date2OraDate@Connection@@CAXV?$Local@VValue@v8@@@v8@@PAUBind@@@Z$0 1003e900 f   njsConnection.obj
 0001:0003d900       __unwindfunclet$?GetInBindParams@Connection@@CAXV?$Local@VValue@v8@@@v8@@PAUBind@@PAUeBaton@@@Z$0 1003e900 f   njsConnection.obj
 0001:0003d908       __ehhandler$?GetInBindParams@Connection@@CAXV?$Local@VValue@v8@@@v8@@PAUBind@@PAUeBaton@@@Z 1003e908 f   njsConnection.obj
 0001:0003d908       __ehhandler$?v8Date2OraDate@Connection@@CAXV?$Local@VValue@v8@@@v8@@PAUBind@@@Z 1003e908 f   njsConnection.obj
 0001:0003d930       __unwindfunclet$?GetInBindParamsScalar@Connection@@CAXV?$Local@VValue@v8@@@v8@@PAUBind@@PAUeBaton@@@Z$16 1003e930 f   njsConnection.obj
 0001:0003d93b       __unwindfunclet$?GetInBindParamsScalar@Connection@@CAXV?$Local@VValue@v8@@@v8@@PAUBind@@PAUeBaton@@@Z$18 1003e93b f   njsConnection.obj
 0001:0003d947       __unwindfunclet$?GetInBindParamsScalar@Connection@@CAXV?$Local@VValue@v8@@@v8@@PAUBind@@PAUeBaton@@@Z$34 1003e947 f   njsConnection.obj
 0001:0003d955       __ehhandler$?GetInBindParamsScalar@Connection@@CAXV?$Local@VValue@v8@@@v8@@PAUBind@@PAUeBaton@@@Z 1003e955 f   njsConnection.obj
 0001:0003d990       __unwindfunclet$?GetInBindParamsArray@Connection@@CAXV?$Local@VArray@v8@@@v8@@PAUBind@@PAUeBaton@@@Z$15 1003e990 f   njsConnection.obj
 0001:0003d99b       __unwindfunclet$?GetInBindParamsArray@Connection@@CAXV?$Local@VArray@v8@@@v8@@PAUBind@@PAUeBaton@@@Z$33 1003e99b f   njsConnection.obj
 0001:0003d9a7       __ehhandler$?GetInBindParamsArray@Connection@@CAXV?$Local@VArray@v8@@@v8@@PAUBind@@PAUeBaton@@@Z 1003e9a7 f   njsConnection.obj
 0001:0003d9e0       __unwindfunclet$?Async_Execute@Connection@@CAXPAUuv_work_s@@@Z$16 1003e9e0 f   njsConnection.obj
 0001:0003d9eb       __unwindfunclet$?Async_Execute@Connection@@CAXPAUuv_work_s@@@Z$23 1003e9eb f   njsConnection.obj
 0001:0003d9f6       __ehhandler$?Async_Execute@Connection@@CAXPAUuv_work_s@@@Z 1003e9f6 f   njsConnection.obj
 0001:0003da20       __unwindfunclet$?Descr2protoILob@Connection@@CAXPAUeBaton@@II@Z$0 1003ea20 f   njsConnection.obj
 0001:0003da2b       __unwindfunclet$?Descr2protoILob@Connection@@CAXPAUeBaton@@II@Z$1 1003ea2b f   njsConnection.obj
 0001:0003da36       __unwindfunclet$?Descr2protoILob@Connection@@CAXPAUeBaton@@II@Z$2 1003ea36 f   njsConnection.obj
 0001:0003da41       __ehhandler$?Descr2protoILob@Connection@@CAXPAUeBaton@@II@Z 1003ea41 f   njsConnection.obj
 0001:0003da60       __unwindfunclet$?Async_AfterExecute@Connection@@CAXPAUuv_work_s@@@Z$3 1003ea60 f   njsConnection.obj
 0001:0003da68       __unwindfunclet$?Async_AfterExecute@Connection@@CAXPAUuv_work_s@@@Z$4 1003ea68 f   njsConnection.obj
 0001:0003da70       __ehhandler$?Async_AfterExecute@Connection@@CAXPAUuv_work_s@@@Z 1003ea70 f   njsConnection.obj
 0001:0003daa0       __unwindfunclet$?GetMetaData@Connection@@SA?AV?$Local@VValue@v8@@@v8@@PBUMetaInfo@@I_N@Z$0 1003eaa0 f   njsConnection.obj
 0001:0003daa8       __ehhandler$?GetMetaData@Connection@@SA?AV?$Local@VValue@v8@@@v8@@PBUMetaInfo@@I_N@Z 1003eaa8 f   njsConnection.obj
 0001:0003dad0       __unwindfunclet$?GetRows@Connection@@SA?AV?$Local@VValue@v8@@@v8@@PAUeBaton@@@Z$3 1003ead0 f   njsConnection.obj
 0001:0003dad8       __ehhandler$?GetRows@Connection@@SA?AV?$Local@VValue@v8@@@v8@@PAUeBaton@@@Z 1003ead8 f   njsConnection.obj
 0001:0003db00       __unwindfunclet$?ToV8Value@Connection@@CA?AV?$Local@VValue@v8@@@v8@@PAUeBaton@@_NII@Z$0 1003eb00 f   njsConnection.obj
 0001:0003db08       __ehhandler$?ToV8Value@Connection@@CA?AV?$Local@VValue@v8@@@v8@@PAUeBaton@@_NII@Z 1003eb08 f   njsConnection.obj
 0001:0003db30       __unwindfunclet$?Define2V8Value@Connection@@CA?AV?$Local@VValue@v8@@@v8@@PAUeBaton@@IIPAUDefine@@PAUExtDefine@@@Z$0 1003eb30 f   njsConnection.obj
 0001:0003db30       __unwindfunclet$?Bind2V8Value@Connection@@CA?AV?$Local@VValue@v8@@@v8@@PAUeBaton@@PAUBind@@I@Z$0 1003eb30 f   njsConnection.obj
 0001:0003db38       __ehhandler$?Define2V8Value@Connection@@CA?AV?$Local@VValue@v8@@@v8@@PAUeBaton@@IIPAUDefine@@PAUExtDefine@@@Z 1003eb38 f   njsConnection.obj
 0001:0003db38       __ehhandler$?Bind2V8Value@Connection@@CA?AV?$Local@VValue@v8@@@v8@@PAUeBaton@@PAUBind@@I@Z 1003eb38 f   njsConnection.obj
 0001:0003db60       __unwindfunclet$?RefCursor2V8Value@Connection@@CA?AV?$Local@VValue@v8@@@v8@@PAUeBaton@@PAUBind@@PAUExtBind@@@Z$0 1003eb60 f   njsConnection.obj
 0001:0003db68       __ehhandler$?RefCursor2V8Value@Connection@@CA?AV?$Local@VValue@v8@@@v8@@PAUeBaton@@PAUBind@@PAUExtBind@@@Z 1003eb68 f   njsConnection.obj
 0001:0003db90       __unwindfunclet$?Lob2V8Value@Connection@@CA?AV?$Local@VValue@v8@@@v8@@PAUeBaton@@PAUBind@@@Z$0 1003eb90 f   njsConnection.obj
 0001:0003db98       __ehhandler$?Lob2V8Value@Connection@@CA?AV?$Local@VValue@v8@@@v8@@PAUeBaton@@PAUBind@@@Z 1003eb98 f   njsConnection.obj
 0001:0003dbc0       __unwindfunclet$?ToV8ArrayValue@Connection@@CA?AV?$Local@VValue@v8@@@v8@@PAUeBaton@@PAUBind@@K@Z$0 1003ebc0 f   njsConnection.obj
 0001:0003dbc8       __ehhandler$?ToV8ArrayValue@Connection@@CA?AV?$Local@VValue@v8@@@v8@@PAUeBaton@@PAUBind@@K@Z 1003ebc8 f   njsConnection.obj
 0001:0003dbf0       __unwindfunclet$?GetOutBinds@Connection@@CA?AV?$Local@VValue@v8@@@v8@@PAUeBaton@@@Z$0 1003ebf0 f   njsConnection.obj
 0001:0003dbf8       __ehhandler$?GetOutBinds@Connection@@CA?AV?$Local@VValue@v8@@@v8@@PAUeBaton@@@Z 1003ebf8 f   njsConnection.obj
 0001:0003dc20       __unwindfunclet$?GetOutBindArray@Connection@@CA?AV?$Local@VValue@v8@@@v8@@PAUeBaton@@@Z$1 1003ec20 f   njsConnection.obj
 0001:0003dc28       __unwindfunclet$?GetOutBindArray@Connection@@CA?AV?$Local@VValue@v8@@@v8@@PAUeBaton@@@Z$2 1003ec28 f   njsConnection.obj
 0001:0003dc30       __ehhandler$?GetOutBindArray@Connection@@CA?AV?$Local@VValue@v8@@@v8@@PAUeBaton@@@Z 1003ec30 f   njsConnection.obj
 0001:0003dc50       __unwindfunclet$?GetOutBindObject@Connection@@CA?AV?$Local@VValue@v8@@@v8@@PAUeBaton@@@Z$1 1003ec50 f   njsConnection.obj
 0001:0003dc58       __unwindfunclet$?GetOutBindObject@Connection@@CA?AV?$Local@VValue@v8@@@v8@@PAUeBaton@@@Z$2 1003ec58 f   njsConnection.obj
 0001:0003dc60       __ehhandler$?GetOutBindObject@Connection@@CA?AV?$Local@VValue@v8@@@v8@@PAUeBaton@@@Z 1003ec60 f   njsConnection.obj
 0001:0003dc80       __unwindfunclet$?Release@Connection@@CAXABV?$FunctionCallbackInfo@VValue@v8@@@Nan@@@Z$2 1003ec80 f   njsConnection.obj
 0001:0003dc8b       __unwindfunclet$?Release@Connection@@CAXABV?$FunctionCallbackInfo@VValue@v8@@@Nan@@@Z$3 1003ec8b f   njsConnection.obj
 0001:0003dc93       __unwindfunclet$?Release@Connection@@CAXABV?$FunctionCallbackInfo@VValue@v8@@@Nan@@@Z$5 1003ec93 f   njsConnection.obj
 0001:0003dc9b       __unwindfunclet$?Release@Connection@@CAXABV?$FunctionCallbackInfo@VValue@v8@@@Nan@@@Z$6 1003ec9b f   njsConnection.obj
 0001:0003dca9       __unwindfunclet$?Release@Connection@@CAXABV?$FunctionCallbackInfo@VValue@v8@@@Nan@@@Z$12 1003eca9 f   njsConnection.obj
 0001:0003dcb1       __ehhandler$?Release@Connection@@CAXABV?$FunctionCallbackInfo@VValue@v8@@@Nan@@@Z 1003ecb1 f   njsConnection.obj
 0001:0003dce0       __unwindfunclet$?Async_Release@Connection@@CAXPAUuv_work_s@@@Z$3 1003ece0 f   njsConnection.obj
 0001:0003dce8       __ehhandler$?Async_Release@Connection@@CAXPAUuv_work_s@@@Z 1003ece8 f   njsConnection.obj
 0001:0003dd10       __unwindfunclet$?Async_AfterRelease@Connection@@CAXPAUuv_work_s@@@Z$0 1003ed10 f   njsConnection.obj
 0001:0003dd18       __unwindfunclet$?Async_AfterRelease@Connection@@CAXPAUuv_work_s@@@Z$1 1003ed18 f   njsConnection.obj
 0001:0003dd20       __ehhandler$?Async_AfterRelease@Connection@@CAXPAUuv_work_s@@@Z 1003ed20 f   njsConnection.obj
 0001:0003dd50       __unwindfunclet$?Break@Connection@@CAXABV?$FunctionCallbackInfo@VValue@v8@@@Nan@@@Z$2 1003ed50 f   njsConnection.obj
 0001:0003dd50       __unwindfunclet$?Rollback@Connection@@CAXABV?$FunctionCallbackInfo@VValue@v8@@@Nan@@@Z$2 1003ed50 f   njsConnection.obj
 0001:0003dd50       __unwindfunclet$?Commit@Connection@@CAXABV?$FunctionCallbackInfo@VValue@v8@@@Nan@@@Z$2 1003ed50 f   njsConnection.obj
 0001:0003dd50       __unwindfunclet$?Write@ILob@@CAXABV?$FunctionCallbackInfo@VValue@v8@@@Nan@@@Z$3 1003ed50 f   njsIntLob.obj
 0001:0003dd50       __unwindfunclet$?Read@ILob@@CAXABV?$FunctionCallbackInfo@VValue@v8@@@Nan@@@Z$3 1003ed50 f   njsIntLob.obj
 0001:0003dd50       __unwindfunclet$?Close@ResultSet@@CAXABV?$FunctionCallbackInfo@VValue@v8@@@Nan@@@Z$4 1003ed50 f   njsResultSet.obj
 0001:0003dd58       __unwindfunclet$?Rollback@Connection@@CAXABV?$FunctionCallbackInfo@VValue@v8@@@Nan@@@Z$4 1003ed58 f   njsConnection.obj
 0001:0003dd58       __unwindfunclet$?Break@Connection@@CAXABV?$FunctionCallbackInfo@VValue@v8@@@Nan@@@Z$4 1003ed58 f   njsConnection.obj
 0001:0003dd58       __unwindfunclet$?Close@ResultSet@@CAXABV?$FunctionCallbackInfo@VValue@v8@@@Nan@@@Z$6 1003ed58 f   njsResultSet.obj
 0001:0003dd58       __unwindfunclet$?Read@ILob@@CAXABV?$FunctionCallbackInfo@VValue@v8@@@Nan@@@Z$5 1003ed58 f   njsIntLob.obj
 0001:0003dd58       __unwindfunclet$?Write@ILob@@CAXABV?$FunctionCallbackInfo@VValue@v8@@@Nan@@@Z$5 1003ed58 f   njsIntLob.obj
 0001:0003dd58       __unwindfunclet$?Commit@Connection@@CAXABV?$FunctionCallbackInfo@VValue@v8@@@Nan@@@Z$4 1003ed58 f   njsConnection.obj
 0001:0003dd60       __unwindfunclet$?Read@ILob@@CAXABV?$FunctionCallbackInfo@VValue@v8@@@Nan@@@Z$6 1003ed60 f   njsIntLob.obj
 0001:0003dd60       __unwindfunclet$?Write@ILob@@CAXABV?$FunctionCallbackInfo@VValue@v8@@@Nan@@@Z$6 1003ed60 f   njsIntLob.obj
 0001:0003dd60       __unwindfunclet$?Commit@Connection@@CAXABV?$FunctionCallbackInfo@VValue@v8@@@Nan@@@Z$5 1003ed60 f   njsConnection.obj
 0001:0003dd60       __unwindfunclet$?Rollback@Connection@@CAXABV?$FunctionCallbackInfo@VValue@v8@@@Nan@@@Z$5 1003ed60 f   njsConnection.obj
 0001:0003dd60       __unwindfunclet$?Close@ResultSet@@CAXABV?$FunctionCallbackInfo@VValue@v8@@@Nan@@@Z$7 1003ed60 f   njsResultSet.obj
 0001:0003dd60       __unwindfunclet$?Break@Connection@@CAXABV?$FunctionCallbackInfo@VValue@v8@@@Nan@@@Z$5 1003ed60 f   njsConnection.obj
 0001:0003dd6b       __unwindfunclet$?Write@ILob@@CAXABV?$FunctionCallbackInfo@VValue@v8@@@Nan@@@Z$10 1003ed6b f   njsIntLob.obj
 0001:0003dd6b       __unwindfunclet$?Rollback@Connection@@CAXABV?$FunctionCallbackInfo@VValue@v8@@@Nan@@@Z$8 1003ed6b f   njsConnection.obj
 0001:0003dd6b       __unwindfunclet$?Read@ILob@@CAXABV?$FunctionCallbackInfo@VValue@v8@@@Nan@@@Z$10 1003ed6b f   njsIntLob.obj
 0001:0003dd6b       __unwindfunclet$?Commit@Connection@@CAXABV?$FunctionCallbackInfo@VValue@v8@@@Nan@@@Z$8 1003ed6b f   njsConnection.obj
 0001:0003dd6b       __unwindfunclet$?Close@ResultSet@@CAXABV?$FunctionCallbackInfo@VValue@v8@@@Nan@@@Z$12 1003ed6b f   njsResultSet.obj
 0001:0003dd6b       __unwindfunclet$?Break@Connection@@CAXABV?$FunctionCallbackInfo@VValue@v8@@@Nan@@@Z$8 1003ed6b f   njsConnection.obj
 0001:0003dd73       __ehhandler$?Write@ILob@@CAXABV?$FunctionCallbackInfo@VValue@v8@@@Nan@@@Z 1003ed73 f   njsIntLob.obj
 0001:0003dd73       __ehhandler$?Commit@Connection@@CAXABV?$FunctionCallbackInfo@VValue@v8@@@Nan@@@Z 1003ed73 f   njsConnection.obj
 0001:0003dd73       __ehhandler$?Rollback@Connection@@CAXABV?$FunctionCallbackInfo@VValue@v8@@@Nan@@@Z 1003ed73 f   njsConnection.obj
 0001:0003dd73       __ehhandler$?Close@ResultSet@@CAXABV?$FunctionCallbackInfo@VValue@v8@@@Nan@@@Z 1003ed73 f   njsResultSet.obj
 0001:0003dd73       __ehhandler$?Break@Connection@@CAXABV?$FunctionCallbackInfo@VValue@v8@@@Nan@@@Z 1003ed73 f   njsConnection.obj
 0001:0003dd73       __ehhandler$?Read@ILob@@CAXABV?$FunctionCallbackInfo@VValue@v8@@@Nan@@@Z 1003ed73 f   njsIntLob.obj
 0001:0003dda0       __ehhandler$?Async_Commit@Connection@@CAXPAUuv_work_s@@@Z 1003eda0 f   njsConnection.obj
 0001:0003ddd0       __ehhandler$?Async_Rollback@Connection@@CAXPAUuv_work_s@@@Z 1003edd0 f   njsConnection.obj
 0001:0003de00       __ehhandler$?Async_Break@Connection@@CAXPAUuv_work_s@@@Z 1003ee00 f   njsConnection.obj
 0001:0003de30       __unwindfunclet$?CreateLob@Connection@@CAXABV?$FunctionCallbackInfo@VValue@v8@@@Nan@@@Z$4 1003ee30 f   njsConnection.obj
 0001:0003de38       __unwindfunclet$?CreateLob@Connection@@CAXABV?$FunctionCallbackInfo@VValue@v8@@@Nan@@@Z$6 1003ee38 f   njsConnection.obj
 0001:0003de40       __unwindfunclet$?CreateLob@Connection@@CAXABV?$FunctionCallbackInfo@VValue@v8@@@Nan@@@Z$7 1003ee40 f   njsConnection.obj
 0001:0003de4b       __unwindfunclet$?CreateLob@Connection@@CAXABV?$FunctionCallbackInfo@VValue@v8@@@Nan@@@Z$14 1003ee4b f   njsConnection.obj
 0001:0003de53       __ehhandler$?CreateLob@Connection@@CAXABV?$FunctionCallbackInfo@VValue@v8@@@Nan@@@Z 1003ee53 f   njsConnection.obj
 0001:0003de80       __ehhandler$?Async_CreateLob@Connection@@CAXPAUuv_work_s@@@Z 1003ee80 f   njsConnection.obj
 0001:0003deb0       __unwindfunclet$?Async_AfterCreateLob@Connection@@CAXPAUuv_work_s@@@Z$0 1003eeb0 f   njsConnection.obj
 0001:0003deb8       __unwindfunclet$?Async_AfterCreateLob@Connection@@CAXPAUuv_work_s@@@Z$1 1003eeb8 f   njsConnection.obj
 0001:0003dec0       __unwindfunclet$?Async_AfterCreateLob@Connection@@CAXPAUuv_work_s@@@Z$3 1003eec0 f   njsConnection.obj
 0001:0003decb       __ehhandler$?Async_AfterCreateLob@Connection@@CAXPAUuv_work_s@@@Z 1003eecb f   njsConnection.obj
 0001:0003def0       __unwindfunclet$?cbDynBufferAllocate@Connection@@CAXPAX_NII@Z$37 1003eef0 f   njsConnection.obj
 0001:0003defb       __ehhandler$?cbDynBufferAllocate@Connection@@CAXPAX_NII@Z 1003eefb f   njsConnection.obj
 0001:0003df30       __unwindfunclet$?NewLob@Connection@@CA?AV?$Local@VValue@v8@@@v8@@PAUeBaton@@PAVProtoILob@@_N@Z$0 1003ef30 f   njsConnection.obj
 0001:0003df38       __ehhandler$?NewLob@Connection@@CA?AV?$Local@VValue@v8@@@v8@@PAUeBaton@@PAVProtoILob@@_N@Z 1003ef38 f   njsConnection.obj
 0001:0003df60       __unwindfunclet$??0rsBaton@@QAE@AAIV?$Local@VFunction@v8@@@v8@@V?$Local@VObject@v8@@@2@2@Z$0 1003ef60 f   njsResultSet.obj
 0001:0003df6b       __unwindfunclet$??0rsBaton@@QAE@AAIV?$Local@VFunction@v8@@@v8@@V?$Local@VObject@v8@@@2@2@Z$1 1003ef6b f   njsResultSet.obj
 0001:0003df70       __unwindfunclet$??0rsBaton@@QAE@AAIV?$Local@VFunction@v8@@@v8@@V?$Local@VObject@v8@@@2@2@Z$2 1003ef70 f   njsResultSet.obj
 0001:0003df7b       __ehhandler$??0rsBaton@@QAE@AAIV?$Local@VFunction@v8@@@v8@@V?$Local@VObject@v8@@@2@2@Z 1003ef7b f   njsResultSet.obj
 0001:0003dfa0       __unwindfunclet$??1rsBaton@@QAE@XZ$0 1003efa0 f   njsResultSet.obj
 0001:0003dfab       __unwindfunclet$??1rsBaton@@QAE@XZ$1 1003efab f   njsResultSet.obj
 0001:0003dfb0       __ehhandler$??1rsBaton@@QAE@XZ 1003efb0 f   njsResultSet.obj
 0001:0003dfd0       __unwindfunclet$??_GResultSet@@UAEPAXI@Z$0 1003efd0 f   njsResultSet.obj
 0001:0003dfd8       __unwindfunclet$??_GResultSet@@UAEPAXI@Z$1 1003efd8 f   njsResultSet.obj
 0001:0003dfe3       __ehhandler$??_GResultSet@@UAEPAXI@Z 1003efe3 f   njsResultSet.obj
 0001:0003e000       __unwindfunclet$?setResultSet@ResultSet@@QAEXPAVStmt@dpi@@PAUeBaton@@IPBUMetaInfo@@@Z$1 1003f000 f   njsResultSet.obj
 0001:0003e00b       __ehhandler$?setResultSet@ResultSet@@QAEXPAVStmt@dpi@@PAUeBaton@@IPBUMetaInfo@@@Z 1003f00b f   njsResultSet.obj
 0001:0003e040       __unwindfunclet$?GetMetaData@ResultSet@@CAXV?$Local@VString@v8@@@v8@@ABV?$PropertyCallbackInfo@VValue@v8@@@Nan@@@Z$0 1003f040 f   njsResultSet.obj
 0001:0003e040       __unwindfunclet$?Release@ILob@@CAXABV?$FunctionCallbackInfo@VValue@v8@@@Nan@@@Z$0 1003f040 f   njsIntLob.obj
 0001:0003e048       __unwindfunclet$?Release@ILob@@CAXABV?$FunctionCallbackInfo@VValue@v8@@@Nan@@@Z$1 1003f048 f   njsIntLob.obj
 0001:0003e048       __unwindfunclet$?GetMetaData@ResultSet@@CAXV?$Local@VString@v8@@@v8@@ABV?$PropertyCallbackInfo@VValue@v8@@@Nan@@@Z$1 1003f048 f   njsResultSet.obj
 0001:0003e050       __ehhandler$?Release@ILob@@CAXABV?$FunctionCallbackInfo@VValue@v8@@@Nan@@@Z 1003f050 f   njsIntLob.obj
 0001:0003e050       __ehhandler$?GetMetaData@ResultSet@@CAXV?$Local@VString@v8@@@v8@@ABV?$PropertyCallbackInfo@VValue@v8@@@Nan@@@Z 1003f050 f   njsResultSet.obj
 0001:0003e080       __unwindfunclet$?SetMetaData@ResultSet@@CAXV?$Local@VString@v8@@@v8@@V?$Local@VValue@v8@@@3@ABV?$PropertyCallbackInfo@X@Nan@@@Z$0 1003f080 f   njsResultSet.obj
 0001:0003e088       __unwindfunclet$?SetMetaData@ResultSet@@CAXV?$Local@VString@v8@@@v8@@V?$Local@VValue@v8@@@3@ABV?$PropertyCallbackInfo@X@Nan@@@Z$1 1003f088 f   njsResultSet.obj
 0001:0003e090       __ehhandler$?SetMetaData@ResultSet@@CAXV?$Local@VString@v8@@@v8@@V?$Local@VValue@v8@@@3@ABV?$PropertyCallbackInfo@X@Nan@@@Z 1003f090 f   njsResultSet.obj
 0001:0003e0c0       __unwindfunclet$?GetRow@ResultSet@@CAXABV?$FunctionCallbackInfo@VValue@v8@@@Nan@@@Z$3 1003f0c0 f   njsResultSet.obj
 0001:0003e0c8       __unwindfunclet$?GetRow@ResultSet@@CAXABV?$FunctionCallbackInfo@VValue@v8@@@Nan@@@Z$5 1003f0c8 f   njsResultSet.obj
 0001:0003e0d0       __unwindfunclet$?GetRow@ResultSet@@CAXABV?$FunctionCallbackInfo@VValue@v8@@@Nan@@@Z$6 1003f0d0 f   njsResultSet.obj
 0001:0003e0db       __ehhandler$?GetRow@ResultSet@@CAXABV?$FunctionCallbackInfo@VValue@v8@@@Nan@@@Z 1003f0db f   njsResultSet.obj
 0001:0003e110       __unwindfunclet$?GetRows@ResultSet@@CAXABV?$FunctionCallbackInfo@VValue@v8@@@Nan@@@Z$5 1003f110 f   njsResultSet.obj
 0001:0003e118       __unwindfunclet$?GetRows@ResultSet@@CAXABV?$FunctionCallbackInfo@VValue@v8@@@Nan@@@Z$7 1003f118 f   njsResultSet.obj
 0001:0003e120       __unwindfunclet$?GetRows@ResultSet@@CAXABV?$FunctionCallbackInfo@VValue@v8@@@Nan@@@Z$8 1003f120 f   njsResultSet.obj
 0001:0003e12b       __ehhandler$?GetRows@ResultSet@@CAXABV?$FunctionCallbackInfo@VValue@v8@@@Nan@@@Z 1003f12b f   njsResultSet.obj
 0001:0003e160       __unwindfunclet$?GetRowsCommon@ResultSet@@CAXPAUrsBaton@@@Z$3 1003f160 f   njsResultSet.obj
 0001:0003e168       __ehhandler$?GetRowsCommon@ResultSet@@CAXPAUrsBaton@@@Z 1003f168 f   njsResultSet.obj
 0001:0003e190       __ehhandler$?Async_GetRows@ResultSet@@CAXPAUuv_work_s@@@Z 1003f190 f   njsResultSet.obj
 0001:0003e1c0       __ehhandler$?Async_Close@ResultSet@@CAXPAUuv_work_s@@@Z 1003f1c0 f   njsResultSet.obj
 0001:0003e1f0       __unwindfunclet$?getErrorMsg@NJSMessages@@SA?AV?$basic_string@DU?$char_traits@D@std@@V?$allocator@D@2@@std@@W4NJSErrorType@@ZZ$0 1003f1f0 f   njsMessages.obj
 0001:0003e212       __ehhandler$?getErrorMsg@NJSMessages@@SA?AV?$basic_string@DU?$char_traits@D@std@@V?$allocator@D@2@@std@@W4NJSErrorType@@ZZ 1003f212 f   njsMessages.obj
 0001:0003e240       __unwindfunclet$??0LobBaton@@QAE@AAIV?$Local@VFunction@v8@@@v8@@V?$Local@VObject@v8@@@2@@Z$0 1003f240 f   njsIntLob.obj
 0001:0003e240       __unwindfunclet$??1LobBaton@@QAE@XZ$0 1003f240 f   njsIntLob.obj
 0001:0003e24b       __unwindfunclet$??1LobBaton@@QAE@XZ$1 1003f24b f   njsIntLob.obj
 0001:0003e24b       __unwindfunclet$??0LobBaton@@QAE@AAIV?$Local@VFunction@v8@@@v8@@V?$Local@VObject@v8@@@2@@Z$1 1003f24b f   njsIntLob.obj
 0001:0003e259       __unwindfunclet$??1LobBaton@@QAE@XZ$2 1003f259 f   njsIntLob.obj
 0001:0003e259       __unwindfunclet$??0LobBaton@@QAE@AAIV?$Local@VFunction@v8@@@v8@@V?$Local@VObject@v8@@@2@@Z$2 1003f259 f   njsIntLob.obj
 0001:0003e25e       __unwindfunclet$??1LobBaton@@QAE@XZ$3 1003f25e f   njsIntLob.obj
 0001:0003e25e       __unwindfunclet$??0LobBaton@@QAE@AAIV?$Local@VFunction@v8@@@v8@@V?$Local@VObject@v8@@@2@@Z$3 1003f25e f   njsIntLob.obj
 0001:0003e263       __unwindfunclet$??1LobBaton@@QAE@XZ$4 1003f263 f   njsIntLob.obj
 0001:0003e263       __unwindfunclet$??0LobBaton@@QAE@AAIV?$Local@VFunction@v8@@@v8@@V?$Local@VObject@v8@@@2@@Z$4 1003f263 f   njsIntLob.obj
 0001:0003e268       __ehhandler$??0LobBaton@@QAE@AAIV?$Local@VFunction@v8@@@v8@@V?$Local@VObject@v8@@@2@@Z 1003f268 f   njsIntLob.obj
 0001:0003e268       __ehhandler$??1LobBaton@@QAE@XZ 1003f268 f   njsIntLob.obj
 0001:0003e290       __unwindfunclet$??0LobBaton@@QAE@AAIV?$Local@VObject@v8@@@v8@@V?$Local@VFunction@v8@@@2@1@Z$0 1003f290 f   njsIntLob.obj
 0001:0003e29b       __unwindfunclet$??0LobBaton@@QAE@AAIV?$Local@VObject@v8@@@v8@@V?$Local@VFunction@v8@@@2@1@Z$1 1003f29b f   njsIntLob.obj
 0001:0003e2a9       __unwindfunclet$??0LobBaton@@QAE@AAIV?$Local@VObject@v8@@@v8@@V?$Local@VFunction@v8@@@2@1@Z$2 1003f2a9 f   njsIntLob.obj
 0001:0003e2ae       __unwindfunclet$??0LobBaton@@QAE@AAIV?$Local@VObject@v8@@@v8@@V?$Local@VFunction@v8@@@2@1@Z$3 1003f2ae f   njsIntLob.obj
 0001:0003e2b3       __unwindfunclet$??0LobBaton@@QAE@AAIV?$Local@VObject@v8@@@v8@@V?$Local@VFunction@v8@@@2@1@Z$4 1003f2b3 f   njsIntLob.obj
 0001:0003e2b8       __ehhandler$??0LobBaton@@QAE@AAIV?$Local@VObject@v8@@@v8@@V?$Local@VFunction@v8@@@2@1@Z 1003f2b8 f   njsIntLob.obj
 0001:0003e2e0       __unwindfunclet$??1ILob@@EAE@XZ$0 1003f2e0 f   njsIntLob.obj
 0001:0003e2e8       __unwindfunclet$??1ILob@@EAE@XZ$1 1003f2e8 f   njsIntLob.obj
 0001:0003e2ed       __ehhandler$??1ILob@@EAE@XZ 1003f2ed f   njsIntLob.obj
 0001:0003e310       __ehhandler$?cleanupDPI@ILob@@QAEXXZ 1003f310 f   njsIntLob.obj
 0001:0003e330       __ehhandler$?setILob@ILob@@QAEXPAUeBaton@@PAVProtoILob@@_N@Z 1003f330 f   njsIntLob.obj
 0001:0003e360       __unwindfunclet$?Close@ILob@@CAXABV?$FunctionCallbackInfo@VValue@v8@@@Nan@@@Z$3 1003f360 f   njsIntLob.obj
 0001:0003e368       __unwindfunclet$?Close@ILob@@CAXABV?$FunctionCallbackInfo@VValue@v8@@@Nan@@@Z$4 1003f368 f   njsIntLob.obj
 0001:0003e370       __unwindfunclet$?Close@ILob@@CAXABV?$FunctionCallbackInfo@VValue@v8@@@Nan@@@Z$6 1003f370 f   njsIntLob.obj
 0001:0003e378       __unwindfunclet$?Close@ILob@@CAXABV?$FunctionCallbackInfo@VValue@v8@@@Nan@@@Z$7 1003f378 f   njsIntLob.obj
 0001:0003e383       __unwindfunclet$?Close@ILob@@CAXABV?$FunctionCallbackInfo@VValue@v8@@@Nan@@@Z$11 1003f383 f   njsIntLob.obj
 0001:0003e38b       __ehhandler$?Close@ILob@@CAXABV?$FunctionCallbackInfo@VValue@v8@@@Nan@@@Z 1003f38b f   njsIntLob.obj
 0001:0003e3c0       __unwindfunclet$?GetChunkSize@ILob@@CAXV?$Local@VString@v8@@@v8@@ABV?$PropertyCallbackInfo@VValue@v8@@@Nan@@@Z$2 1003f3c0 f   njsIntLob.obj
 0001:0003e3c8       __unwindfunclet$?GetChunkSize@ILob@@CAXV?$Local@VString@v8@@@v8@@ABV?$PropertyCallbackInfo@VValue@v8@@@Nan@@@Z$3 1003f3c8 f   njsIntLob.obj
 0001:0003e3d0       __ehhandler$?GetChunkSize@ILob@@CAXV?$Local@VString@v8@@@v8@@ABV?$PropertyCallbackInfo@VValue@v8@@@Nan@@@Z 1003f3d0 f   njsIntLob.obj
 0001:0003e400       __unwindfunclet$?GetLength@ILob@@CAXV?$Local@VString@v8@@@v8@@ABV?$PropertyCallbackInfo@VValue@v8@@@Nan@@@Z$2 1003f400 f   njsIntLob.obj
 0001:0003e408       __unwindfunclet$?GetLength@ILob@@CAXV?$Local@VString@v8@@@v8@@ABV?$PropertyCallbackInfo@VValue@v8@@@Nan@@@Z$3 1003f408 f   njsIntLob.obj
 0001:0003e410       __ehhandler$?GetLength@ILob@@CAXV?$Local@VString@v8@@@v8@@ABV?$PropertyCallbackInfo@VValue@v8@@@Nan@@@Z 1003f410 f   njsIntLob.obj
 0001:0003e440       __unwindfunclet$?GetPieceSize@ILob@@CAXV?$Local@VString@v8@@@v8@@ABV?$PropertyCallbackInfo@VValue@v8@@@Nan@@@Z$2 1003f440 f   njsIntLob.obj
 0001:0003e448       __unwindfunclet$?GetPieceSize@ILob@@CAXV?$Local@VString@v8@@@v8@@ABV?$PropertyCallbackInfo@VValue@v8@@@Nan@@@Z$3 1003f448 f   njsIntLob.obj
 0001:0003e450       __ehhandler$?GetPieceSize@ILob@@CAXV?$Local@VString@v8@@@v8@@ABV?$PropertyCallbackInfo@VValue@v8@@@Nan@@@Z 1003f450 f   njsIntLob.obj
 0001:0003e480       __unwindfunclet$?SetPieceSize@ILob@@CAXV?$Local@VString@v8@@@v8@@V?$Local@VValue@v8@@@3@ABV?$PropertyCallbackInfo@X@Nan@@@Z$2 1003f480 f   njsIntLob.obj
 0001:0003e488       __unwindfunclet$?SetPieceSize@ILob@@CAXV?$Local@VString@v8@@@v8@@V?$Local@VValue@v8@@@3@ABV?$PropertyCallbackInfo@X@Nan@@@Z$3 1003f488 f   njsIntLob.obj
 0001:0003e490       __unwindfunclet$?SetPieceSize@ILob@@CAXV?$Local@VString@v8@@@v8@@V?$Local@VValue@v8@@@3@ABV?$PropertyCallbackInfo@X@Nan@@@Z$4 1003f490 f   njsIntLob.obj
 0001:0003e498       __ehhandler$?SetPieceSize@ILob@@CAXV?$Local@VString@v8@@@v8@@V?$Local@VValue@v8@@@3@ABV?$PropertyCallbackInfo@X@Nan@@@Z 1003f498 f   njsIntLob.obj
 0001:0003e4c0       __unwindfunclet$?GetOffset@ILob@@CAXV?$Local@VString@v8@@@v8@@ABV?$PropertyCallbackInfo@VValue@v8@@@Nan@@@Z$2 1003f4c0 f   njsIntLob.obj
 0001:0003e4c8       __unwindfunclet$?GetOffset@ILob@@CAXV?$Local@VString@v8@@@v8@@ABV?$PropertyCallbackInfo@VValue@v8@@@Nan@@@Z$3 1003f4c8 f   njsIntLob.obj
 0001:0003e4d0       __ehhandler$?GetOffset@ILob@@CAXV?$Local@VString@v8@@@v8@@ABV?$PropertyCallbackInfo@VValue@v8@@@Nan@@@Z 1003f4d0 f   njsIntLob.obj
 0001:0003e500       __unwindfunclet$?SetOffset@ILob@@CAXV?$Local@VString@v8@@@v8@@V?$Local@VValue@v8@@@3@ABV?$PropertyCallbackInfo@X@Nan@@@Z$0 1003f500 f   njsIntLob.obj
 0001:0003e508       __unwindfunclet$?SetOffset@ILob@@CAXV?$Local@VString@v8@@@v8@@V?$Local@VValue@v8@@@3@ABV?$PropertyCallbackInfo@X@Nan@@@Z$1 1003f508 f   njsIntLob.obj
 0001:0003e510       __unwindfunclet$?SetOffset@ILob@@CAXV?$Local@VString@v8@@@v8@@V?$Local@VValue@v8@@@3@ABV?$PropertyCallbackInfo@X@Nan@@@Z$2 1003f510 f   njsIntLob.obj
 0001:0003e518       __unwindfunclet$?SetOffset@ILob@@CAXV?$Local@VString@v8@@@v8@@V?$Local@VValue@v8@@@3@ABV?$PropertyCallbackInfo@X@Nan@@@Z$4 1003f518 f   njsIntLob.obj
 0001:0003e520       __ehhandler$?SetOffset@ILob@@CAXV?$Local@VString@v8@@@v8@@V?$Local@VValue@v8@@@3@ABV?$PropertyCallbackInfo@X@Nan@@@Z 1003f520 f   njsIntLob.obj
 0001:0003e550       __unwindfunclet$?GetType@ILob@@CAXV?$Local@VString@v8@@@v8@@ABV?$PropertyCallbackInfo@VValue@v8@@@Nan@@@Z$2 1003f550 f   njsIntLob.obj
 0001:0003e558       __ehhandler$?GetType@ILob@@CAXV?$Local@VString@v8@@@v8@@ABV?$PropertyCallbackInfo@VValue@v8@@@Nan@@@Z 1003f558 f   njsIntLob.obj
 0001:0003e580       __ehhandler$?Async_Read@ILob@@CAXPAUuv_work_s@@@Z 1003f580 f   njsIntLob.obj
 0001:0003e5b0       __ehhandler$?Async_Write@ILob@@CAXPAUuv_work_s@@@Z 1003f5b0 f   njsIntLob.obj
 0001:0003e5e0       __ehhandler$??0ProtoILob@@QAE@PAUeBaton@@PAUDescriptor@dpi@@G@Z 1003f5e0 f   njsIntLob.obj
 0001:0003e610       __unwindfunclet$??0EnvImpl@@QAE@ABV?$basic_string@DU?$char_traits@D@std@@V?$allocator@D@2@@std@@II@Z$2 1003f610 f   dpiEnvImpl.obj
 0001:0003e618       __unwindfunclet$??0EnvImpl@@QAE@ABV?$basic_string@DU?$char_traits@D@std@@V?$allocator@D@2@@std@@II@Z$3 1003f618 f   dpiEnvImpl.obj
 0001:0003e623       __ehhandler$??0EnvImpl@@QAE@ABV?$basic_string@DU?$char_traits@D@std@@V?$allocator@D@2@@std@@II@Z 1003f623 f   dpiEnvImpl.obj
 0001:0003e650       __unwindfunclet$??0ExceptionImpl@@QAE@ABV0@@Z$0 1003f650 f   dpiEnvImpl.obj
 0001:0003e658       __unwindfunclet$??0ExceptionImpl@@QAE@ABV0@@Z$1 1003f658 f   dpiEnvImpl.obj
 0001:0003e663       __ehhandler$??0ExceptionImpl@@QAE@ABV0@@Z 1003f663 f   dpiEnvImpl.obj
 0001:0003e680       __unwindfunclet$?createPool@EnvImpl@@UAEPAVSPool@dpi@@ABV?$basic_string@DU?$char_traits@D@std@@V?$allocator@D@2@@std@@00HHHHH_N1H@Z$0 1003f680 f   dpiEnvImpl.obj
 0001:0003e68b       __ehhandler$?createPool@EnvImpl@@UAEPAVSPool@dpi@@ABV?$basic_string@DU?$char_traits@D@std@@V?$allocator@D@2@@std@@00HHHHH_N1H@Z 1003f68b f   dpiEnvImpl.obj
 0001:0003e6b0       __unwindfunclet$?getConnection@PoolImpl@@UAEPAVConn@dpi@@ABV?$basic_string@DU?$char_traits@D@std@@V?$allocator@D@2@@std@@000HW4DBPrivileges@3@@Z$0 1003f6b0 f   dpiPoolImpl.obj
 0001:0003e6b0       __unwindfunclet$?getConnection@EnvImpl@@UAEPAVConn@dpi@@ABV?$basic_string@DU?$char_traits@D@std@@V?$allocator@D@2@@std@@00H0_NW4DBPrivileges@3@@Z$0 1003f6b0 f   dpiEnvImpl.obj
 0001:0003e6b0       __unwindfunclet$?getStmt@ConnImpl@@UAEPAVStmt@dpi@@ABV?$basic_string@DU?$char_traits@D@std@@V?$allocator@D@2@@std@@@Z$0 1003f6b0 f   dpiConnImpl.obj
 0001:0003e6bb       __ehhandler$?getStmt@ConnImpl@@UAEPAVStmt@dpi@@ABV?$basic_string@DU?$char_traits@D@std@@V?$allocator@D@2@@std@@@Z 1003f6bb f   dpiConnImpl.obj
 0001:0003e6bb       __ehhandler$?getConnection@EnvImpl@@UAEPAVConn@dpi@@ABV?$basic_string@DU?$char_traits@D@std@@V?$allocator@D@2@@std@@00H0_NW4DBPrivileges@3@@Z 1003f6bb f   dpiEnvImpl.obj
 0001:0003e6bb       __ehhandler$?getConnection@PoolImpl@@UAEPAVConn@dpi@@ABV?$basic_string@DU?$char_traits@D@std@@V?$allocator@D@2@@std@@000HW4DBPrivileges@3@@Z 1003f6bb f   dpiPoolImpl.obj
 0001:0003e6e0       __unwindfunclet$??0ExceptionImpl@@QAE@W4DpiError@dpi@@@Z$0 1003f6e0 f   dpiExceptionImpl.obj
 0001:0003e6eb       __unwindfunclet$??0ExceptionImpl@@QAE@W4DpiError@dpi@@@Z$1 1003f6eb f   dpiExceptionImpl.obj
 0001:0003e6f9       __unwindfunclet$??0ExceptionImpl@@QAE@W4DpiError@dpi@@@Z$2 1003f6f9 f   dpiExceptionImpl.obj
 0001:0003e707       __unwindfunclet$??0ExceptionImpl@@QAE@W4DpiError@dpi@@@Z$3 1003f707 f   dpiExceptionImpl.obj
 0001:0003e712       __ehhandler$??0ExceptionImpl@@QAE@W4DpiError@dpi@@@Z 1003f712 f   dpiExceptionImpl.obj
 0001:0003e740       __unwindfunclet$??0ExceptionImpl@@QAE@PBDH0@Z$0 1003f740 f   dpiExceptionImpl.obj
 0001:0003e748       __unwindfunclet$??0ExceptionImpl@@QAE@PBDH0@Z$1 1003f748 f   dpiExceptionImpl.obj
 0001:0003e753       __ehhandler$??0ExceptionImpl@@QAE@PBDH0@Z 1003f753 f   dpiExceptionImpl.obj
 0001:0003e770       __unwindfunclet$??0ConnImpl@@QAE@PAVEnvImpl@@PAUOCIEnv@@_NIABV?$basic_string@DU?$char_traits@D@std@@V?$allocator@D@2@@std@@333W4DBPrivileges@dpi@@@Z$2 1003f770 f   dpiConnImpl.obj
 0001:0003e778       __unwindfunclet$??0ConnImpl@@QAE@PAVEnvImpl@@PAUOCIEnv@@_NIABV?$basic_string@DU?$char_traits@D@std@@V?$allocator@D@2@@std@@333W4DBPrivileges@dpi@@@Z$3 1003f778 f   dpiConnImpl.obj
 0001:0003e783       __unwindfunclet$??0ConnImpl@@QAE@PAVEnvImpl@@PAUOCIEnv@@_NIABV?$basic_string@DU?$char_traits@D@std@@V?$allocator@D@2@@std@@333W4DBPrivileges@dpi@@@Z$4 1003f783 f   dpiConnImpl.obj
 0001:0003e78e       __unwindfunclet$??0ConnImpl@@QAE@PAVEnvImpl@@PAUOCIEnv@@_NIABV?$basic_string@DU?$char_traits@D@std@@V?$allocator@D@2@@std@@333W4DBPrivileges@dpi@@@Z$5 1003f78e f   dpiConnImpl.obj
 0001:0003e799       __unwindfunclet$??0ConnImpl@@QAE@PAVEnvImpl@@PAUOCIEnv@@_NIABV?$basic_string@DU?$char_traits@D@std@@V?$allocator@D@2@@std@@333W4DBPrivileges@dpi@@@Z$6 1003f799 f   dpiConnImpl.obj
 0001:0003e7a1       __ehhandler$??0ConnImpl@@QAE@PAVEnvImpl@@PAUOCIEnv@@_NIABV?$basic_string@DU?$char_traits@D@std@@V?$allocator@D@2@@std@@333W4DBPrivileges@dpi@@@Z 1003f7a1 f   dpiConnImpl.obj
 0001:0003e7d0       __unwindfunclet$??0ConnImpl@@QAE@PAVPoolImpl@@PAUOCIEnv@@_NPAEIABV?$basic_string@DU?$char_traits@D@std@@V?$allocator@D@2@@std@@444HW4DBPrivileges@dpi@@H@Z$2 1003f7d0 f   dpiConnImpl.obj
 0001:0003e7d8       __unwindfunclet$??0ConnImpl@@QAE@PAVPoolImpl@@PAUOCIEnv@@_NPAEIABV?$basic_string@DU?$char_traits@D@std@@V?$allocator@D@2@@std@@444HW4DBPrivileges@dpi@@H@Z$3 1003f7d8 f   dpiConnImpl.obj
 0001:0003e7e3       __unwindfunclet$??0ConnImpl@@QAE@PAVPoolImpl@@PAUOCIEnv@@_NPAEIABV?$basic_string@DU?$char_traits@D@std@@V?$allocator@D@2@@std@@444HW4DBPrivileges@dpi@@H@Z$4 1003f7e3 f   dpiConnImpl.obj
 0001:0003e7ee       __unwindfunclet$??0ConnImpl@@QAE@PAVPoolImpl@@PAUOCIEnv@@_NPAEIABV?$basic_string@DU?$char_traits@D@std@@V?$allocator@D@2@@std@@444HW4DBPrivileges@dpi@@H@Z$5 1003f7ee f   dpiConnImpl.obj
 0001:0003e7f9       __ehhandler$??0ConnImpl@@QAE@PAVPoolImpl@@PAUOCIEnv@@_NPAEIABV?$basic_string@DU?$char_traits@D@std@@V?$allocator@D@2@@std@@444HW4DBPrivileges@dpi@@H@Z 1003f7f9 f   dpiConnImpl.obj
 0001:0003e820       __unwindfunclet$??1ConnImpl@@UAE@XZ$0 1003f820 f   dpiConnImpl.obj
 0001:0003e828       __unwindfunclet$??1ConnImpl@@UAE@XZ$1 1003f828 f   dpiConnImpl.obj
 0001:0003e833       __unwindfunclet$??1ConnImpl@@UAE@XZ$2 1003f833 f   dpiConnImpl.obj
 0001:0003e83e       __unwindfunclet$??1ConnImpl@@UAE@XZ$3 1003f83e f   dpiConnImpl.obj
 0001:0003e849       __ehhandler$??1ConnImpl@@UAE@XZ 1003f849 f   dpiConnImpl.obj
 0001:0003e870       __unwindfunclet$??_GDateTimeArrayImpl@dpi@@UAEPAXI@Z$0 1003f870 f   dpiDateTimeArrayImpl.obj
 0001:0003e878       __ehhandler$??_GDateTimeArrayImpl@dpi@@UAEPAXI@Z 1003f878 f   dpiDateTimeArrayImpl.obj
 0001:0003e8a0       __unwindfunclet$??0PoolImpl@@QAE@PAVEnvImpl@@PAUOCIEnv@@ABV?$basic_string@DU?$char_traits@D@std@@V?$allocator@D@2@@std@@22HHHH_NH3H@Z$2 1003f8a0 f   dpiPoolImpl.obj
 0001:0003e8a8       __ehhandler$??0PoolImpl@@QAE@PAVEnvImpl@@PAUOCIEnv@@ABV?$basic_string@DU?$char_traits@D@std@@V?$allocator@D@2@@std@@22HHHH_NH3H@Z 1003f8a8 f   dpiPoolImpl.obj
 0001:0003e8d0       __unwindfunclet$??0StmtImpl@@QAE@PAUOCIEnv@@PAVConnImpl@@PAUOCISvcCtx@@ABV?$basic_string@DU?$char_traits@D@std@@V?$allocator@D@2@@std@@@Z$2 1003f8d0 f   dpiStmtImpl.obj
 0001:0003e8d8       __ehhandler$??0StmtImpl@@QAE@PAUOCIEnv@@PAVConnImpl@@PAUOCISvcCtx@@ABV?$basic_string@DU?$char_traits@D@std@@V?$allocator@D@2@@std@@@Z 1003f8d8 f   dpiStmtImpl.obj
 0001:0003e900       __unwindfunclet$??_GStmtImpl@@UAEPAXI@Z$0 1003f900 f   dpiStmtImpl.obj
 0001:0003e908       __ehhandler$??_GStmtImpl@@UAEPAXI@Z 1003f908 f   dpiStmtImpl.obj
 0001:0003e923       __unwindfunclet$?_Locimp_dtor@_Locimp@locale@std@@CAXPAV123@@Z$0 1003f923 f   libcpmt:locale0.obj
 0001:0003e923       __unwindfunclet$?_Init@locale@std@@CAPAV_Locimp@12@_N@Z$0 1003f923 f   libcpmt:locale0.obj
 0001:0003e92b       __ehhandler$?_Init@locale@std@@CAPAV_Locimp@12@_N@Z 1003f92b f   libcpmt:locale0.obj
 0001:0003e92b       __ehhandler$?_Locimp_dtor@_Locimp@locale@std@@CAXPAV123@@Z 1003f92b f   libcpmt:locale0.obj
 0001:0003e946       __ehhandler$?CallUnexpected@@YAXPBU_s_ESTypeList@@@Z 1003f946 f   LIBCMT:frame.obj
 0001:0003e970       ??__F?oracledbTemplate_s@Oracledb@@0V?$Persistent@VFunctionTemplate@v8@@V?$NonCopyablePersistentTraits@VFunctionTemplate@v8@@@2@@Nan@@A@@YAXXZ 1003f970 f   njsOracle.obj
 0001:0003e980       ??__F?poolTemplate_s@Pool@@2V?$Persistent@VFunctionTemplate@v8@@V?$NonCopyablePersistentTraits@VFunctionTemplate@v8@@@2@@Nan@@A@@YAXXZ 1003f980 f   njsPool.obj
 0001:0003e990       ??__F?connectionTemplate_s@Connection@@2V?$Persistent@VFunctionTemplate@v8@@V?$NonCopyablePersistentTraits@VFunctionTemplate@v8@@@2@@Nan@@A@@YAXXZ 1003f990 f   njsConnection.obj
 0001:0003e9a0       ??__F?resultSetTemplate_s@ResultSet@@2V?$Persistent@VFunctionTemplate@v8@@V?$NonCopyablePersistentTraits@VFunctionTemplate@v8@@@2@@Nan@@A@@YAXXZ 1003f9a0 f   njsResultSet.obj
 0001:0003e9b0       ??__F?iLobTemplate_s@ILob@@2V?$Persistent@VFunctionTemplate@v8@@V?$NonCopyablePersistentTraits@VFunctionTemplate@v8@@@2@@Nan@@A@@YAXXZ 1003f9b0 f   njsIntLob.obj
 0001:0003e9c0       ??__F?s_propPingName_@ConnImpl@@0V?$basic_string@DU?$char_traits@D@std@@V?$allocator@D@2@@std@@A@@YAXXZ 1003f9c0 f   dpiConnImpl.obj
 0001:0003ea18       ??__F_Fac_tidy_reg@std@@YAXXZ 1003fa18 f   libcpmt:locale0.obj
 0001:0003ea22       ??__Fclassic_locale@std@@YAXXZ 1003fa22 f   libcpmt:locale0.obj
 0001:0003ea2c       ??__Finitlocks@std@@YAXXZ  1003fa2c f   libcpmt:xlock.obj
 0001:0003ea36       ??__Finit_atexit@@YAXXZ    1003fa36 f   libcpmt:iosptrs.obj
 0001:0003ea40       ??__Finitlocks@std@@YAXXZ  1003fa40 f   libcpmt:iosptrs.obj
 0002:000001d8       _initlocks$initializer$    100401d8     libcpmt:xlock.obj
 0002:000001dc       _initlocks$initializer$    100401dc     libcpmt:iosptrs.obj
 0002:000001e0       _init_atexit$initializer$  100401e0     libcpmt:iosptrs.obj
 0002:000001e4       __Fac_tidy_reg$initializer$ 100401e4     libcpmt:locale0.obj
 0002:000001e8       _classic_locale$initializer$ 100401e8     libcpmt:locale0.obj
 0002:000001f0       ?oracledbTemplate_s$initializer$@Oracledb@@0P6AXXZA 100401f0     njsOracle.obj
 0002:000001f4       ?poolTemplate_s$initializer$@Pool@@2P6AXXZA 100401f4     njsPool.obj
 0002:000001f8       ?connectionTemplate_s$initializer$@Connection@@2P6AXXZA 100401f8     njsConnection.obj
 0002:000001fc       ?resultSetTemplate_s$initializer$@ResultSet@@2P6AXXZA 100401fc     njsResultSet.obj
 0002:00000200       ?iLobTemplate_s$initializer$@ILob@@2P6AXXZA 10040200     njsIntLob.obj
 0002:00000204       ?s_propPingName_$initializer$@ConnImpl@@0P6AXXZA 10040204     dpiConnImpl.obj
 0002:00000210       _pinit                     10040210     LIBCMT:onexit.obj
 0002:00000214       _pinit                     10040214     LIBCMT:cpu_disp.obj
 0002:00000218       _pinit                     10040218     LIBCMT:_file.obj
 0002:0000021c       _pinit                     1004021c     LIBCMT:mbctype.obj
 0002:00000228       _pterm                     10040228     LIBCMT:wsetloca.obj
 0002:0000022c       _pterm                     1004022c     LIBCMT:initcon.obj
 0002:00000230       _pterm                     10040230     LIBCMT:_file.obj
 0002:00000290       __Win_errtab               10040290     libcpmt:syserror.obj
 0002:000004e8       __Sys_errtab               100404e8     libcpmt:syserror.obj
 0002:000010ec       _digits                    100410ec     libcpmt:xstoul.obj
 0002:00001114       _ndigs                     10041114     libcpmt:xstoul.obj
 0002:0000113c       _digits                    1004113c     libcpmt:xstoull.obj
 0002:00001164       _ndigs                     10041164     libcpmt:xstoull.obj
 0002:0000118c       ?digits@?1??_Stoxflt@@9@9  1004118c     libcpmt:xstoxflt.obj
 0002:000011a4       ?vals@?1??_Stoxflt@@9@9    100411a4     libcpmt:xstoxflt.obj
 0002:000011bc       _tenth                     100411bc     libcpmt:xfdtento.obj
 0002:000011c8       _tenth                     100411c8     libcpmt:xdtento.obj
 0002:000011e0       _tenth                     100411e0     libcpmt:xldtento.obj
 0002:000011f8       ?mask@?3??_FDint@@9@9      100411f8     libcpmt:xfdint.obj
 0002:00001218       ?sub@?3??_FDint@@9@9       10041218     libcpmt:xfdint.obj
 0002:00001220       ?mask@?3??_Dint@@9@9       10041220     libcpmt:xdint.obj
 0002:00001240       ?sub@?3??_Dint@@9@9        10041240     libcpmt:xdint.obj
 0002:000014bc       _GS_ExceptionPointers      100414bc     LIBCMT:gs_report.obj
 0002:000014c8       ?ExceptionTemplate@?1??_CxxThrowException@@9@8@4UEHExceptionRecord@@B 100414c8     LIBCMT:throw.obj
 0002:00004148       _rterrs                    10044148     LIBCMT:crt0msg.obj
 0002:00004fb0       __mb_locale_names          10044fb0     LIBCMT:mbctype.obj
 0002:00005088       __first_127char            10045088     LIBCMT:wsetloca.obj
 0002:00005254       One                        10045254     LIBCMT:87disp.obj
 0002:0000525c       XAMtoTagTab                1004525c     LIBCMT:87disp.obj
 0002:00005270       One                        10045270     LIBCMT:common.obj
 0002:00005284       DblMax                     10045284     LIBCMT:common.obj
 0002:0000528c       DblMin                     1004528c     LIBCMT:common.obj
 0002:00005294       IeeeAdjO                   10045294     LIBCMT:common.obj
 0002:0000529c       IeeeAdjU                   1004529c     LIBCMT:common.obj
 0002:000052a4       _infinity                  100452a4     LIBCMT:common.obj
 0002:000052ac       _zero                      100452ac     LIBCMT:common.obj
 0002:00005318       _tokenTable                10045318     LIBCMT:undname.obj
 0002:00005350       _nameTable                 10045350     LIBCMT:undname.obj
 0002:00005490       _rttiTable                 10045490     LIBCMT:undname.obj
 0002:00007160       _errMsg                    10047160     njsMessages.obj
 0002:00007234       _dpiErrors                 10047234     dpiExceptionImpl.obj
 0002:00008240       _Int32ToUInt32             10048240     LIBCMT:ftol3.obj
 0002:00008250       _MantissaMask              10048250     LIBCMT:ftol3.obj
 0002:00008258       _IntegerBit                10048258     LIBCMT:ftol3.obj
 0002:00008260       _SignBit64                 10048260     LIBCMT:ftol3.obj
 0002:00008268       _MinFP64                   10048268     LIBCMT:ftol3.obj
 0002:00008270       _MinInt64                  10048270     LIBCMT:ftol3.obj
 0002:00008278       _MaxInt64                  10048278     LIBCMT:ftol3.obj
 0002:00008280       _MaxUInt64                 10048280     LIBCMT:ftol3.obj
 0002:00008288       _MaxFP32                   10048288     LIBCMT:ftol3.obj
 0002:00008290       _MinFP32                   10048290     LIBCMT:ftol3.obj
 0002:00008298       _MinSubInexact             10048298     LIBCMT:ftol3.obj
 0002:000082a0       _FpExcptTable              100482a0     LIBCMT:ftol3.obj
 0002:000082b0       _i1075                     100482b0     LIBCMT:ftol3.obj
 0002:000082b4       _i1087                     100482b4     LIBCMT:ftol3.obj
 0002:000082b8       _x0800                     100482b8     LIBCMT:ftol3.obj
 0002:000082bc       _x17FF                     100482bc     LIBCMT:ftol3.obj
 0002:000082c0       _CWMask                    100482c0     LIBCMT:ftol3.obj
 0002:00008a68       __ehfuncinfo$??0_Locinfo@std@@QAE@PBD@Z 10048a68     njsOracle.obj
 0002:00008a90       __unwindtable$??0_Locinfo@std@@QAE@PBD@Z 10048a90     njsOracle.obj
 0002:00008ad0       __ehfuncinfo$?_Getcat@?$ctype@D@std@@SAIPAPBVfacet@locale@2@PBV42@@Z 10048ad0     njsOracle.obj
 0002:00008af4       __unwindtable$?_Getcat@?$ctype@D@std@@SAIPAPBVfacet@locale@2@PBV42@@Z 10048af4     njsOracle.obj
 0002:00008afc       __ehfuncinfo$?_Makestr@_System_error@std@@CA?AV?$basic_string@DU?$char_traits@D@std@@V?$allocator@D@2@@2@Verror_code@2@V32@@Z 10048afc     njsOracle.obj
 0002:00008b20       __unwindtable$?_Makestr@_System_error@std@@CA?AV?$basic_string@DU?$char_traits@D@std@@V?$allocator@D@2@@2@Verror_code@2@V32@@Z 10048b20     njsOracle.obj
 0002:00008b30       __ehfuncinfo$??0system_error@std@@QAE@Verror_code@1@PBD@Z 10048b30     njsOracle.obj
 0002:00008b54       __unwindtable$??0system_error@std@@QAE@Verror_code@1@PBD@Z 10048b54     njsOracle.obj
 0002:00008b5c       __ehfuncinfo$?clear@ios_base@std@@QAEXH_N@Z 10048b5c     njsOracle.obj
 0002:00008b80       __unwindtable$?clear@ios_base@std@@QAEXH_N@Z 10048b80     njsOracle.obj
 0002:00008b98       __ehfuncinfo$??0?$basic_streambuf@DU?$char_traits@D@std@@@std@@IAE@XZ 10048b98     njsOracle.obj
 0002:00008b98       __ehfuncinfo$?_Init@ios_base@std@@IAEXXZ 10048b98     njsOracle.obj
 0002:00008bbc       __unwindtable$??0?$basic_streambuf@DU?$char_traits@D@std@@@std@@IAE@XZ 10048bbc     njsOracle.obj
 0002:00008bbc       __unwindtable$?_Init@ios_base@std@@IAEXXZ 10048bbc     njsOracle.obj
 0002:00008bc4       __ehfuncinfo$?NewInstance@Nan@@YA?AV?$MaybeLocal@VObject@v8@@@v8@@V?$Local@VFunction@v8@@@3@@Z 10048bc4     njsOracle.obj
 0002:00008bc4       __ehfuncinfo$?GetFunction@Nan@@YA?AV?$MaybeLocal@VFunction@v8@@@v8@@V?$Local@VFunctionTemplate@v8@@@3@@Z 10048bc4     njsOracle.obj
 0002:00008bc4       __ehfuncinfo$?NewInstance@Nan@@YA?AV?$MaybeLocal@VObject@v8@@@v8@@V?$Local@VObjectTemplate@v8@@@3@@Z 10048bc4     njsOracle.obj
 0002:00008be8       __unwindtable$?GetFunction@Nan@@YA?AV?$MaybeLocal@VFunction@v8@@@v8@@V?$Local@VFunctionTemplate@v8@@@3@@Z 10048be8     njsOracle.obj
 0002:00008be8       __unwindtable$?NewInstance@Nan@@YA?AV?$MaybeLocal@VObject@v8@@@v8@@V?$Local@VObjectTemplate@v8@@@3@@Z 10048be8     njsOracle.obj
 0002:00008be8       __unwindtable$?NewInstance@Nan@@YA?AV?$MaybeLocal@VObject@v8@@@v8@@V?$Local@VFunction@v8@@@3@@Z 10048be8     njsOracle.obj
 0002:00008bf0       __ehfuncinfo$?Set@Nan@@YA?AV?$Maybe@_N@v8@@V?$Local@VObject@v8@@@3@V?$Local@VValue@v8@@@3@1@Z 10048bf0     njsOracle.obj
 0002:00008bf0       __ehfuncinfo$?convert@?$ToFactory@I@imp@Nan@@SA?AV?$Maybe@I@v8@@V?$Local@VValue@v8@@@5@@Z 10048bf0     njsOracle.obj
 0002:00008bf0       __ehfuncinfo$?ForceSet@Nan@@YA?AV?$Maybe@_N@v8@@V?$Local@VObject@v8@@@3@V?$Local@VValue@v8@@@3@1W4PropertyAttribute@3@@Z 10048bf0     njsConnection.obj
 0002:00008bf0       __ehfuncinfo$?convert@?$ToFactory@H@imp@Nan@@SA?AV?$Maybe@H@v8@@V?$Local@VValue@v8@@@5@@Z 10048bf0     njsOracle.obj
 0002:00008c14       __unwindtable$?ForceSet@Nan@@YA?AV?$Maybe@_N@v8@@V?$Local@VObject@v8@@@3@V?$Local@VValue@v8@@@3@1W4PropertyAttribute@3@@Z 10048c14     njsConnection.obj
 0002:00008c14       __unwindtable$?convert@?$ToFactory@H@imp@Nan@@SA?AV?$Maybe@H@v8@@V?$Local@VValue@v8@@@5@@Z 10048c14     njsOracle.obj
 0002:00008c14       __unwindtable$?convert@?$ToFactory@I@imp@Nan@@SA?AV?$Maybe@I@v8@@V?$Local@VValue@v8@@@5@@Z 10048c14     njsOracle.obj
 0002:00008c14       __unwindtable$?Set@Nan@@YA?AV?$Maybe@_N@v8@@V?$Local@VObject@v8@@@3@V?$Local@VValue@v8@@@3@1@Z 10048c14     njsOracle.obj
 0002:00008c1c       __ehfuncinfo$?convert@?$ToFactory@VInteger@v8@@@imp@Nan@@SA?AV?$MaybeLocal@VInteger@v8@@@v8@@V?$Local@VValue@v8@@@5@@Z 10048c1c     njsOracle.obj
 0002:00008c40       __unwindtable$?convert@?$ToFactory@VInteger@v8@@@imp@Nan@@SA?AV?$MaybeLocal@VInteger@v8@@@v8@@V?$Local@VValue@v8@@@5@@Z 10048c40     njsOracle.obj
 0002:00008c48       __ehfuncinfo$?New@?$Factory@VFunctionTemplate@v8@@@imp@Nan@@SA?AV?$Local@VFunctionTemplate@v8@@@v8@@P6AXABV?$FunctionCallbackInfo@VValue@v8@@@3@@ZV?$Local@VValue@v8@@@5@V?$Local@VSignature@v8@@@5@@Z 10048c48     njsOracle.obj
 0002:00008c6c       __unwindtable$?New@?$Factory@VFunctionTemplate@v8@@@imp@Nan@@SA?AV?$Local@VFunctionTemplate@v8@@@v8@@P6AXABV?$FunctionCallbackInfo@VValue@v8@@@3@@ZV?$Local@VValue@v8@@@5@V?$Local@VSignature@v8@@@5@@Z 10048c6c     njsOracle.obj
 0002:00008c74       __ehfuncinfo$?ThrowError@Nan@@YAXPBD@Z 10048c74     njsOracle.obj
 0002:00008c74       __ehfuncinfo$?hasILobInstance@ILob@@SA_NV?$Local@VObject@v8@@@v8@@@Z 10048c74     njsIntLob.obj
 0002:00008c98       __unwindtable$?ThrowError@Nan@@YAXPBD@Z 10048c98     njsOracle.obj
 0002:00008c98       __unwindtable$?hasILobInstance@ILob@@SA_NV?$Local@VObject@v8@@@v8@@@Z 10048c98     njsIntLob.obj
 0002:00008ca0       __ehfuncinfo$?SetPrototypeMethod@Nan@@YAXV?$Local@VFunctionTemplate@v8@@@v8@@PBDP6AXABV?$FunctionCallbackInfo@VValue@v8@@@1@@Z@Z 10048ca0     njsOracle.obj
 0002:00008cc4       __unwindtable$?SetPrototypeMethod@Nan@@YAXV?$Local@VFunctionTemplate@v8@@@v8@@PBDP6AXABV?$FunctionCallbackInfo@VValue@v8@@@1@@Z@Z 10048cc4     njsOracle.obj
 0002:00008ccc       __ehfuncinfo$?SetAccessor@Nan@@YAXV?$Local@VObjectTemplate@v8@@@v8@@V?$Local@VString@v8@@@3@P6AX1ABV?$PropertyCallbackInfo@VValue@v8@@@1@@ZP6AX1V?$Local@VValue@v8@@@3@ABV?$PropertyCallbackInfo@X@1@@Z4W4AccessControl@3@W4PropertyAttribute@3@V?$Local@VAccessorSignature@v8@@@3@@Z 10048ccc     njsOracle.obj
 0002:00008cf0       __unwindtable$?SetAccessor@Nan@@YAXV?$Local@VObjectTemplate@v8@@@v8@@V?$Local@VString@v8@@@3@P6AX1ABV?$PropertyCallbackInfo@VValue@v8@@@1@@ZP6AX1V?$Local@VValue@v8@@@3@ABV?$PropertyCallbackInfo@X@1@@Z4W4AccessControl@3@W4PropertyAttribute@3@V?$Local@VAccessorSignature@v8@@@3@@Z 10048cf0     njsOracle.obj
 0002:00008cf8       __ehfuncinfo$??1ObjectWrap@Nan@@UAE@XZ 10048cf8     njsOracle.obj
 0002:00008d1c       __unwindtable$??1ObjectWrap@Nan@@UAE@XZ 10048d1c     njsOracle.obj
 0002:00008d24       __ehfuncinfo$??0connectionBaton@@QAE@V?$Local@VFunction@v8@@@v8@@V?$Local@VObject@v8@@@2@@Z 10048d24     njsOracle.obj
 0002:00008d48       __unwindtable$??0connectionBaton@@QAE@V?$Local@VFunction@v8@@@v8@@V?$Local@VObject@v8@@@2@@Z 10048d48     njsOracle.obj
 0002:00008d80       __ehfuncinfo$??1connectionBaton@@QAE@XZ 10048d80     njsOracle.obj
 0002:00008da4       __unwindtable$??1connectionBaton@@QAE@XZ 10048da4     njsOracle.obj
 0002:00008ddc       __ehfuncinfo$??0Oracledb@@AAE@XZ 10048ddc     njsOracle.obj
 0002:00008e00       __unwindtable$??0Oracledb@@AAE@XZ 10048e00     njsOracle.obj
 0002:00008e28       __ehfuncinfo$??1Oracledb@@EAE@XZ 10048e28     njsOracle.obj
 0002:00008e4c       __unwindtable$??1Oracledb@@EAE@XZ 10048e4c     njsOracle.obj
 0002:00008e64       __ehfuncinfo$?driverName@Oracledb@@ABE?BV?$basic_string@DU?$char_traits@D@std@@V?$allocator@D@2@@std@@XZ 10048e64     njsOracle.obj
 0002:00008e88       __unwindtable$?driverName@Oracledb@@ABE?BV?$basic_string@DU?$char_traits@D@std@@V?$allocator@D@2@@std@@XZ 10048e88     njsOracle.obj
 0002:00008e90       __ehfuncinfo$?Init@Pool@@SAXV?$Local@VObject@v8@@@v8@@@Z 10048e90     njsPool.obj
 0002:00008e90       __ehfuncinfo$?Init@Oracledb@@SAXV?$Local@VObject@v8@@@v8@@@Z 10048e90     njsOracle.obj
 0002:00008e90       __ehfuncinfo$?Init@ILob@@SAXV?$Local@VObject@v8@@@v8@@@Z 10048e90     njsIntLob.obj
 0002:00008e90       __ehfuncinfo$?Init@ResultSet@@SAXV?$Local@VObject@v8@@@v8@@@Z 10048e90     njsResultSet.obj
 0002:00008e90       __ehfuncinfo$?Init@Connection@@SAXV?$Local@VObject@v8@@@v8@@@Z 10048e90     njsConnection.obj
 0002:00008eb4       __unwindtable$?Init@Pool@@SAXV?$Local@VObject@v8@@@v8@@@Z 10048eb4     njsPool.obj
 0002:00008eb4       __unwindtable$?Init@Oracledb@@SAXV?$Local@VObject@v8@@@v8@@@Z 10048eb4     njsOracle.obj
 0002:00008eb4       __unwindtable$?Init@Connection@@SAXV?$Local@VObject@v8@@@v8@@@Z 10048eb4     njsConnection.obj
 0002:00008eb4       __unwindtable$?Init@ResultSet@@SAXV?$Local@VObject@v8@@@v8@@@Z 10048eb4     njsResultSet.obj
 0002:00008eb4       __unwindtable$?Init@ILob@@SAXV?$Local@VObject@v8@@@v8@@@Z 10048eb4     njsIntLob.obj
 0002:00008ebc       __ehfuncinfo$?New@Oracledb@@CAXABV?$FunctionCallbackInfo@VValue@v8@@@Nan@@@Z 10048ebc     njsOracle.obj
 0002:00008ee0       __unwindtable$?New@Oracledb@@CAXABV?$FunctionCallbackInfo@VValue@v8@@@Nan@@@Z 10048ee0     njsOracle.obj
 0002:00008ee8       __ehfuncinfo$?GetStmtCacheSize@Pool@@CAXV?$Local@VString@v8@@@v8@@ABV?$PropertyCallbackInfo@VValue@v8@@@Nan@@@Z 10048ee8     njsPool.obj
 0002:00008ee8       __ehfuncinfo$?GetPoolTimeout@Oracledb@@CAXV?$Local@VString@v8@@@v8@@ABV?$PropertyCallbackInfo@VValue@v8@@@Nan@@@Z 10048ee8     njsOracle.obj
 0002:00008ee8       __ehfuncinfo$?GetPoolIncrement@Pool@@CAXV?$Local@VString@v8@@@v8@@ABV?$PropertyCallbackInfo@VValue@v8@@@Nan@@@Z 10048ee8     njsPool.obj
 0002:00008ee8       __ehfuncinfo$?GetPrefetchRows@Oracledb@@CAXV?$Local@VString@v8@@@v8@@ABV?$PropertyCallbackInfo@VValue@v8@@@Nan@@@Z 10048ee8     njsOracle.obj
 0002:00008ee8       __ehfuncinfo$?GetPoolMin@Pool@@CAXV?$Local@VString@v8@@@v8@@ABV?$PropertyCallbackInfo@VValue@v8@@@Nan@@@Z 10048ee8     njsPool.obj
 0002:00008ee8       __ehfuncinfo$?GetPoolTimeout@Pool@@CAXV?$Local@VString@v8@@@v8@@ABV?$PropertyCallbackInfo@VValue@v8@@@Nan@@@Z 10048ee8     njsPool.obj
 0002:00008ee8       __ehfuncinfo$?GetPoolMax@Oracledb@@CAXV?$Local@VString@v8@@@v8@@ABV?$PropertyCallbackInfo@VValue@v8@@@Nan@@@Z 10048ee8     njsOracle.obj
 0002:00008ee8       __ehfuncinfo$?GetExternalAuth@Oracledb@@CAXV?$Local@VString@v8@@@v8@@ABV?$PropertyCallbackInfo@VValue@v8@@@Nan@@@Z 10048ee8     njsOracle.obj
 0002:00008ee8       __ehfuncinfo$?GetPoolMin@Oracledb@@CAXV?$Local@VString@v8@@@v8@@ABV?$PropertyCallbackInfo@VValue@v8@@@Nan@@@Z 10048ee8     njsOracle.obj
 0002:00008ee8       __ehfuncinfo$?GetPoolMax@Pool@@CAXV?$Local@VString@v8@@@v8@@ABV?$PropertyCallbackInfo@VValue@v8@@@Nan@@@Z 10048ee8     njsPool.obj
 0002:00008ee8       __ehfuncinfo$?GetConnectionClass@Oracledb@@CAXV?$Local@VString@v8@@@v8@@ABV?$PropertyCallbackInfo@VValue@v8@@@Nan@@@Z 10048ee8     njsOracle.obj
 0002:00008ee8       __ehfuncinfo$?GetPoolPingInterval@Pool@@CAXV?$Local@VString@v8@@@v8@@ABV?$PropertyCallbackInfo@VValue@v8@@@Nan@@@Z 10048ee8     njsPool.obj
 0002:00008ee8       __ehfuncinfo$?GetOutFormat@Oracledb@@CAXV?$Local@VString@v8@@@v8@@ABV?$PropertyCallbackInfo@VValue@v8@@@Nan@@@Z 10048ee8     njsOracle.obj
 0002:00008f0c       __unwindtable$?GetPoolMax@Pool@@CAXV?$Local@VString@v8@@@v8@@ABV?$PropertyCallbackInfo@VValue@v8@@@Nan@@@Z 10048f0c     njsPool.obj
 0002:00008f0c       __unwindtable$?GetPoolMin@Pool@@CAXV?$Local@VString@v8@@@v8@@ABV?$PropertyCallbackInfo@VValue@v8@@@Nan@@@Z 10048f0c     njsPool.obj
 0002:00008f0c       __unwindtable$?GetPoolTimeout@Oracledb@@CAXV?$Local@VString@v8@@@v8@@ABV?$PropertyCallbackInfo@VValue@v8@@@Nan@@@Z 10048f0c     njsOracle.obj
 0002:00008f0c       __unwindtable$?GetPoolMax@Oracledb@@CAXV?$Local@VString@v8@@@v8@@ABV?$PropertyCallbackInfo@VValue@v8@@@Nan@@@Z 10048f0c     njsOracle.obj
 0002:00008f0c       __unwindtable$?GetPoolIncrement@Pool@@CAXV?$Local@VString@v8@@@v8@@ABV?$PropertyCallbackInfo@VValue@v8@@@Nan@@@Z 10048f0c     njsPool.obj
 0002:00008f0c       __unwindtable$?GetPoolPingInterval@Pool@@CAXV?$Local@VString@v8@@@v8@@ABV?$PropertyCallbackInfo@VValue@v8@@@Nan@@@Z 10048f0c     njsPool.obj
 0002:00008f0c       __unwindtable$?GetConnectionClass@Oracledb@@CAXV?$Local@VString@v8@@@v8@@ABV?$PropertyCallbackInfo@VValue@v8@@@Nan@@@Z 10048f0c     njsOracle.obj
 0002:00008f0c       __unwindtable$?GetPrefetchRows@Oracledb@@CAXV?$Local@VString@v8@@@v8@@ABV?$PropertyCallbackInfo@VValue@v8@@@Nan@@@Z 10048f0c     njsOracle.obj
 0002:00008f0c       __unwindtable$?GetStmtCacheSize@Pool@@CAXV?$Local@VString@v8@@@v8@@ABV?$PropertyCallbackInfo@VValue@v8@@@Nan@@@Z 10048f0c     njsPool.obj
 0002:00008f0c       __unwindtable$?GetPoolMin@Oracledb@@CAXV?$Local@VString@v8@@@v8@@ABV?$PropertyCallbackInfo@VValue@v8@@@Nan@@@Z 10048f0c     njsOracle.obj
 0002:00008f0c       __unwindtable$?GetOutFormat@Oracledb@@CAXV?$Local@VString@v8@@@v8@@ABV?$PropertyCallbackInfo@VValue@v8@@@Nan@@@Z 10048f0c     njsOracle.obj
 0002:00008f0c       __unwindtable$?GetExternalAuth@Oracledb@@CAXV?$Local@VString@v8@@@v8@@ABV?$PropertyCallbackInfo@VValue@v8@@@Nan@@@Z 10048f0c     njsOracle.obj
 0002:00008f0c       __unwindtable$?GetPoolTimeout@Pool@@CAXV?$Local@VString@v8@@@v8@@ABV?$PropertyCallbackInfo@VValue@v8@@@Nan@@@Z 10048f0c     njsPool.obj
 0002:00008f14       __ehfuncinfo$?SetPoolMax@Oracledb@@CAXV?$Local@VString@v8@@@v8@@V?$Local@VValue@v8@@@3@ABV?$PropertyCallbackInfo@X@Nan@@@Z 10048f14     njsOracle.obj
 0002:00008f14       __ehfuncinfo$?SetPrefetchRows@Oracledb@@CAXV?$Local@VString@v8@@@v8@@V?$Local@VValue@v8@@@3@ABV?$PropertyCallbackInfo@X@Nan@@@Z 10048f14     njsOracle.obj
 0002:00008f14       __ehfuncinfo$?SetPoolMin@Oracledb@@CAXV?$Local@VString@v8@@@v8@@V?$Local@VValue@v8@@@3@ABV?$PropertyCallbackInfo@X@Nan@@@Z 10048f14     njsOracle.obj
 0002:00008f14       __ehfuncinfo$?SetOutFormat@Oracledb@@CAXV?$Local@VString@v8@@@v8@@V?$Local@VValue@v8@@@3@ABV?$PropertyCallbackInfo@X@Nan@@@Z 10048f14     njsOracle.obj
 0002:00008f14       __ehfuncinfo$?SetLobPrefetchSize@Oracledb@@CAXV?$Local@VString@v8@@@v8@@V?$Local@VValue@v8@@@3@ABV?$PropertyCallbackInfo@X@Nan@@@Z 10048f14     njsOracle.obj
 0002:00008f14       __ehfuncinfo$?SetPoolTimeout@Oracledb@@CAXV?$Local@VString@v8@@@v8@@V?$Local@VValue@v8@@@3@ABV?$PropertyCallbackInfo@X@Nan@@@Z 10048f14     njsOracle.obj
 0002:00008f14       __ehfuncinfo$?SetStmtCacheSize@Oracledb@@CAXV?$Local@VString@v8@@@v8@@V?$Local@VValue@v8@@@3@ABV?$PropertyCallbackInfo@X@Nan@@@Z 10048f14     njsOracle.obj
 0002:00008f14       __ehfuncinfo$?SetPoolIncrement@Oracledb@@CAXV?$Local@VString@v8@@@v8@@V?$Local@VValue@v8@@@3@ABV?$PropertyCallbackInfo@X@Nan@@@Z 10048f14     njsOracle.obj
 0002:00008f38       __unwindtable$?SetLobPrefetchSize@Oracledb@@CAXV?$Local@VString@v8@@@v8@@V?$Local@VValue@v8@@@3@ABV?$PropertyCallbackInfo@X@Nan@@@Z 10048f38     njsOracle.obj
 0002:00008f38       __unwindtable$?SetOutFormat@Oracledb@@CAXV?$Local@VString@v8@@@v8@@V?$Local@VValue@v8@@@3@ABV?$PropertyCallbackInfo@X@Nan@@@Z 10048f38     njsOracle.obj
 0002:00008f38       __unwindtable$?SetPrefetchRows@Oracledb@@CAXV?$Local@VString@v8@@@v8@@V?$Local@VValue@v8@@@3@ABV?$PropertyCallbackInfo@X@Nan@@@Z 10048f38     njsOracle.obj
 0002:00008f38       __unwindtable$?SetStmtCacheSize@Oracledb@@CAXV?$Local@VString@v8@@@v8@@V?$Local@VValue@v8@@@3@ABV?$PropertyCallbackInfo@X@Nan@@@Z 10048f38     njsOracle.obj
 0002:00008f38       __unwindtable$?SetPoolMax@Oracledb@@CAXV?$Local@VString@v8@@@v8@@V?$Local@VValue@v8@@@3@ABV?$PropertyCallbackInfo@X@Nan@@@Z 10048f38     njsOracle.obj
 0002:00008f38       __unwindtable$?SetPoolTimeout@Oracledb@@CAXV?$Local@VString@v8@@@v8@@V?$Local@VValue@v8@@@3@ABV?$PropertyCallbackInfo@X@Nan@@@Z 10048f38     njsOracle.obj
 0002:00008f38       __unwindtable$?SetPoolIncrement@Oracledb@@CAXV?$Local@VString@v8@@@v8@@V?$Local@VValue@v8@@@3@ABV?$PropertyCallbackInfo@X@Nan@@@Z 10048f38     njsOracle.obj
 0002:00008f38       __unwindtable$?SetPoolMin@Oracledb@@CAXV?$Local@VString@v8@@@v8@@V?$Local@VValue@v8@@@3@ABV?$PropertyCallbackInfo@X@Nan@@@Z 10048f38     njsOracle.obj
 0002:00008f48       __ehfuncinfo$?GetMaxRows@Oracledb@@CAXV?$Local@VString@v8@@@v8@@ABV?$PropertyCallbackInfo@VValue@v8@@@Nan@@@Z 10048f48     njsOracle.obj
 0002:00008f48       __ehfuncinfo$?GetLobPrefetchSize@Oracledb@@CAXV?$Local@VString@v8@@@v8@@ABV?$PropertyCallbackInfo@VValue@v8@@@Nan@@@Z 10048f48     njsOracle.obj
 0002:00008f48       __ehfuncinfo$?GetStmtCacheSize@Oracledb@@CAXV?$Local@VString@v8@@@v8@@ABV?$PropertyCallbackInfo@VValue@v8@@@Nan@@@Z 10048f48     njsOracle.obj
 0002:00008f48       __ehfuncinfo$?GetPoolIncrement@Oracledb@@CAXV?$Local@VString@v8@@@v8@@ABV?$PropertyCallbackInfo@VValue@v8@@@Nan@@@Z 10048f48     njsOracle.obj
 0002:00008f48       __ehfuncinfo$?GetOracleClientVersion@Oracledb@@CAXV?$Local@VString@v8@@@v8@@ABV?$PropertyCallbackInfo@VValue@v8@@@Nan@@@Z 10048f48     njsOracle.obj
 0002:00008f48       __ehfuncinfo$?GetPoolPingInterval@Oracledb@@CAXV?$Local@VString@v8@@@v8@@ABV?$PropertyCallbackInfo@VValue@v8@@@Nan@@@Z 10048f48     njsOracle.obj
 0002:00008f6c       __unwindtable$?GetLobPrefetchSize@Oracledb@@CAXV?$Local@VString@v8@@@v8@@ABV?$PropertyCallbackInfo@VValue@v8@@@Nan@@@Z 10048f6c     njsOracle.obj
 0002:00008f6c       __unwindtable$?GetMaxRows@Oracledb@@CAXV?$Local@VString@v8@@@v8@@ABV?$PropertyCallbackInfo@VValue@v8@@@Nan@@@Z 10048f6c     njsOracle.obj
 0002:00008f6c       __unwindtable$?GetPoolIncrement@Oracledb@@CAXV?$Local@VString@v8@@@v8@@ABV?$PropertyCallbackInfo@VValue@v8@@@Nan@@@Z 10048f6c     njsOracle.obj
 0002:00008f6c       __unwindtable$?GetOracleClientVersion@Oracledb@@CAXV?$Local@VString@v8@@@v8@@ABV?$PropertyCallbackInfo@VValue@v8@@@Nan@@@Z 10048f6c     njsOracle.obj
 0002:00008f6c       __unwindtable$?GetStmtCacheSize@Oracledb@@CAXV?$Local@VString@v8@@@v8@@ABV?$PropertyCallbackInfo@VValue@v8@@@Nan@@@Z 10048f6c     njsOracle.obj
 0002:00008f6c       __unwindtable$?GetPoolPingInterval@Oracledb@@CAXV?$Local@VString@v8@@@v8@@ABV?$PropertyCallbackInfo@VValue@v8@@@Nan@@@Z 10048f6c     njsOracle.obj
 0002:00008f74       __ehfuncinfo$?SetMaxRows@Oracledb@@CAXV?$Local@VString@v8@@@v8@@V?$Local@VValue@v8@@@3@ABV?$PropertyCallbackInfo@X@Nan@@@Z 10048f74     njsOracle.obj
 0002:00008f98       __unwindtable$?SetMaxRows@Oracledb@@CAXV?$Local@VString@v8@@@v8@@V?$Local@VValue@v8@@@3@ABV?$PropertyCallbackInfo@X@Nan@@@Z 10048f98     njsOracle.obj
 0002:00008fb0       __ehfuncinfo$?GetExtendedMetaData@Oracledb@@CAXV?$Local@VString@v8@@@v8@@ABV?$PropertyCallbackInfo@VValue@v8@@@Nan@@@Z 10048fb0     njsOracle.obj
 0002:00008fb0       __ehfuncinfo$?GetIsValid@ILob@@CAXV?$Local@VString@v8@@@v8@@ABV?$PropertyCallbackInfo@VValue@v8@@@Nan@@@Z 10048fb0     njsIntLob.obj
 0002:00008fb0       __ehfuncinfo$?GetAutoCommit@Oracledb@@CAXV?$Local@VString@v8@@@v8@@ABV?$PropertyCallbackInfo@VValue@v8@@@Nan@@@Z 10048fb0     njsOracle.obj
 0002:00008fb0       __ehfuncinfo$?GetIsAutoCloseLob@ILob@@CAXV?$Local@VString@v8@@@v8@@ABV?$PropertyCallbackInfo@VValue@v8@@@Nan@@@Z 10048fb0     njsIntLob.obj
 0002:00008fd4       __unwindtable$?GetIsValid@ILob@@CAXV?$Local@VString@v8@@@v8@@ABV?$PropertyCallbackInfo@VValue@v8@@@Nan@@@Z 10048fd4     njsIntLob.obj
 0002:00008fd4       __unwindtable$?GetAutoCommit@Oracledb@@CAXV?$Local@VString@v8@@@v8@@ABV?$PropertyCallbackInfo@VValue@v8@@@Nan@@@Z 10048fd4     njsOracle.obj
 0002:00008fd4       __unwindtable$?GetExtendedMetaData@Oracledb@@CAXV?$Local@VString@v8@@@v8@@ABV?$PropertyCallbackInfo@VValue@v8@@@Nan@@@Z 10048fd4     njsOracle.obj
 0002:00008fd4       __unwindtable$?GetIsAutoCloseLob@ILob@@CAXV?$Local@VString@v8@@@v8@@ABV?$PropertyCallbackInfo@VValue@v8@@@Nan@@@Z 10048fd4     njsIntLob.obj
 0002:00008fdc       __ehfuncinfo$?SetIsValid@ILob@@CAXV?$Local@VString@v8@@@v8@@V?$Local@VValue@v8@@@3@ABV?$PropertyCallbackInfo@X@Nan@@@Z 10048fdc     njsIntLob.obj
 0002:00008fdc       __ehfuncinfo$?SetAutoCommit@Oracledb@@CAXV?$Local@VString@v8@@@v8@@V?$Local@VValue@v8@@@3@ABV?$PropertyCallbackInfo@X@Nan@@@Z 10048fdc     njsOracle.obj
 0002:00008fdc       __ehfuncinfo$?SetExtendedMetaData@Oracledb@@CAXV?$Local@VString@v8@@@v8@@V?$Local@VValue@v8@@@3@ABV?$PropertyCallbackInfo@X@Nan@@@Z 10048fdc     njsOracle.obj
 0002:00008fdc       __ehfuncinfo$?SetStmtCacheSize@Connection@@CAXV?$Local@VString@v8@@@v8@@V?$Local@VValue@v8@@@3@ABV?$PropertyCallbackInfo@X@Nan@@@Z 10048fdc     njsConnection.obj
 0002:00008fdc       __ehfuncinfo$?SetIsAutoCloseLob@ILob@@CAXV?$Local@VString@v8@@@v8@@V?$Local@VValue@v8@@@3@ABV?$PropertyCallbackInfo@X@Nan@@@Z 10048fdc     njsIntLob.obj
 0002:00008fdc       __ehfuncinfo$?SetType@ILob@@CAXV?$Local@VString@v8@@@v8@@V?$Local@VValue@v8@@@3@ABV?$PropertyCallbackInfo@X@Nan@@@Z 10048fdc     njsIntLob.obj
 0002:00008fdc       __ehfuncinfo$?SetExternalAuth@Oracledb@@CAXV?$Local@VString@v8@@@v8@@V?$Local@VValue@v8@@@3@ABV?$PropertyCallbackInfo@X@Nan@@@Z 10048fdc     njsOracle.obj
 0002:00008fdc       __ehfuncinfo$?SetOracleServerVersion@Connection@@CAXV?$Local@VString@v8@@@v8@@V?$Local@VValue@v8@@@3@ABV?$PropertyCallbackInfo@X@Nan@@@Z 10048fdc     njsConnection.obj
 0002:00008fdc       __ehfuncinfo$?SetChunkSize@ILob@@CAXV?$Local@VString@v8@@@v8@@V?$Local@VValue@v8@@@3@ABV?$PropertyCallbackInfo@X@Nan@@@Z 10048fdc     njsIntLob.obj
 0002:00008fdc       __ehfuncinfo$?SetLength@ILob@@CAXV?$Local@VString@v8@@@v8@@V?$Local@VValue@v8@@@3@ABV?$PropertyCallbackInfo@X@Nan@@@Z 10048fdc     njsIntLob.obj
 0002:00009000       __unwindtable$?SetOracleServerVersion@Connection@@CAXV?$Local@VString@v8@@@v8@@V?$Local@VValue@v8@@@3@ABV?$PropertyCallbackInfo@X@Nan@@@Z 10049000     njsConnection.obj
 0002:00009000       __unwindtable$?SetLength@ILob@@CAXV?$Local@VString@v8@@@v8@@V?$Local@VValue@v8@@@3@ABV?$PropertyCallbackInfo@X@Nan@@@Z 10049000     njsIntLob.obj
 0002:00009000       __unwindtable$?SetAutoCommit@Oracledb@@CAXV?$Local@VString@v8@@@v8@@V?$Local@VValue@v8@@@3@ABV?$PropertyCallbackInfo@X@Nan@@@Z 10049000     njsOracle.obj
 0002:00009000       __unwindtable$?SetIsAutoCloseLob@ILob@@CAXV?$Local@VString@v8@@@v8@@V?$Local@VValue@v8@@@3@ABV?$PropertyCallbackInfo@X@Nan@@@Z 10049000     njsIntLob.obj
 0002:00009000       __unwindtable$?SetChunkSize@ILob@@CAXV?$Local@VString@v8@@@v8@@V?$Local@VValue@v8@@@3@ABV?$PropertyCallbackInfo@X@Nan@@@Z 10049000     njsIntLob.obj
 0002:00009000       __unwindtable$?SetStmtCacheSize@Connection@@CAXV?$Local@VString@v8@@@v8@@V?$Local@VValue@v8@@@3@ABV?$PropertyCallbackInfo@X@Nan@@@Z 10049000     njsConnection.obj
 0002:00009000       __unwindtable$?SetType@ILob@@CAXV?$Local@VString@v8@@@v8@@V?$Local@VValue@v8@@@3@ABV?$PropertyCallbackInfo@X@Nan@@@Z 10049000     njsIntLob.obj
 0002:00009000       __unwindtable$?SetExtendedMetaData@Oracledb@@CAXV?$Local@VString@v8@@@v8@@V?$Local@VValue@v8@@@3@ABV?$PropertyCallbackInfo@X@Nan@@@Z 10049000     njsOracle.obj
 0002:00009000       __unwindtable$?SetExternalAuth@Oracledb@@CAXV?$Local@VString@v8@@@v8@@V?$Local@VValue@v8@@@3@ABV?$PropertyCallbackInfo@X@Nan@@@Z 10049000     njsOracle.obj
 0002:00009000       __unwindtable$?SetIsValid@ILob@@CAXV?$Local@VString@v8@@@v8@@V?$Local@VValue@v8@@@3@ABV?$PropertyCallbackInfo@X@Nan@@@Z 10049000     njsIntLob.obj
 0002:00009008       __ehfuncinfo$?SetOracleClientVersion@Oracledb@@CAXV?$Local@VString@v8@@@v8@@V?$Local@VValue@v8@@@3@ABV?$PropertyCallbackInfo@X@Nan@@@Z 10049008     njsOracle.obj
 0002:00009008       __ehfuncinfo$?SetVersion@Oracledb@@CAXV?$Local@VString@v8@@@v8@@V?$Local@VValue@v8@@@3@ABV?$PropertyCallbackInfo@X@Nan@@@Z 10049008     njsOracle.obj
 0002:0000902c       __unwindtable$?SetOracleClientVersion@Oracledb@@CAXV?$Local@VString@v8@@@v8@@V?$Local@VValue@v8@@@3@ABV?$PropertyCallbackInfo@X@Nan@@@Z 1004902c     njsOracle.obj
 0002:0000902c       __unwindtable$?SetVersion@Oracledb@@CAXV?$Local@VString@v8@@@v8@@V?$Local@VValue@v8@@@3@ABV?$PropertyCallbackInfo@X@Nan@@@Z 1004902c     njsOracle.obj
 0002:00009034       __ehfuncinfo$?SetConnectionClass@Oracledb@@CAXV?$Local@VString@v8@@@v8@@V?$Local@VValue@v8@@@3@ABV?$PropertyCallbackInfo@X@Nan@@@Z 10049034     njsOracle.obj
 0002:00009058       __unwindtable$?SetConnectionClass@Oracledb@@CAXV?$Local@VString@v8@@@v8@@V?$Local@VValue@v8@@@3@ABV?$PropertyCallbackInfo@X@Nan@@@Z 10049058     njsOracle.obj
 0002:00009068       __ehfuncinfo$?GetFetchAsString@Oracledb@@CAXV?$Local@VString@v8@@@v8@@ABV?$PropertyCallbackInfo@VValue@v8@@@Nan@@@Z 10049068     njsOracle.obj
 0002:00009068       __ehfuncinfo$?GetFetchAsBuffer@Oracledb@@CAXV?$Local@VString@v8@@@v8@@ABV?$PropertyCallbackInfo@VValue@v8@@@Nan@@@Z 10049068     njsOracle.obj
 0002:0000908c       __unwindtable$?GetFetchAsString@Oracledb@@CAXV?$Local@VString@v8@@@v8@@ABV?$PropertyCallbackInfo@VValue@v8@@@Nan@@@Z 1004908c     njsOracle.obj
 0002:0000908c       __unwindtable$?GetFetchAsBuffer@Oracledb@@CAXV?$Local@VString@v8@@@v8@@ABV?$PropertyCallbackInfo@VValue@v8@@@Nan@@@Z 1004908c     njsOracle.obj
 0002:00009094       __ehfuncinfo$?SetFetchAsString@Oracledb@@CAXV?$Local@VString@v8@@@v8@@V?$Local@VValue@v8@@@3@ABV?$PropertyCallbackInfo@X@Nan@@@Z 10049094     njsOracle.obj
 0002:00009094       __ehfuncinfo$?SetFetchAsBuffer@Oracledb@@CAXV?$Local@VString@v8@@@v8@@V?$Local@VValue@v8@@@3@ABV?$PropertyCallbackInfo@X@Nan@@@Z 10049094     njsOracle.obj
 0002:000090b8       __unwindtable$?SetFetchAsString@Oracledb@@CAXV?$Local@VString@v8@@@v8@@V?$Local@VValue@v8@@@3@ABV?$PropertyCallbackInfo@X@Nan@@@Z 100490b8     njsOracle.obj
 0002:000090b8       __unwindtable$?SetFetchAsBuffer@Oracledb@@CAXV?$Local@VString@v8@@@v8@@V?$Local@VValue@v8@@@3@ABV?$PropertyCallbackInfo@X@Nan@@@Z 100490b8     njsOracle.obj
 0002:000090c8       __ehfuncinfo$?SetPoolPingInterval@Oracledb@@CAXV?$Local@VString@v8@@@v8@@V?$Local@VValue@v8@@@3@ABV?$PropertyCallbackInfo@X@Nan@@@Z 100490c8     njsOracle.obj
 0002:000090ec       __unwindtable$?SetPoolPingInterval@Oracledb@@CAXV?$Local@VString@v8@@@v8@@V?$Local@VValue@v8@@@3@ABV?$PropertyCallbackInfo@X@Nan@@@Z 100490ec     njsOracle.obj
 0002:000090fc       __ehfuncinfo$?GetConnection@Oracledb@@CAXABV?$FunctionCallbackInfo@VValue@v8@@@Nan@@@Z 100490fc     njsOracle.obj
 0002:00009120       __unwindtable$?GetConnection@Oracledb@@CAXABV?$FunctionCallbackInfo@VValue@v8@@@Nan@@@Z 10049120     njsOracle.obj
 0002:00009150       __ehfuncinfo$?Async_GetConnection@Oracledb@@CAXPAUuv_work_s@@@Z 10049150     njsOracle.obj
 0002:00009174       __unwindtable$?Async_GetConnection@Oracledb@@CAXPAUuv_work_s@@@Z 10049174     njsOracle.obj
 0002:00009184       __tryblocktable$?Async_GetConnection@Oracledb@@CAXPAUuv_work_s@@@Z 10049184     njsOracle.obj
 0002:00009198       __catchsym$?Async_GetConnection@Oracledb@@CAXPAUuv_work_s@@@Z$4 10049198     njsOracle.obj
 0002:000091a8       __ehfuncinfo$?Async_AfterCreatePool@Oracledb@@CAXPAUuv_work_s@@@Z 100491a8     njsOracle.obj
 0002:000091a8       __ehfuncinfo$?Async_AfterGetConnection@Pool@@CAXPAUuv_work_s@@@Z 100491a8     njsPool.obj
 0002:000091a8       __ehfuncinfo$?Async_AfterGetConnection@Oracledb@@CAXPAUuv_work_s@@@Z 100491a8     njsOracle.obj
 0002:000091a8       __ehfuncinfo$?Async_AfterGetRows@ResultSet@@CAXPAUuv_work_s@@@Z 100491a8     njsResultSet.obj
 0002:000091a8       __ehfuncinfo$?Async_AfterRead@ILob@@CAXPAUuv_work_s@@@Z 100491a8     njsIntLob.obj
 0002:000091cc       __unwindtable$?Async_AfterRead@ILob@@CAXPAUuv_work_s@@@Z 100491cc     njsIntLob.obj
 0002:000091cc       __unwindtable$?Async_AfterGetConnection@Oracledb@@CAXPAUuv_work_s@@@Z 100491cc     njsOracle.obj
 0002:000091cc       __unwindtable$?Async_AfterGetRows@ResultSet@@CAXPAUuv_work_s@@@Z 100491cc     njsResultSet.obj
 0002:000091cc       __unwindtable$?Async_AfterGetConnection@Pool@@CAXPAUuv_work_s@@@Z 100491cc     njsPool.obj
 0002:000091cc       __unwindtable$?Async_AfterCreatePool@Oracledb@@CAXPAUuv_work_s@@@Z 100491cc     njsOracle.obj
 0002:000091dc       __ehfuncinfo$?CreatePool@Oracledb@@CAXABV?$FunctionCallbackInfo@VValue@v8@@@Nan@@@Z 100491dc     njsOracle.obj
 0002:00009200       __unwindtable$?CreatePool@Oracledb@@CAXABV?$FunctionCallbackInfo@VValue@v8@@@Nan@@@Z 10049200     njsOracle.obj
 0002:00009238       __ehfuncinfo$?Async_CreatePool@Oracledb@@CAXPAUuv_work_s@@@Z 10049238     njsOracle.obj
 0002:0000925c       __unwindtable$?Async_CreatePool@Oracledb@@CAXPAUuv_work_s@@@Z 1004925c     njsOracle.obj
 0002:0000926c       __tryblocktable$?Async_CreatePool@Oracledb@@CAXPAUuv_work_s@@@Z 1004926c     njsOracle.obj
 0002:00009280       __catchsym$?Async_CreatePool@Oracledb@@CAXPAUuv_work_s@@@Z$4 10049280     njsOracle.obj
 0002:00009290       __ehfuncinfo$??6?$basic_ostream@DU?$char_traits@D@std@@@std@@QAEAAV01@H@Z 10049290     njsOracle.obj
 0002:000092b4       __unwindtable$??6?$basic_ostream@DU?$char_traits@D@std@@@std@@QAEAAV01@H@Z 100492b4     njsOracle.obj
 0002:000092cc       __ehfuncinfo$??0?$basic_stringstream@DU?$char_traits@D@std@@V?$allocator@D@2@@std@@QAE@H@Z 100492cc     njsOracle.obj
 0002:000092f0       __unwindtable$??0?$basic_stringstream@DU?$char_traits@D@std@@V?$allocator@D@2@@std@@QAE@H@Z 100492f0     njsOracle.obj
 0002:00009308       __ehfuncinfo$?init@?$basic_ios@DU?$char_traits@D@std@@@std@@IAEXPAV?$basic_streambuf@DU?$char_traits@D@std@@@2@_N@Z 10049308     njsOracle.obj
 0002:0000932c       __unwindtable$?init@?$basic_ios@DU?$char_traits@D@std@@@std@@IAEXPAV?$basic_streambuf@DU?$char_traits@D@std@@@2@_N@Z 1004932c     njsOracle.obj
 0002:00009334       __ehfuncinfo$??0?$basic_iostream@DU?$char_traits@D@std@@@std@@QAE@PAV?$basic_streambuf@DU?$char_traits@D@std@@@1@@Z 10049334     njsOracle.obj
 0002:00009358       __unwindtable$??0?$basic_iostream@DU?$char_traits@D@std@@@std@@QAE@PAV?$basic_streambuf@DU?$char_traits@D@std@@@1@@Z 10049358     njsOracle.obj
 0002:00009378       __ehfuncinfo$??0sentry@?$basic_ostream@DU?$char_traits@D@std@@@std@@QAE@AAV12@@Z 10049378     njsOracle.obj
 0002:0000939c       __unwindtable$??0sentry@?$basic_ostream@DU?$char_traits@D@std@@@std@@QAE@AAV12@@Z 1004939c     njsOracle.obj
 0002:000093a4       __ehfuncinfo$?do_put@?$num_put@DV?$ostreambuf_iterator@DU?$char_traits@D@std@@@std@@@std@@MBE?AV?$ostreambuf_iterator@DU?$char_traits@D@std@@@2@V32@AAVios_base@2@D_N@Z 100493a4     njsOracle.obj
 0002:000093c8       __unwindtable$?do_put@?$num_put@DV?$ostreambuf_iterator@DU?$char_traits@D@std@@@std@@@std@@MBE?AV?$ostreambuf_iterator@DU?$char_traits@D@std@@@2@V32@AAVios_base@2@D_N@Z 100493c8     njsOracle.obj
 0002:000093d8       __ehfuncinfo$?flush@?$basic_ostream@DU?$char_traits@D@std@@@std@@QAEAAV12@XZ 100493d8     njsOracle.obj
 0002:000093fc       __unwindtable$?flush@?$basic_ostream@DU?$char_traits@D@std@@@std@@QAEAAV12@XZ 100493fc     njsOracle.obj
 0002:00009404       __ehfuncinfo$?_Fput@?$num_put@DV?$ostreambuf_iterator@DU?$char_traits@D@std@@@std@@@std@@ABA?AV?$ostreambuf_iterator@DU?$char_traits@D@std@@@2@V32@AAVios_base@2@DPBDIIII@Z 10049404     njsOracle.obj
 0002:00009428       __unwindtable$?_Fput@?$num_put@DV?$ostreambuf_iterator@DU?$char_traits@D@std@@@std@@@std@@ABA?AV?$ostreambuf_iterator@DU?$char_traits@D@std@@@2@V32@AAVios_base@2@DPBDIIII@Z 10049428     njsOracle.obj
 0002:00009448       __ehfuncinfo$?_Iput@?$num_put@DV?$ostreambuf_iterator@DU?$char_traits@D@std@@@std@@@std@@ABA?AV?$ostreambuf_iterator@DU?$char_traits@D@std@@@2@V32@AAVios_base@2@DPADI@Z 10049448     njsOracle.obj
 0002:0000946c       __unwindtable$?_Iput@?$num_put@DV?$ostreambuf_iterator@DU?$char_traits@D@std@@@std@@@std@@ABA?AV?$ostreambuf_iterator@DU?$char_traits@D@std@@@2@V32@AAVios_base@2@DPADI@Z 1004946c     njsOracle.obj
 0002:0000948c       __ehfuncinfo$??$use_facet@V?$ctype@D@std@@@std@@YAABV?$ctype@D@0@ABVlocale@0@@Z 1004948c     njsOracle.obj
 0002:000094b0       __unwindtable$??$use_facet@V?$ctype@D@std@@@std@@YAABV?$ctype@D@0@ABVlocale@0@@Z 100494b0     njsOracle.obj
 0002:000094b8       __ehfuncinfo$??$New@VString@v8@@V?$basic_string@DU?$char_traits@D@std@@V?$allocator@D@2@@std@@@Nan@@YA?AV?$MaybeLocal@VString@v8@@@v8@@V?$basic_string@DU?$char_traits@D@std@@V?$allocator@D@2@@std@@@Z 100494b8     njsOracle.obj
 0002:000094dc       __unwindtable$??$New@VString@v8@@V?$basic_string@DU?$char_traits@D@std@@V?$allocator@D@2@@std@@@Nan@@YA?AV?$MaybeLocal@VString@v8@@@v8@@V?$basic_string@DU?$char_traits@D@std@@V?$allocator@D@2@@std@@@Z 100494dc     njsOracle.obj
 0002:000094e4       __ehfuncinfo$??$?6U?$char_traits@D@std@@@std@@YAAAV?$basic_ostream@DU?$char_traits@D@std@@@0@AAV10@PBD@Z 100494e4     njsOracle.obj
 0002:000094e4       __ehfuncinfo$??$?6DU?$char_traits@D@std@@V?$allocator@D@1@@std@@YAAAV?$basic_ostream@DU?$char_traits@D@std@@@0@AAV10@ABV?$basic_string@DU?$char_traits@D@std@@V?$allocator@D@2@@0@@Z 100494e4     dpiExceptionImpl.obj
 0002:00009508       __unwindtable$??$?6U?$char_traits@D@std@@@std@@YAAAV?$basic_ostream@DU?$char_traits@D@std@@@0@AAV10@PBD@Z 10049508     njsOracle.obj
 0002:00009508       __unwindtable$??$?6DU?$char_traits@D@std@@V?$allocator@D@1@@std@@YAAAV?$basic_ostream@DU?$char_traits@D@std@@@0@AAV10@ABV?$basic_string@DU?$char_traits@D@std@@V?$allocator@D@2@@0@@Z 10049508     dpiExceptionImpl.obj
 0002:00009518       __ehfuncinfo$??$use_facet@V?$num_put@DV?$ostreambuf_iterator@DU?$char_traits@D@std@@@std@@@std@@@std@@YAABV?$num_put@DV?$ostreambuf_iterator@DU?$char_traits@D@std@@@std@@@0@ABVlocale@0@@Z 10049518     njsOracle.obj
 0002:00009518       __ehfuncinfo$??$use_facet@V?$numpunct@D@std@@@std@@YAABV?$numpunct@D@0@ABVlocale@0@@Z 10049518     njsOracle.obj
 0002:0000953c       __unwindtable$??$use_facet@V?$numpunct@D@std@@@std@@YAABV?$numpunct@D@0@ABVlocale@0@@Z 1004953c     njsOracle.obj
 0002:0000953c       __unwindtable$??$use_facet@V?$num_put@DV?$ostreambuf_iterator@DU?$char_traits@D@std@@@std@@@std@@@std@@YAABV?$num_put@DV?$ostreambuf_iterator@DU?$char_traits@D@std@@@std@@@0@ABVlocale@0@@Z 1004953c     njsOracle.obj
 0002:00009544       __ehfuncinfo$?_Getcat@?$num_put@DV?$ostreambuf_iterator@DU?$char_traits@D@std@@@std@@@std@@SAIPAPBVfacet@locale@2@PBV42@@Z 10049544     njsOracle.obj
 0002:00009568       __unwindtable$?_Getcat@?$num_put@DV?$ostreambuf_iterator@DU?$char_traits@D@std@@@std@@@std@@SAIPAPBVfacet@locale@2@PBV42@@Z 10049568     njsOracle.obj
 0002:00009570       __ehfuncinfo$?_Getcat@?$numpunct@D@std@@SAIPAPBVfacet@locale@2@PBV42@@Z 10049570     njsOracle.obj
 0002:00009594       __unwindtable$?_Getcat@?$numpunct@D@std@@SAIPAPBVfacet@locale@2@PBV42@@Z 10049594     njsOracle.obj
 0002:000095b4       __ehfuncinfo$??0poolBaton@@QAE@V?$Local@VFunction@v8@@@v8@@V?$Local@VObject@v8@@@2@@Z 100495b4     njsPool.obj
 0002:000095d8       __unwindtable$??0poolBaton@@QAE@V?$Local@VFunction@v8@@@v8@@V?$Local@VObject@v8@@@2@@Z 100495d8     njsPool.obj
 0002:000095f8       __ehfuncinfo$??1poolBaton@@QAE@XZ 100495f8     njsPool.obj
 0002:0000961c       __unwindtable$??1poolBaton@@QAE@XZ 1004961c     njsPool.obj
 0002:0000963c       __ehfuncinfo$??_GPool@@EAEPAXI@Z 1004963c     njsPool.obj
 0002:0000963c       __ehfuncinfo$??_GConnection@@EAEPAXI@Z 1004963c     njsConnection.obj
 0002:00009660       __unwindtable$??_GConnection@@EAEPAXI@Z 10049660     njsConnection.obj
 0002:00009660       __unwindtable$??_GPool@@EAEPAXI@Z 10049660     njsPool.obj
 0002:00009668       __ehfuncinfo$?getPoolProperty@Pool@@CA?AV?$Local@VPrimitive@v8@@@v8@@PAV1@H@Z 10049668     njsPool.obj
 0002:00009668       __ehfuncinfo$?getPoolProperty@Pool@@CA?AV?$Local@VPrimitive@v8@@@v8@@PAV1@I@Z 10049668     njsPool.obj
 0002:0000968c       __unwindtable$?getPoolProperty@Pool@@CA?AV?$Local@VPrimitive@v8@@@v8@@PAV1@I@Z 1004968c     njsPool.obj
 0002:0000968c       __unwindtable$?getPoolProperty@Pool@@CA?AV?$Local@VPrimitive@v8@@@v8@@PAV1@H@Z 1004968c     njsPool.obj
 0002:0000969c       __ehfuncinfo$?GetConnectionsOpen@Pool@@CAXV?$Local@VString@v8@@@v8@@ABV?$PropertyCallbackInfo@VValue@v8@@@Nan@@@Z 1004969c     njsPool.obj
 0002:000096c0       __unwindtable$?GetConnectionsOpen@Pool@@CAXV?$Local@VString@v8@@@v8@@ABV?$PropertyCallbackInfo@VValue@v8@@@Nan@@@Z 100496c0     njsPool.obj
 0002:000096e0       __tryblocktable$?GetConnectionsOpen@Pool@@CAXV?$Local@VString@v8@@@v8@@ABV?$PropertyCallbackInfo@VValue@v8@@@Nan@@@Z 100496e0     njsPool.obj
 0002:000096f4       __catchsym$?GetConnectionsOpen@Pool@@CAXV?$Local@VString@v8@@@v8@@ABV?$PropertyCallbackInfo@VValue@v8@@@Nan@@@Z$4 100496f4     njsPool.obj
 0002:00009704       __ehfuncinfo$?GetConnectionsInUse@Pool@@CAXV?$Local@VString@v8@@@v8@@ABV?$PropertyCallbackInfo@VValue@v8@@@Nan@@@Z 10049704     njsPool.obj
 0002:00009728       __unwindtable$?GetConnectionsInUse@Pool@@CAXV?$Local@VString@v8@@@v8@@ABV?$PropertyCallbackInfo@VValue@v8@@@Nan@@@Z 10049728     njsPool.obj
 0002:00009748       __tryblocktable$?GetConnectionsInUse@Pool@@CAXV?$Local@VString@v8@@@v8@@ABV?$PropertyCallbackInfo@VValue@v8@@@Nan@@@Z 10049748     njsPool.obj
 0002:0000975c       __catchsym$?GetConnectionsInUse@Pool@@CAXV?$Local@VString@v8@@@v8@@ABV?$PropertyCallbackInfo@VValue@v8@@@Nan@@@Z$4 1004975c     njsPool.obj
 0002:0000976c       __ehfuncinfo$?setPoolProperty@Pool@@CAXPAV1@V?$basic_string@DU?$char_traits@D@std@@V?$allocator@D@2@@std@@@Z 1004976c     njsPool.obj
 0002:00009790       __unwindtable$?setPoolProperty@Pool@@CAXPAV1@V?$basic_string@DU?$char_traits@D@std@@V?$allocator@D@2@@std@@@Z 10049790     njsPool.obj
 0002:000097b0       __ehfuncinfo$?SetConnectionsOpen@Pool@@CAXV?$Local@VString@v8@@@v8@@V?$Local@VValue@v8@@@3@ABV?$PropertyCallbackInfo@X@Nan@@@Z 100497b0     njsPool.obj
 0002:000097b0       __ehfuncinfo$?SetPoolIncrement@Pool@@CAXV?$Local@VString@v8@@@v8@@V?$Local@VValue@v8@@@3@ABV?$PropertyCallbackInfo@X@Nan@@@Z 100497b0     njsPool.obj
 0002:000097b0       __ehfuncinfo$?SetPoolMin@Pool@@CAXV?$Local@VString@v8@@@v8@@V?$Local@VValue@v8@@@3@ABV?$PropertyCallbackInfo@X@Nan@@@Z 100497b0     njsPool.obj
 0002:000097b0       __ehfuncinfo$?SetConnectionsInUse@Pool@@CAXV?$Local@VString@v8@@@v8@@V?$Local@VValue@v8@@@3@ABV?$PropertyCallbackInfo@X@Nan@@@Z 100497b0     njsPool.obj
 0002:000097b0       __ehfuncinfo$?SetPoolMax@Pool@@CAXV?$Local@VString@v8@@@v8@@V?$Local@VValue@v8@@@3@ABV?$PropertyCallbackInfo@X@Nan@@@Z 100497b0     njsPool.obj
 0002:000097b0       __ehfuncinfo$?SetPoolPingInterval@Pool@@CAXV?$Local@VString@v8@@@v8@@V?$Local@VValue@v8@@@3@ABV?$PropertyCallbackInfo@X@Nan@@@Z 100497b0     njsPool.obj
 0002:000097b0       __ehfuncinfo$?SetStmtCacheSize@Pool@@CAXV?$Local@VString@v8@@@v8@@V?$Local@VValue@v8@@@3@ABV?$PropertyCallbackInfo@X@Nan@@@Z 100497b0     njsPool.obj
 0002:000097b0       __ehfuncinfo$?SetPoolTimeout@Pool@@CAXV?$Local@VString@v8@@@v8@@V?$Local@VValue@v8@@@3@ABV?$PropertyCallbackInfo@X@Nan@@@Z 100497b0     njsPool.obj
 0002:000097d4       __unwindtable$?SetPoolTimeout@Pool@@CAXV?$Local@VString@v8@@@v8@@V?$Local@VValue@v8@@@3@ABV?$PropertyCallbackInfo@X@Nan@@@Z 100497d4     njsPool.obj
 0002:000097d4       __unwindtable$?SetConnectionsOpen@Pool@@CAXV?$Local@VString@v8@@@v8@@V?$Local@VValue@v8@@@3@ABV?$PropertyCallbackInfo@X@Nan@@@Z 100497d4     njsPool.obj
 0002:000097d4       __unwindtable$?SetPoolMax@Pool@@CAXV?$Local@VString@v8@@@v8@@V?$Local@VValue@v8@@@3@ABV?$PropertyCallbackInfo@X@Nan@@@Z 100497d4     njsPool.obj
 0002:000097d4       __unwindtable$?SetPoolIncrement@Pool@@CAXV?$Local@VString@v8@@@v8@@V?$Local@VValue@v8@@@3@ABV?$PropertyCallbackInfo@X@Nan@@@Z 100497d4     njsPool.obj
 0002:000097d4       __unwindtable$?SetPoolPingInterval@Pool@@CAXV?$Local@VString@v8@@@v8@@V?$Local@VValue@v8@@@3@ABV?$PropertyCallbackInfo@X@Nan@@@Z 100497d4     njsPool.obj
 0002:000097d4       __unwindtable$?SetPoolMin@Pool@@CAXV?$Local@VString@v8@@@v8@@V?$Local@VValue@v8@@@3@ABV?$PropertyCallbackInfo@X@Nan@@@Z 100497d4     njsPool.obj
 0002:000097d4       __unwindtable$?SetStmtCacheSize@Pool@@CAXV?$Local@VString@v8@@@v8@@V?$Local@VValue@v8@@@3@ABV?$PropertyCallbackInfo@X@Nan@@@Z 100497d4     njsPool.obj
 0002:000097d4       __unwindtable$?SetConnectionsInUse@Pool@@CAXV?$Local@VString@v8@@@v8@@V?$Local@VValue@v8@@@3@ABV?$PropertyCallbackInfo@X@Nan@@@Z 100497d4     njsPool.obj
 0002:000097dc       __ehfuncinfo$?GetConnection@Pool@@CAXABV?$FunctionCallbackInfo@VValue@v8@@@Nan@@@Z 100497dc     njsPool.obj
 0002:000097dc       __ehfuncinfo$?Terminate@Pool@@CAXABV?$FunctionCallbackInfo@VValue@v8@@@Nan@@@Z 100497dc     njsPool.obj
 0002:00009800       __unwindtable$?GetConnection@Pool@@CAXABV?$FunctionCallbackInfo@VValue@v8@@@Nan@@@Z 10049800     njsPool.obj
 0002:00009800       __unwindtable$?Terminate@Pool@@CAXABV?$FunctionCallbackInfo@VValue@v8@@@Nan@@@Z 10049800     njsPool.obj
 0002:00009818       __ehfuncinfo$?Async_GetConnection@Pool@@CAXPAUuv_work_s@@@Z 10049818     njsPool.obj
 0002:0000983c       __unwindtable$?Async_GetConnection@Pool@@CAXPAUuv_work_s@@@Z 1004983c     njsPool.obj
 0002:00009864       __tryblocktable$?Async_GetConnection@Pool@@CAXPAUuv_work_s@@@Z 10049864     njsPool.obj
 0002:00009878       __catchsym$?Async_GetConnection@Pool@@CAXPAUuv_work_s@@@Z$7 10049878     njsPool.obj
 0002:00009888       __ehfuncinfo$?Async_Terminate@Pool@@CAXPAUuv_work_s@@@Z 10049888     njsPool.obj
 0002:000098ac       __unwindtable$?Async_Terminate@Pool@@CAXPAUuv_work_s@@@Z 100498ac     njsPool.obj
 0002:000098bc       __tryblocktable$?Async_Terminate@Pool@@CAXPAUuv_work_s@@@Z 100498bc     njsPool.obj
 0002:000098d0       __catchsym$?Async_Terminate@Pool@@CAXPAUuv_work_s@@@Z$4 100498d0     njsPool.obj
 0002:000098e0       __ehfuncinfo$?Async_AfterRollback@Connection@@CAXPAUuv_work_s@@@Z 100498e0     njsConnection.obj
 0002:000098e0       __ehfuncinfo$?Async_AfterCommit@Connection@@CAXPAUuv_work_s@@@Z 100498e0     njsConnection.obj
 0002:000098e0       __ehfuncinfo$?Async_AfterClose@ResultSet@@CAXPAUuv_work_s@@@Z 100498e0     njsResultSet.obj
 0002:000098e0       __ehfuncinfo$?Async_AfterBreak@Connection@@CAXPAUuv_work_s@@@Z 100498e0     njsConnection.obj
 0002:000098e0       __ehfuncinfo$?Async_AfterWrite@ILob@@CAXPAUuv_work_s@@@Z 100498e0     njsIntLob.obj
 0002:000098e0       __ehfuncinfo$?Async_AfterTerminate@Pool@@CAXPAUuv_work_s@@@Z 100498e0     njsPool.obj
 0002:000098e0       __ehfuncinfo$?Async_AfterClose@ILob@@CAXPAUuv_work_s@@@Z 100498e0     njsIntLob.obj
 0002:00009904       __unwindtable$?Async_AfterTerminate@Pool@@CAXPAUuv_work_s@@@Z 10049904     njsPool.obj
 0002:00009904       __unwindtable$?Async_AfterCommit@Connection@@CAXPAUuv_work_s@@@Z 10049904     njsConnection.obj
 0002:00009904       __unwindtable$?Async_AfterWrite@ILob@@CAXPAUuv_work_s@@@Z 10049904     njsIntLob.obj
 0002:00009904       __unwindtable$?Async_AfterClose@ILob@@CAXPAUuv_work_s@@@Z 10049904     njsIntLob.obj
 0002:00009904       __unwindtable$?Async_AfterBreak@Connection@@CAXPAUuv_work_s@@@Z 10049904     njsConnection.obj
 0002:00009904       __unwindtable$?Async_AfterClose@ResultSet@@CAXPAUuv_work_s@@@Z 10049904     njsResultSet.obj
 0002:00009904       __unwindtable$?Async_AfterRollback@Connection@@CAXPAUuv_work_s@@@Z 10049904     njsConnection.obj
 0002:00009914       __ehfuncinfo$?Set@Nan@@YA?AV?$Maybe@_N@v8@@V?$Local@VObject@v8@@@3@IV?$Local@VValue@v8@@@3@@Z 10049914     njsConnection.obj
 0002:00009938       __unwindtable$?Set@Nan@@YA?AV?$Maybe@_N@v8@@V?$Local@VObject@v8@@@3@IV?$Local@VValue@v8@@@3@@Z 10049938     njsConnection.obj
 0002:00009940       __ehfuncinfo$?New@?$Factory@VDate@v8@@@imp@Nan@@SA?AV?$MaybeLocal@VDate@v8@@@v8@@N@Z 10049940     njsConnection.obj
 0002:00009964       __unwindtable$?New@?$Factory@VDate@v8@@@imp@Nan@@SA?AV?$MaybeLocal@VDate@v8@@@v8@@N@Z 10049964     njsConnection.obj
 0002:00009970       __ehfuncinfo$??0eBaton@@QAE@AAIV?$Local@VFunction@v8@@@v8@@V?$Local@VObject@v8@@@2@@Z 10049970     njsConnection.obj
 0002:00009998       __unwindtable$??0eBaton@@QAE@AAIV?$Local@VFunction@v8@@@v8@@V?$Local@VObject@v8@@@2@@Z 10049998     njsConnection.obj
 0002:000099e0       __ehfuncinfo$??1eBaton@@QAE@XZ 100499e0     njsConnection.obj
 0002:00009a08       __unwindtable$??1eBaton@@QAE@XZ 10049a08     njsConnection.obj
 0002:00009a50       __ehfuncinfo$?lobPropertyException@ILob@@CAXPAV1@W4NJSErrorType@@V?$basic_string@DU?$char_traits@D@std@@V?$allocator@D@2@@std@@@Z 10049a50     njsIntLob.obj
 0002:00009a50       __ehfuncinfo$?connectionPropertyException@Connection@@CAXPAV1@W4NJSErrorType@@V?$basic_string@DU?$char_traits@D@std@@V?$allocator@D@2@@std@@@Z 10049a50     njsConnection.obj
 0002:00009a74       __unwindtable$?connectionPropertyException@Connection@@CAXPAV1@W4NJSErrorType@@V?$basic_string@DU?$char_traits@D@std@@V?$allocator@D@2@@std@@@Z 10049a74     njsConnection.obj
 0002:00009a74       __unwindtable$?lobPropertyException@ILob@@CAXPAV1@W4NJSErrorType@@V?$basic_string@DU?$char_traits@D@std@@V?$allocator@D@2@@std@@@Z 10049a74     njsIntLob.obj
 0002:00009a8c       __ehfuncinfo$?GetStmtCacheSize@Connection@@CAXV?$Local@VString@v8@@@v8@@ABV?$PropertyCallbackInfo@VValue@v8@@@Nan@@@Z 10049a8c     njsConnection.obj
 0002:00009ab0       __unwindtable$?GetStmtCacheSize@Connection@@CAXV?$Local@VString@v8@@@v8@@ABV?$PropertyCallbackInfo@VValue@v8@@@Nan@@@Z 10049ab0     njsConnection.obj
 0002:00009ad0       __tryblocktable$?GetStmtCacheSize@Connection@@CAXV?$Local@VString@v8@@@v8@@ABV?$PropertyCallbackInfo@VValue@v8@@@Nan@@@Z 10049ad0     njsConnection.obj
 0002:00009ae4       __catchsym$?GetStmtCacheSize@Connection@@CAXV?$Local@VString@v8@@@v8@@ABV?$PropertyCallbackInfo@VValue@v8@@@Nan@@@Z$4 10049ae4     njsConnection.obj
 0002:00009af4       __ehfuncinfo$?SetClientId@Connection@@CAXV?$Local@VString@v8@@@v8@@V?$Local@VValue@v8@@@3@ABV?$PropertyCallbackInfo@X@Nan@@@Z 10049af4     njsConnection.obj
 0002:00009b18       __unwindtable$?SetClientId@Connection@@CAXV?$Local@VString@v8@@@v8@@V?$Local@VValue@v8@@@3@ABV?$PropertyCallbackInfo@X@Nan@@@Z 10049b18     njsConnection.obj
 0002:00009b50       __tryblocktable$?SetClientId@Connection@@CAXV?$Local@VString@v8@@@v8@@V?$Local@VValue@v8@@@3@ABV?$PropertyCallbackInfo@X@Nan@@@Z 10049b50     njsConnection.obj
 0002:00009b64       __catchsym$?SetClientId@Connection@@CAXV?$Local@VString@v8@@@v8@@V?$Local@VValue@v8@@@3@ABV?$PropertyCallbackInfo@X@Nan@@@Z$9 10049b64     njsConnection.obj
 0002:00009b74       __ehfuncinfo$?SetModule@Connection@@CAXV?$Local@VString@v8@@@v8@@V?$Local@VValue@v8@@@3@ABV?$PropertyCallbackInfo@X@Nan@@@Z 10049b74     njsConnection.obj
 0002:00009b98       __unwindtable$?SetModule@Connection@@CAXV?$Local@VString@v8@@@v8@@V?$Local@VValue@v8@@@3@ABV?$PropertyCallbackInfo@X@Nan@@@Z 10049b98     njsConnection.obj
 0002:00009bd0       __tryblocktable$?SetModule@Connection@@CAXV?$Local@VString@v8@@@v8@@V?$Local@VValue@v8@@@3@ABV?$PropertyCallbackInfo@X@Nan@@@Z 10049bd0     njsConnection.obj
 0002:00009be4       __catchsym$?SetModule@Connection@@CAXV?$Local@VString@v8@@@v8@@V?$Local@VValue@v8@@@3@ABV?$PropertyCallbackInfo@X@Nan@@@Z$9 10049be4     njsConnection.obj
 0002:00009bf4       __ehfuncinfo$?SetAction@Connection@@CAXV?$Local@VString@v8@@@v8@@V?$Local@VValue@v8@@@3@ABV?$PropertyCallbackInfo@X@Nan@@@Z 10049bf4     njsConnection.obj
 0002:00009c18       __unwindtable$?SetAction@Connection@@CAXV?$Local@VString@v8@@@v8@@V?$Local@VValue@v8@@@3@ABV?$PropertyCallbackInfo@X@Nan@@@Z 10049c18     njsConnection.obj
 0002:00009c50       __tryblocktable$?SetAction@Connection@@CAXV?$Local@VString@v8@@@v8@@V?$Local@VValue@v8@@@3@ABV?$PropertyCallbackInfo@X@Nan@@@Z 10049c50     njsConnection.obj
 0002:00009c64       __catchsym$?SetAction@Connection@@CAXV?$Local@VString@v8@@@v8@@V?$Local@VValue@v8@@@3@ABV?$PropertyCallbackInfo@X@Nan@@@Z$9 10049c64     njsConnection.obj
 0002:00009c74       __ehfuncinfo$?GetOracleServerVersion@Connection@@CAXV?$Local@VString@v8@@@v8@@ABV?$PropertyCallbackInfo@VValue@v8@@@Nan@@@Z 10049c74     njsConnection.obj
 0002:00009c98       __unwindtable$?GetOracleServerVersion@Connection@@CAXV?$Local@VString@v8@@@v8@@ABV?$PropertyCallbackInfo@VValue@v8@@@Nan@@@Z 10049c98     njsConnection.obj
 0002:00009cb8       __tryblocktable$?GetOracleServerVersion@Connection@@CAXV?$Local@VString@v8@@@v8@@ABV?$PropertyCallbackInfo@VValue@v8@@@Nan@@@Z 10049cb8     njsConnection.obj
 0002:00009ccc       __catchsym$?GetOracleServerVersion@Connection@@CAXV?$Local@VString@v8@@@v8@@ABV?$PropertyCallbackInfo@VValue@v8@@@Nan@@@Z$4 10049ccc     njsConnection.obj
 0002:00009cdc       __ehfuncinfo$?Execute@Connection@@CAXABV?$FunctionCallbackInfo@VValue@v8@@@Nan@@@Z 10049cdc     njsConnection.obj
 0002:00009d00       __unwindtable$?Execute@Connection@@CAXABV?$FunctionCallbackInfo@VValue@v8@@@Nan@@@Z 10049d00     njsConnection.obj
 0002:00009d28       __ehfuncinfo$?ProcessBinds@Connection@@CAXABV?$FunctionCallbackInfo@VValue@v8@@@Nan@@IPAUeBaton@@@Z 10049d28     njsConnection.obj
 0002:00009d4c       __unwindtable$?ProcessBinds@Connection@@CAXABV?$FunctionCallbackInfo@VValue@v8@@@Nan@@IPAUeBaton@@@Z 10049d4c     njsConnection.obj
 0002:00009d54       __ehfuncinfo$?ProcessOptions@Connection@@CAXABV?$FunctionCallbackInfo@VValue@v8@@@Nan@@IPAUeBaton@@@Z 10049d54     njsConnection.obj
 0002:00009d78       __unwindtable$?ProcessOptions@Connection@@CAXABV?$FunctionCallbackInfo@VValue@v8@@@Nan@@IPAUeBaton@@@Z 10049d78     njsConnection.obj
 0002:00009d90       __ehfuncinfo$?GetBinds@Connection@@CAXV?$Local@VObject@v8@@@v8@@PAUeBaton@@@Z 10049d90     njsConnection.obj
 0002:00009db4       __unwindtable$?GetBinds@Connection@@CAXV?$Local@VObject@v8@@@v8@@PAUeBaton@@@Z 10049db4     njsConnection.obj
 0002:00009ddc       __ehfuncinfo$?GetBinds@Connection@@CAXV?$Local@VArray@v8@@@v8@@PAUeBaton@@@Z 10049ddc     njsConnection.obj
 0002:00009e00       __unwindtable$?GetBinds@Connection@@CAXV?$Local@VArray@v8@@@v8@@PAUeBaton@@@Z 10049e00     njsConnection.obj
 0002:00009e10       __ehfuncinfo$?GetBindUnit@Connection@@CAXV?$Local@VValue@v8@@@v8@@PAUBind@@_NPAUeBaton@@@Z 10049e10     njsConnection.obj
 0002:00009e34       __unwindtable$?GetBindUnit@Connection@@CAXV?$Local@VValue@v8@@@v8@@PAUBind@@_NPAUeBaton@@@Z 10049e34     njsConnection.obj
 0002:00009e54       __ehfuncinfo$?GetOutBindParams@Connection@@CAXGPAUBind@@PAUeBaton@@@Z 10049e54     njsConnection.obj
 0002:00009e78       __unwindtable$?GetOutBindParams@Connection@@CAXGPAUBind@@PAUeBaton@@@Z 10049e78     njsConnection.obj
 0002:00009e80       __ehfuncinfo$?GetInBindParams@Connection@@CAXV?$Local@VValue@v8@@@v8@@PAUBind@@PAUeBaton@@@Z 10049e80     njsConnection.obj
 0002:00009e80       __ehfuncinfo$?v8Date2OraDate@Connection@@CAXV?$Local@VValue@v8@@@v8@@PAUBind@@@Z 10049e80     njsConnection.obj
 0002:00009ea4       __unwindtable$?v8Date2OraDate@Connection@@CAXV?$Local@VValue@v8@@@v8@@PAUBind@@@Z 10049ea4     njsConnection.obj
 0002:00009ea4       __unwindtable$?GetInBindParams@Connection@@CAXV?$Local@VValue@v8@@@v8@@PAUBind@@PAUeBaton@@@Z 10049ea4     njsConnection.obj
 0002:00009eac       __ehfuncinfo$?GetInBindParamsScalar@Connection@@CAXV?$Local@VValue@v8@@@v8@@PAUBind@@PAUeBaton@@@Z 10049eac     njsConnection.obj
 0002:00009ed0       __unwindtable$?GetInBindParamsScalar@Connection@@CAXV?$Local@VValue@v8@@@v8@@PAUBind@@PAUeBaton@@@Z 10049ed0     njsConnection.obj
 0002:00009ee8       __ehfuncinfo$?GetInBindParamsArray@Connection@@CAXV?$Local@VArray@v8@@@v8@@PAUBind@@PAUeBaton@@@Z 10049ee8     njsConnection.obj
 0002:00009f0c       __unwindtable$?GetInBindParamsArray@Connection@@CAXV?$Local@VArray@v8@@@v8@@PAUBind@@PAUeBaton@@@Z 10049f0c     njsConnection.obj
 0002:00009f1c       __ehfuncinfo$?Async_Execute@Connection@@CAXPAUuv_work_s@@@Z 10049f1c     njsConnection.obj
 0002:00009f40       __unwindtable$?Async_Execute@Connection@@CAXPAUuv_work_s@@@Z 10049f40     njsConnection.obj
 0002:00009f60       __tryblocktable$?Async_Execute@Connection@@CAXPAUuv_work_s@@@Z 10049f60     njsConnection.obj
 0002:00009f74       __catchsym$?Async_Execute@Connection@@CAXPAUuv_work_s@@@Z$27 10049f74     njsConnection.obj
 0002:00009f84       __ehfuncinfo$?Descr2protoILob@Connection@@CAXPAUeBaton@@II@Z 10049f84     njsConnection.obj
 0002:00009fa8       __unwindtable$?Descr2protoILob@Connection@@CAXPAUeBaton@@II@Z 10049fa8     njsConnection.obj
 0002:00009fc0       __ehfuncinfo$?Async_AfterExecute@Connection@@CAXPAUuv_work_s@@@Z 10049fc0     njsConnection.obj
 0002:00009fe4       __unwindtable$?Async_AfterExecute@Connection@@CAXPAUuv_work_s@@@Z 10049fe4     njsConnection.obj
 0002:00009ff4       __ehfuncinfo$?GetMetaData@Connection@@SA?AV?$Local@VValue@v8@@@v8@@PBUMetaInfo@@I_N@Z 10049ff4     njsConnection.obj
 0002:0000a018       __unwindtable$?GetMetaData@Connection@@SA?AV?$Local@VValue@v8@@@v8@@PBUMetaInfo@@I_N@Z 1004a018     njsConnection.obj
 0002:0000a020       __ehfuncinfo$?GetRows@Connection@@SA?AV?$Local@VValue@v8@@@v8@@PAUeBaton@@@Z 1004a020     njsConnection.obj
 0002:0000a044       __unwindtable$?GetRows@Connection@@SA?AV?$Local@VValue@v8@@@v8@@PAUeBaton@@@Z 1004a044     njsConnection.obj
 0002:0000a04c       __ehfuncinfo$?ToV8Value@Connection@@CA?AV?$Local@VValue@v8@@@v8@@PAUeBaton@@_NII@Z 1004a04c     njsConnection.obj
 0002:0000a070       __unwindtable$?ToV8Value@Connection@@CA?AV?$Local@VValue@v8@@@v8@@PAUeBaton@@_NII@Z 1004a070     njsConnection.obj
 0002:0000a078       __ehfuncinfo$?Define2V8Value@Connection@@CA?AV?$Local@VValue@v8@@@v8@@PAUeBaton@@IIPAUDefine@@PAUExtDefine@@@Z 1004a078     njsConnection.obj
 0002:0000a078       __ehfuncinfo$?Bind2V8Value@Connection@@CA?AV?$Local@VValue@v8@@@v8@@PAUeBaton@@PAUBind@@I@Z 1004a078     njsConnection.obj
 0002:0000a09c       __unwindtable$?Bind2V8Value@Connection@@CA?AV?$Local@VValue@v8@@@v8@@PAUeBaton@@PAUBind@@I@Z 1004a09c     njsConnection.obj
 0002:0000a09c       __unwindtable$?Define2V8Value@Connection@@CA?AV?$Local@VValue@v8@@@v8@@PAUeBaton@@IIPAUDefine@@PAUExtDefine@@@Z 1004a09c     njsConnection.obj
 0002:0000a0a4       __ehfuncinfo$?RefCursor2V8Value@Connection@@CA?AV?$Local@VValue@v8@@@v8@@PAUeBaton@@PAUBind@@PAUExtBind@@@Z 1004a0a4     njsConnection.obj
 0002:0000a0c8       __unwindtable$?RefCursor2V8Value@Connection@@CA?AV?$Local@VValue@v8@@@v8@@PAUeBaton@@PAUBind@@PAUExtBind@@@Z 1004a0c8     njsConnection.obj
 0002:0000a0d0       __ehfuncinfo$?Lob2V8Value@Connection@@CA?AV?$Local@VValue@v8@@@v8@@PAUeBaton@@PAUBind@@@Z 1004a0d0     njsConnection.obj
 0002:0000a0f4       __unwindtable$?Lob2V8Value@Connection@@CA?AV?$Local@VValue@v8@@@v8@@PAUeBaton@@PAUBind@@@Z 1004a0f4     njsConnection.obj
 0002:0000a0fc       __ehfuncinfo$?ToV8ArrayValue@Connection@@CA?AV?$Local@VValue@v8@@@v8@@PAUeBaton@@PAUBind@@K@Z 1004a0fc     njsConnection.obj
 0002:0000a120       __unwindtable$?ToV8ArrayValue@Connection@@CA?AV?$Local@VValue@v8@@@v8@@PAUeBaton@@PAUBind@@K@Z 1004a120     njsConnection.obj
 0002:0000a128       __ehfuncinfo$?GetOutBinds@Connection@@CA?AV?$Local@VValue@v8@@@v8@@PAUeBaton@@@Z 1004a128     njsConnection.obj
 0002:0000a14c       __unwindtable$?GetOutBinds@Connection@@CA?AV?$Local@VValue@v8@@@v8@@PAUeBaton@@@Z 1004a14c     njsConnection.obj
 0002:0000a154       __ehfuncinfo$?GetOutBindArray@Connection@@CA?AV?$Local@VValue@v8@@@v8@@PAUeBaton@@@Z 1004a154     njsConnection.obj
 0002:0000a178       __unwindtable$?GetOutBindArray@Connection@@CA?AV?$Local@VValue@v8@@@v8@@PAUeBaton@@@Z 1004a178     njsConnection.obj
 0002:0000a188       __ehfuncinfo$?GetOutBindObject@Connection@@CA?AV?$Local@VValue@v8@@@v8@@PAUeBaton@@@Z 1004a188     njsConnection.obj
 0002:0000a1ac       __unwindtable$?GetOutBindObject@Connection@@CA?AV?$Local@VValue@v8@@@v8@@PAUeBaton@@@Z 1004a1ac     njsConnection.obj
 0002:0000a1bc       __ehfuncinfo$?Release@Connection@@CAXABV?$FunctionCallbackInfo@VValue@v8@@@Nan@@@Z 1004a1bc     njsConnection.obj
 0002:0000a1e0       __unwindtable$?Release@Connection@@CAXABV?$FunctionCallbackInfo@VValue@v8@@@Nan@@@Z 1004a1e0     njsConnection.obj
 0002:0000a208       __ehfuncinfo$?Async_Release@Connection@@CAXPAUuv_work_s@@@Z 1004a208     njsConnection.obj
 0002:0000a22c       __unwindtable$?Async_Release@Connection@@CAXPAUuv_work_s@@@Z 1004a22c     njsConnection.obj
 0002:0000a244       __tryblocktable$?Async_Release@Connection@@CAXPAUuv_work_s@@@Z 1004a244     njsConnection.obj
 0002:0000a258       __catchsym$?Async_Release@Connection@@CAXPAUuv_work_s@@@Z$5 1004a258     njsConnection.obj
 0002:0000a268       __ehfuncinfo$?Async_AfterRelease@Connection@@CAXPAUuv_work_s@@@Z 1004a268     njsConnection.obj
 0002:0000a28c       __unwindtable$?Async_AfterRelease@Connection@@CAXPAUuv_work_s@@@Z 1004a28c     njsConnection.obj
 0002:0000a29c       __ehfuncinfo$?Commit@Connection@@CAXABV?$FunctionCallbackInfo@VValue@v8@@@Nan@@@Z 1004a29c     njsConnection.obj
 0002:0000a29c       __ehfuncinfo$?Read@ILob@@CAXABV?$FunctionCallbackInfo@VValue@v8@@@Nan@@@Z 1004a29c     njsIntLob.obj
 0002:0000a29c       __ehfuncinfo$?Write@ILob@@CAXABV?$FunctionCallbackInfo@VValue@v8@@@Nan@@@Z 1004a29c     njsIntLob.obj
 0002:0000a29c       __ehfuncinfo$?Close@ResultSet@@CAXABV?$FunctionCallbackInfo@VValue@v8@@@Nan@@@Z 1004a29c     njsResultSet.obj
 0002:0000a29c       __ehfuncinfo$?Break@Connection@@CAXABV?$FunctionCallbackInfo@VValue@v8@@@Nan@@@Z 1004a29c     njsConnection.obj
 0002:0000a29c       __ehfuncinfo$?Rollback@Connection@@CAXABV?$FunctionCallbackInfo@VValue@v8@@@Nan@@@Z 1004a29c     njsConnection.obj
 0002:0000a2c0       __unwindtable$?Break@Connection@@CAXABV?$FunctionCallbackInfo@VValue@v8@@@Nan@@@Z 1004a2c0     njsConnection.obj
 0002:0000a2c0       __unwindtable$?Write@ILob@@CAXABV?$FunctionCallbackInfo@VValue@v8@@@Nan@@@Z 1004a2c0     njsIntLob.obj
 0002:0000a2c0       __unwindtable$?Rollback@Connection@@CAXABV?$FunctionCallbackInfo@VValue@v8@@@Nan@@@Z 1004a2c0     njsConnection.obj
 0002:0000a2c0       __unwindtable$?Read@ILob@@CAXABV?$FunctionCallbackInfo@VValue@v8@@@Nan@@@Z 1004a2c0     njsIntLob.obj
 0002:0000a2c0       __unwindtable$?Commit@Connection@@CAXABV?$FunctionCallbackInfo@VValue@v8@@@Nan@@@Z 1004a2c0     njsConnection.obj
 0002:0000a2c0       __unwindtable$?Close@ResultSet@@CAXABV?$FunctionCallbackInfo@VValue@v8@@@Nan@@@Z 1004a2c0     njsResultSet.obj
 0002:0000a2e0       __ehfuncinfo$?Async_Commit@Connection@@CAXPAUuv_work_s@@@Z 1004a2e0     njsConnection.obj
 0002:0000a304       __unwindtable$?Async_Commit@Connection@@CAXPAUuv_work_s@@@Z 1004a304     njsConnection.obj
 0002:0000a314       __tryblocktable$?Async_Commit@Connection@@CAXPAUuv_work_s@@@Z 1004a314     njsConnection.obj
 0002:0000a328       __catchsym$?Async_Commit@Connection@@CAXPAUuv_work_s@@@Z$4 1004a328     njsConnection.obj
 0002:0000a338       __ehfuncinfo$?Async_Rollback@Connection@@CAXPAUuv_work_s@@@Z 1004a338     njsConnection.obj
 0002:0000a35c       __unwindtable$?Async_Rollback@Connection@@CAXPAUuv_work_s@@@Z 1004a35c     njsConnection.obj
 0002:0000a36c       __tryblocktable$?Async_Rollback@Connection@@CAXPAUuv_work_s@@@Z 1004a36c     njsConnection.obj
 0002:0000a380       __catchsym$?Async_Rollback@Connection@@CAXPAUuv_work_s@@@Z$4 1004a380     njsConnection.obj
